

HI-TECH Software PIC LITE Macro Assembler V9.83 build 10920 
                                                                                               Mon Mar 11 10:28:50 2019

HI-TECH Software Omniscient Code Generator (Lite mode) build 10920
     1  0000                     opt subtitle "HI-TECH Software Omniscient Code Generator (Lite mode) build 10920"
     2                           
     3                           opt pagewidth 120
     4                           
     5                           	opt lm
     6                           
     7                           	processor	16F877A
     8                           clrc	macro
     9                           	bcf	3,0
    10  0000                     	endm
    11                           clrz	macro
    12                           	bcf	3,2
    13  0000                     	endm
    14                           setc	macro
    15                           	bsf	3,0
    16  0000                     	endm
    17                           setz	macro
    18                           	bsf	3,2
    19  0000                     	endm
    20                           skipc	macro
    21                           	btfss	3,0
    22  0000                     	endm
    23                           skipz	macro
    24                           	btfss	3,2
    25  0000                     	endm
    26                           skipnc	macro
    27                           	btfsc	3,0
    28  0000                     	endm
    29                           skipnz	macro
    30                           	btfsc	3,2
    31  0000                     	endm
    32  0000                     indf	equ	0
    33  0000                     indf0	equ	0
    34  0002                     pc	equ	2
    35  0002                     pcl	equ	2
    36  0003                     status	equ	3
    37  0004                     fsr	equ	4
    38  0004                     fsr0	equ	4
    39  0001                     c	equ	1
    40  0000                     z	equ	0
    41  000A                     pclath	equ	10
    42                           # 8 "C:\Users\GauravLT\Desktop\Finger Print Sensor\R307\PIC16F877A_R307\main.c"
    43                           	psect config,class=CONFIG,delta=2 ;#
    44                           # 8 "C:\Users\GauravLT\Desktop\Finger Print Sensor\R307\PIC16F877A_R307\main.c"
    45  2007  3F3A               	dw 0x3F3A ;#
    46                           	FNCALL	_main,_LcdInit
    47                           	FNCALL	_main,_LcdPrint
    48                           	FNCALL	_main,_Delay
    49                           	FNCALL	_main,_UartInit
    50                           	FNCALL	_main,_VerifyPswd
    51                           	FNCALL	_main,_menu
    52                           	FNCALL	_main,_ControlAccess
    53                           	FNCALL	_main,_AlterAdminUser
    54                           	FNCALL	_main,_AddNewUserAfterAdminConfirm
    55                           	FNCALL	_main,_EraseAllUsersAfterAdminConfirm
    56                           	FNCALL	_main,_DeleteUserAfterAdminConfirm
    57                           	FNCALL	_DeleteUserAfterAdminConfirm,_ee_read
    58                           	FNCALL	_DeleteUserAfterAdminConfirm,_LcdClear
    59                           	FNCALL	_DeleteUserAfterAdminConfirm,_LcdPrint
    60                           	FNCALL	_DeleteUserAfterAdminConfirm,_HiSpeedScan0
    61                           	FNCALL	_DeleteUserAfterAdminConfirm,_Delay
    62                           	FNCALL	_DeleteUserAfterAdminConfirm,_DecToStr
    63                           	FNCALL	_DeleteUserAfterAdminConfirm,_KeyScan
    64                           	FNCALL	_DeleteUserAfterAdminConfirm,_IsKeyPending
    65                           	FNCALL	_DeleteUserAfterAdminConfirm,_GetKey
    66                           	FNCALL	_DeleteUserAfterAdminConfirm,_DeleteUser
    67                           	FNCALL	_DeleteUserAfterAdminConfirm,_releaseEElocation
    68                           	FNCALL	_AddNewUserAfterAdminConfirm,_ee_read
    69                           	FNCALL	_AddNewUserAfterAdminConfirm,_LcdClear
    70                           	FNCALL	_AddNewUserAfterAdminConfirm,_LcdPrint
    71                           	FNCALL	_AddNewUserAfterAdminConfirm,_HiSpeedScan0
    72                           	FNCALL	_AddNewUserAfterAdminConfirm,_Delay
    73                           	FNCALL	_AddNewUserAfterAdminConfirm,_getNextAvailLocation
    74                           	FNCALL	_AddNewUserAfterAdminConfirm,_AddNewUser
    75                           	FNCALL	_AddNewUserAfterAdminConfirm,_DecToStr
    76                           	FNCALL	_AlterAdminUser,_ee_read
    77                           	FNCALL	_AlterAdminUser,_LcdClear
    78                           	FNCALL	_AlterAdminUser,_LcdPrint
    79                           	FNCALL	_AlterAdminUser,_HiSpeedScan0
    80                           	FNCALL	_AlterAdminUser,_Delay
    81                           	FNCALL	_AlterAdminUser,_DeleteUser
    82                           	FNCALL	_AlterAdminUser,_AddNewUser
    83                           	FNCALL	_ControlAccess,_LcdClear
    84                           	FNCALL	_ControlAccess,_LcdPrint
    85                           	FNCALL	_ControlAccess,_HiSpeedScan0
    86                           	FNCALL	_ControlAccess,_memset1
    87                           	FNCALL	_ControlAccess,_DecToStr
    88                           	FNCALL	_ControlAccess,_Delay
    89                           	FNCALL	_EraseAllUsersAfterAdminConfirm,_ee_read
    90                           	FNCALL	_EraseAllUsersAfterAdminConfirm,_LcdClear
    91                           	FNCALL	_EraseAllUsersAfterAdminConfirm,_LcdPrint
    92                           	FNCALL	_EraseAllUsersAfterAdminConfirm,_HiSpeedScan0
    93                           	FNCALL	_EraseAllUsersAfterAdminConfirm,_Delay
    94                           	FNCALL	_EraseAllUsersAfterAdminConfirm,_EraseAllUsers
    95                           	FNCALL	_EraseAllUsersAfterAdminConfirm,_ee_eraseNPos
    96                           	FNCALL	_EraseAllUsersAfterAdminConfirm,_ee_write
    97                           	FNCALL	_menu,_LcdClear
    98                           	FNCALL	_menu,_LcdPrint
    99                           	FNCALL	_menu,_KeyScan
   100                           	FNCALL	_menu,_IsKeyPending
   101                           	FNCALL	_menu,_GetKey
   102                           	FNCALL	_AddNewUser,_KeyScan
   103                           	FNCALL	_AddNewUser,_IsKeyPending
   104                           	FNCALL	_AddNewUser,_GetKey
   105                           	FNCALL	_AddNewUser,_ScanForImage
   106                           	FNCALL	_AddNewUser,_GenCharacterFileFromImage
   107                           	FNCALL	_AddNewUser,_AddUserA
   108                           	FNCALL	_AddNewUser,_AddUserB
   109                           	FNCALL	_AddNewUser,_AddUserC
   110                           	FNCALL	_AddNewUser,_reserveEElocation
   111                           	FNCALL	_HiSpeedScan0,_KeyScan
   112                           	FNCALL	_HiSpeedScan0,_IsKeyPending
   113                           	FNCALL	_HiSpeedScan0,_GetKey
   114                           	FNCALL	_HiSpeedScan0,_ScanForImage
   115                           	FNCALL	_HiSpeedScan0,_GenCharacterFileFromImage
   116                           	FNCALL	_HiSpeedScan0,_HiSpeedScan
   117                           	FNCALL	_AddUserC,_ClearUartBuffer
   118                           	FNCALL	_AddUserC,_sendPackage
   119                           	FNCALL	_AddUserC,_FillUpResponse
   120                           	FNCALL	_AddUserB,_ClearUartBuffer
   121                           	FNCALL	_AddUserB,_sendPackage
   122                           	FNCALL	_AddUserB,_FillUpResponse
   123                           	FNCALL	_AddUserA,_ClearUartBuffer
   124                           	FNCALL	_AddUserA,_sendPackage
   125                           	FNCALL	_AddUserA,_FillUpResponse
   126                           	FNCALL	_HiSpeedScan,_ClearUartBuffer
   127                           	FNCALL	_HiSpeedScan,_sendPackage
   128                           	FNCALL	_HiSpeedScan,_FillUpResponse
   129                           	FNCALL	_GenCharacterFileFromImage,_ClearUartBuffer
   130                           	FNCALL	_GenCharacterFileFromImage,_sendPackage
   131                           	FNCALL	_GenCharacterFileFromImage,_FillUpResponse
   132                           	FNCALL	_ScanForImage,_ClearUartBuffer
   133                           	FNCALL	_ScanForImage,_sendPackage
   134                           	FNCALL	_ScanForImage,_FillUpResponse
   135                           	FNCALL	_VerifyPswd,_ClearUartBuffer
   136                           	FNCALL	_VerifyPswd,_sendPackage
   137                           	FNCALL	_VerifyPswd,_FillUpResponse
   138                           	FNCALL	_DeleteUser,_ClearUartBuffer
   139                           	FNCALL	_DeleteUser,_sendPackage
   140                           	FNCALL	_DeleteUser,_FillUpResponse
   141                           	FNCALL	_EraseAllUsers,_ClearUartBuffer
   142                           	FNCALL	_EraseAllUsers,_sendPackage
   143                           	FNCALL	_EraseAllUsers,_FillUpResponse
   144                           	FNCALL	_LcdPrint,_UploadLcdBuffer
   145                           	FNCALL	_LcdInit,_LcdDelay
   146                           	FNCALL	_LcdInit,_SendByte
   147                           	FNCALL	_LcdInit,_LcdClear
   148                           	FNCALL	_sendPackage,_SendUartValue
   149                           	FNCALL	_sendPackage,_SendUartByte
   150                           	FNCALL	_KeyScan,_PutKey
   151                           	FNCALL	_DecToStr,_TotDigits
   152                           	FNCALL	_DecToStr,___llmod
   153                           	FNCALL	_DecToStr,___lldiv
   154                           	FNCALL	_UploadLcdBuffer,_SendByte
   155                           	FNCALL	_LcdClear,_memset1
   156                           	FNCALL	_LcdClear,_SendByte
   157                           	FNCALL	_TotDigits,___lldiv
   158                           	FNCALL	_reserveEElocation,_ee_write
   159                           	FNCALL	_reserveEElocation,_ee_read
   160                           	FNCALL	_FillUpResponse,_memset1
   161                           	FNCALL	_FillUpResponse,_IsUartBytePending
   162                           	FNCALL	_FillUpResponse,_GetUartByte
   163                           	FNCALL	_FillUpResponse,_ToggleEndianFormat
   164                           	FNCALL	_SendUartValue,_SendUartByte
   165                           	FNCALL	_PutKey,_LcdDelay
   166                           	FNCALL	_releaseEElocation,_ee_write
   167                           	FNCALL	_releaseEElocation,_ee_read
   168                           	FNCALL	_getNextAvailLocation,_ee_read
   169                           	FNCALL	_ee_eraseNPos,_ee_write
   170                           	FNCALL	_Delay,___lmul
   171                           	FNCALL	_SendByte,_LcdDelay
   172                           	FNROOT	_main
   173                           	FNCALL	_isr,_PutUartByte
   174                           	FNCALL	intlevel1,_isr
   175                           	global	intlevel1
   176                           	FNROOT	intlevel1
   177                           	global	HiSpeedScan@F1325
   178                           	global	DeleteUser@F1292
   179                           	global	VerifyPswd@F1294
   180                           	global	HiSpeedScan@F1322
   181                           	global	AddUserC@F1349
   182                           	global	DeleteUser@F1289
   183                           	global	_DefModuleAddress
   184                           	global	LoadFingerTemplate@F1312
   185                           	global	_PackageHeader
   186                           	global	AddUserA@F1335
   187                           	global	AddUserA@F1338
   188                           	global	AddUserB@F1340
   189                           	global	AddUserB@F1343
   190                           	global	AddUserC@F1346
   191                           	global	EraseAllUsers@F1330
   192                           	global	GenCharacterFileFromImage@F1303
   193                           	global	GenCharacterFileFromImage@F1305
   194                           	global	LoadFingerTemplate@F1309
   195                           	global	MatchTemplate@F1314
   196                           	global	ScanForImage@F1300
   197                           psect	idataBANK3,class=CODE,space=0,delta=2
   198                           global __pidataBANK3
   199  1F93                     __pidataBANK3:
   200                           	file	"C:\Users\GauravLT\Desktop\Finger Print Sensor\R307\PIC16F877A_R307\FingerPrintSen
                                 sor_R307.c"
   201                           	line	343
   202                           
   203                           ;initializer for HiSpeedScan@F1325
   204  1F93  3401               	retlw	01h
   205  1F94  3400               	retlw	0
   206  1F95  3400               	retlw	0
   207  1F96  3403               	retlw	03h
   208  1F97  34E9               	retlw	0E9h
   209                           psect	idataCOMMON,class=CODE,space=0,delta=2
   210                           global __pidataCOMMON
   211  04FD                     __pidataCOMMON:
   212                           	line	215
   213                           
   214                           ;initializer for DeleteUser@F1292
   215  04FD  34FF               	retlw	0FFh
   216                           	line	229
   217                           
   218                           ;initializer for VerifyPswd@F1294
   219  04FE  34FF               	retlw	0FFh
   220                           psect	idataBANK1,class=CODE,space=0,delta=2
   221                           global __pidataBANK1
   222  10AF                     __pidataBANK1:
   223                           	line	341
   224                           
   225                           ;initializer for HiSpeedScan@F1322
   226  10AF  34FF               	retlw	0FFh
   227  10B0  34FF               	retlw	0FFh
   228  10B1  34FF               	retlw	0FFh
   229  10B2  34FF               	retlw	0FFh
   230  10B3  3400               	retlw	0
   231                           	line	438
   232                           
   233                           ;initializer for AddUserC@F1349
   234  10B4  3402               	retlw	02h
   235  10B5  3400               	retlw	0
   236  10B6  3400               	retlw	0
   237  10B7  3400               	retlw	0
   238                           	line	213
   239                           
   240                           ;initializer for DeleteUser@F1289
   241  10B8  3400               	retlw	0
   242  10B9  3400               	retlw	0
   243  10BA  3400               	retlw	0
   244  10BB  3401               	retlw	01h
   245                           	line	11
   246                           
   247                           ;initializer for _DefModuleAddress
   248  10BC  34FF               	retlw	0FFh
   249  10BD  34FF               	retlw	0FFh
   250  10BE  34FF               	retlw	0FFh
   251  10BF  34FF               	retlw	0FFh
   252                           
   253                           	line	272
   254                           
   255                           ;initializer for LoadFingerTemplate@F1312
   256  10C0  3402               	retlw	02h
   257  10C1  3400               	retlw	0
   258  10C2  3400               	retlw	0
   259                           	line	10
   260                           
   261                           ;initializer for _PackageHeader
   262  10C3  3401               	retlw	01h
   263  10C4  34EF               	retlw	0EFh
   264                           
   265                           	line	408
   266                           
   267                           ;initializer for AddUserA@F1335
   268  10C5  34FF               	retlw	0FFh
   269                           	line	410
   270                           
   271                           ;initializer for AddUserA@F1338
   272  10C6  3402               	retlw	02h
   273                           	line	422
   274                           
   275                           ;initializer for AddUserB@F1340
   276  10C7  34FF               	retlw	0FFh
   277                           	line	424
   278                           
   279                           ;initializer for AddUserB@F1343
   280  10C8  3405               	retlw	05h
   281                           	line	436
   282                           
   283                           ;initializer for AddUserC@F1346
   284  10C9  34FF               	retlw	0FFh
   285                           	line	365
   286                           
   287                           ;initializer for EraseAllUsers@F1330
   288  10CA  34FF               	retlw	0FFh
   289                           	line	256
   290                           
   291                           ;initializer for GenCharacterFileFromImage@F1303
   292  10CB  3401               	retlw	01h
   293                           	line	257
   294                           
   295                           ;initializer for GenCharacterFileFromImage@F1305
   296  10CC  34FF               	retlw	0FFh
   297                           	line	270
   298                           
   299                           ;initializer for LoadFingerTemplate@F1309
   300  10CD  34FF               	retlw	0FFh
   301                           	line	285
   302                           
   303                           ;initializer for MatchTemplate@F1314
   304  10CE  34FF               	retlw	0FFh
   305                           	line	243
   306                           
   307                           ;initializer for ScanForImage@F1300
   308  10CF  34FF               	retlw	0FFh
   309                           	global	_UartBuffer
   310                           	global	_KeypdBuffer
   311                           	global	_IxPtr
   312                           	global	_OxPtr
   313                           	global	_UartIxPtr
   314                           	global	_UartOxPtr
   315                           	global	__Package
   316                           	global	_buzzOffCounter
   317                           	global	EraseAllUsers@F1327
   318                           	global	MatchTemplate@F1317
   319                           	global	ScanForImage@F1298
   320                           	global	_LcdBuffer
   321                           	global	_DefModulePassword
   322                           	global	_PORTD
   323  0008                     _PORTD	set	8
   324                           	global	_RCREG
   325  001A                     _RCREG	set	26
   326                           	global	_RCSTA
   327  0018                     _RCSTA	set	24
   328                           	global	_TXREG
   329  0019                     _TXREG	set	25
   330                           	global	_CARRY
   331  0018                     _CARRY	set	24
   332                           	global	_GIE
   333  005F                     _GIE	set	95
   334                           	global	_PEIE
   335  005E                     _PEIE	set	94
   336                           	global	_RB1
   337  0031                     _RB1	set	49
   338                           	global	_RB2
   339  0032                     _RB2	set	50
   340                           	global	_RB3
   341  0033                     _RB3	set	51
   342                           	global	_RB5
   343  0035                     _RB5	set	53
   344                           	global	_RC0
   345  0038                     _RC0	set	56
   346                           	global	_RC1
   347  0039                     _RC1	set	57
   348                           	global	_RC2
   349  003A                     _RC2	set	58
   350                           	global	_RC3
   351  003B                     _RC3	set	59
   352                           	global	_RCIF
   353  0065                     _RCIF	set	101
   354                           	global	_RD6
   355  0046                     _RD6	set	70
   356                           	global	_TXIF
   357  0064                     _TXIF	set	100
   358                           	global	_SPBRG
   359  0099                     _SPBRG	set	153
   360                           	global	_TRISB
   361  0086                     _TRISB	set	134
   362                           	global	_TRISC
   363  0087                     _TRISC	set	135
   364                           	global	_TRISD
   365  0088                     _TRISD	set	136
   366                           	global	_TXSTA
   367  0098                     _TXSTA	set	152
   368                           	global	_RCIE
   369  0465                     _RCIE	set	1125
   370                           	global	_EEADR
   371  010D                     _EEADR	set	269
   372                           	global	_EEDATA
   373  010C                     _EEDATA	set	268
   374                           	global	_EECON1
   375  018C                     _EECON1	set	396
   376                           	global	_EECON2
   377  018D                     _EECON2	set	397
   378                           	global	_EEPGD
   379  0C67                     _EEPGD	set	3175
   380                           	global	_RD
   381  0C60                     _RD	set	3168
   382                           	global	_WR
   383  0C61                     _WR	set	3169
   384                           	global	_WREN
   385  0C62                     _WREN	set	3170
   386                           	global	_WRERR
   387  0C63                     _WRERR	set	3171
   388                           psect	strings,class=STRING,delta=2
   389                           global __pstrings
   390  1800                     __pstrings:
   391                           ;	global	stringtab,__stringbase
   392  1800                     stringtab:
   393                           ;	String table - string pointers are 2 bytes each
   394  1800  1BFF               	btfsc	(btemp+1),7
   395  1801  280A               	ljmp	stringcode
   396  1802  1383               	bcf	status,7
   397  1803  187F               	btfsc	(btemp+1),0
   398  1804  1783               	bsf	status,7
   399  1805  0800               	movf	indf,w
   400  1806  0A84               	incf fsr
   401  1807  1903               skipnz
   402  1808  0AFF               incf btemp+1
   403  1809  0008               	return
   404  180A                     stringcode:
   405  180A  087F               	movf btemp+1,w
   406  180B  397F               andlw 7Fh
   407  180C  008A               movwf	pclath
   408  180D  0804               	movf	fsr,w
   409  180E  0A84               incf fsr
   410  180F  1903               skipnz
   411  1810  0AFF               incf btemp+1
   412  1811  0082               	movwf pc
   413  1812                     __stringbase:
   414                           psect	stringtext,class=STRCODE,delta=2,reloc=256
   415                           global __pstringtext
   416  0500                     __pstringtext:
   417                           	
   418  0500                     STR_33:	
   419  0500  3431               	retlw	49	;'1'
   420  0501  3420               	retlw	32	;' '
   421  0502  3441               	retlw	65	;'A'
   422  0503  3464               	retlw	100	;'d'
   423  0504  3464               	retlw	100	;'d'
   424  0505  3420               	retlw	32	;' '
   425  0506  344E               	retlw	78	;'N'
   426  0507  3465               	retlw	101	;'e'
   427  0508  3477               	retlw	119	;'w'
   428  0509  3420               	retlw	32	;' '
   429  050A  3455               	retlw	85	;'U'
   430  050B  3473               	retlw	115	;'s'
   431  050C  3465               	retlw	101	;'e'
   432  050D  3472               	retlw	114	;'r'
   433  050E  340A               	retlw	10
   434  050F  3432               	retlw	50	;'2'
   435  0510  3420               	retlw	32	;' '
   436  0511  3444               	retlw	68	;'D'
   437  0512  3465               	retlw	101	;'e'
   438  0513  346C               	retlw	108	;'l'
   439  0514  3465               	retlw	101	;'e'
   440  0515  3474               	retlw	116	;'t'
   441  0516  3465               	retlw	101	;'e'
   442  0517  3420               	retlw	32	;' '
   443  0518  344F               	retlw	79	;'O'
   444  0519  346C               	retlw	108	;'l'
   445  051A  3464               	retlw	100	;'d'
   446  051B  3420               	retlw	32	;' '
   447  051C  3455               	retlw	85	;'U'
   448  051D  3473               	retlw	115	;'s'
   449  051E  3465               	retlw	101	;'e'
   450  051F  3472               	retlw	114	;'r'
   451  0520  3400               	retlw	0
   452                           psect	stringtext
   453                           	
   454  0521                     STR_32:	
   455  0521  3431               	retlw	49	;'1'
   456  0522  3420               	retlw	32	;' '
   457  0523  3443               	retlw	67	;'C'
   458  0524  3468               	retlw	104	;'h'
   459  0525  3461               	retlw	97	;'a'
   460  0526  346E               	retlw	110	;'n'
   461  0527  3467               	retlw	103	;'g'
   462  0528  3465               	retlw	101	;'e'
   463  0529  3420               	retlw	32	;' '
   464  052A  3441               	retlw	65	;'A'
   465  052B  3464               	retlw	100	;'d'
   466  052C  346D               	retlw	109	;'m'
   467  052D  3469               	retlw	105	;'i'
   468  052E  346E               	retlw	110	;'n'
   469  052F  340A               	retlw	10
   470  0530  3432               	retlw	50	;'2'
   471  0531  3420               	retlw	32	;' '
   472  0532  3441               	retlw	65	;'A'
   473  0533  3464               	retlw	100	;'d'
   474  0534  3464               	retlw	100	;'d'
   475  0535  342F               	retlw	47	;'/'
   476  0536  3444               	retlw	68	;'D'
   477  0537  3465               	retlw	101	;'e'
   478  0538  346C               	retlw	108	;'l'
   479  0539  3420               	retlw	32	;' '
   480  053A  3455               	retlw	85	;'U'
   481  053B  3473               	retlw	115	;'s'
   482  053C  3465               	retlw	101	;'e'
   483  053D  3472               	retlw	114	;'r'
   484  053E  3400               	retlw	0
   485                           psect	stringtext
   486                           	
   487  053F                     STR_31:	
   488  053F  3431               	retlw	49	;'1'
   489  0540  3420               	retlw	32	;' '
   490  0541  3446               	retlw	70	;'F'
   491  0542  346F               	retlw	111	;'o'
   492  0543  3472               	retlw	114	;'r'
   493  0544  3420               	retlw	32	;' '
   494  0545  3441               	retlw	65	;'A'
   495  0546  3463               	retlw	99	;'c'
   496  0547  3463               	retlw	99	;'c'
   497  0548  3465               	retlw	101	;'e'
   498  0549  3473               	retlw	115	;'s'
   499  054A  3473               	retlw	115	;'s'
   500  054B  340A               	retlw	10
   501  054C  3432               	retlw	50	;'2'
   502  054D  3420               	retlw	32	;' '
   503  054E  3446               	retlw	70	;'F'
   504  054F  346F               	retlw	111	;'o'
   505  0550  3472               	retlw	114	;'r'
   506  0551  3420               	retlw	32	;' '
   507  0552  3441               	retlw	65	;'A'
   508  0553  346C               	retlw	108	;'l'
   509  0554  3474               	retlw	116	;'t'
   510  0555  3465               	retlw	101	;'e'
   511  0556  3472               	retlw	114	;'r'
   512  0557  3420               	retlw	32	;' '
   513  0558  3455               	retlw	85	;'U'
   514  0559  3473               	retlw	115	;'s'
   515  055A  3465               	retlw	101	;'e'
   516  055B  3472               	retlw	114	;'r'
   517  055C  3400               	retlw	0
   518                           psect	stringtext
   519                           	
   520  055D                     STR_34:	
   521  055D  3431               	retlw	49	;'1'
   522  055E  3420               	retlw	32	;' '
   523  055F  3444               	retlw	68	;'D'
   524  0560  3465               	retlw	101	;'e'
   525  0561  346C               	retlw	108	;'l'
   526  0562  3465               	retlw	101	;'e'
   527  0563  3474               	retlw	116	;'t'
   528  0564  3465               	retlw	101	;'e'
   529  0565  3420               	retlw	32	;' '
   530  0566  3441               	retlw	65	;'A'
   531  0567  346C               	retlw	108	;'l'
   532  0568  346C               	retlw	108	;'l'
   533  0569  340A               	retlw	10
   534  056A  3432               	retlw	50	;'2'
   535  056B  3420               	retlw	32	;' '
   536  056C  3444               	retlw	68	;'D'
   537  056D  3465               	retlw	101	;'e'
   538  056E  346C               	retlw	108	;'l'
   539  056F  3465               	retlw	101	;'e'
   540  0570  3474               	retlw	116	;'t'
   541  0571  3465               	retlw	101	;'e'
   542  0572  3420               	retlw	32	;' '
   543  0573  3453               	retlw	83	;'S'
   544  0574  3469               	retlw	105	;'i'
   545  0575  346E               	retlw	110	;'n'
   546  0576  3467               	retlw	103	;'g'
   547  0577  346C               	retlw	108	;'l'
   548  0578  3465               	retlw	101	;'e'
   549  0579  3400               	retlw	0
   550                           psect	stringtext
   551                           	
   552  057A                     STR_1:	
   553  057A  3441               	retlw	65	;'A'
   554  057B  3464               	retlw	100	;'d'
   555  057C  346D               	retlw	109	;'m'
   556  057D  3469               	retlw	105	;'i'
   557  057E  346E               	retlw	110	;'n'
   558  057F  3420               	retlw	32	;' '
   559  0580  3452               	retlw	82	;'R'
   560  0581  3465               	retlw	101	;'e'
   561  0582  3471               	retlw	113	;'q'
   562  0583  3475               	retlw	117	;'u'
   563  0584  3469               	retlw	105	;'i'
   564  0585  3472               	retlw	114	;'r'
   565  0586  3465               	retlw	101	;'e'
   566  0587  3464               	retlw	100	;'d'
   567  0588  340A               	retlw	10
   568  0589  3450               	retlw	80	;'P'
   569  058A  346C               	retlw	108	;'l'
   570  058B  3461               	retlw	97	;'a'
   571  058C  3463               	retlw	99	;'c'
   572  058D  3465               	retlw	101	;'e'
   573  058E  3420               	retlw	32	;' '
   574  058F  3446               	retlw	70	;'F'
   575  0590  3469               	retlw	105	;'i'
   576  0591  346E               	retlw	110	;'n'
   577  0592  3467               	retlw	103	;'g'
   578  0593  3465               	retlw	101	;'e'
   579  0594  3472               	retlw	114	;'r'
   580  0595  3400               	retlw	0
   581                           psect	stringtext
   582                           	
   583  0596                     STR_16:	
   584  0596  3445               	retlw	69	;'E'
   585  0597  3472               	retlw	114	;'r'
   586  0598  3472               	retlw	114	;'r'
   587  0599  346F               	retlw	111	;'o'
   588  059A  3472               	retlw	114	;'r'
   589  059B  3420               	retlw	32	;' '
   590  059C  3449               	retlw	73	;'I'
   591  059D  346E               	retlw	110	;'n'
   592  059E  340A               	retlw	10
   593  059F  3420               	retlw	32	;' '
   594  05A0  3420               	retlw	32	;' '
   595  05A1  3452               	retlw	82	;'R'
   596  05A2  3465               	retlw	101	;'e'
   597  05A3  3467               	retlw	103	;'g'
   598  05A4  3469               	retlw	105	;'i'
   599  05A5  3473               	retlw	115	;'s'
   600  05A6  3474               	retlw	116	;'t'
   601  05A7  3465               	retlw	101	;'e'
   602  05A8  3472               	retlw	114	;'r'
   603  05A9  3461               	retlw	97	;'a'
   604  05AA  3474               	retlw	116	;'t'
   605  05AB  3469               	retlw	105	;'i'
   606  05AC  346F               	retlw	111	;'o'
   607  05AD  346E               	retlw	110	;'n'
   608  05AE  3400               	retlw	0
   609                           psect	stringtext
   610                           	
   611  05AF                     STR_13:	
   612  05AF  3450               	retlw	80	;'P'
   613  05B0  346C               	retlw	108	;'l'
   614  05B1  347A               	retlw	122	;'z'
   615  05B2  3420               	retlw	32	;' '
   616  05B3  3452               	retlw	82	;'R'
   617  05B4  3465               	retlw	101	;'e'
   618  05B5  3467               	retlw	103	;'g'
   619  05B6  3469               	retlw	105	;'i'
   620  05B7  3473               	retlw	115	;'s'
   621  05B8  3474               	retlw	116	;'t'
   622  05B9  3465               	retlw	101	;'e'
   623  05BA  3472               	retlw	114	;'r'
   624  05BB  340A               	retlw	10
   625  05BC  3420               	retlw	32	;' '
   626  05BD  346E               	retlw	110	;'n'
   627  05BE  3465               	retlw	101	;'e'
   628  05BF  3477               	retlw	119	;'w'
   629  05C0  3420               	retlw	32	;' '
   630  05C1  3441               	retlw	65	;'A'
   631  05C2  3464               	retlw	100	;'d'
   632  05C3  346D               	retlw	109	;'m'
   633  05C4  3469               	retlw	105	;'i'
   634  05C5  346E               	retlw	110	;'n'
   635  05C6  3400               	retlw	0
   636                           psect	stringtext
   637                           	
   638  05C7                     STR_23:	
   639  05C7  3445               	retlw	69	;'E'
   640  05C8  3472               	retlw	114	;'r'
   641  05C9  3472               	retlw	114	;'r'
   642  05CA  346F               	retlw	111	;'o'
   643  05CB  3472               	retlw	114	;'r'
   644  05CC  3420               	retlw	32	;' '
   645  05CD  3449               	retlw	73	;'I'
   646  05CE  346E               	retlw	110	;'n'
   647  05CF  340A               	retlw	10
   648  05D0  3420               	retlw	32	;' '
   649  05D1  3455               	retlw	85	;'U'
   650  05D2  3473               	retlw	115	;'s'
   651  05D3  3465               	retlw	101	;'e'
   652  05D4  3472               	retlw	114	;'r'
   653  05D5  3420               	retlw	32	;' '
   654  05D6  3443               	retlw	67	;'C'
   655  05D7  3472               	retlw	114	;'r'
   656  05D8  3465               	retlw	101	;'e'
   657  05D9  3461               	retlw	97	;'a'
   658  05DA  3474               	retlw	116	;'t'
   659  05DB  3469               	retlw	105	;'i'
   660  05DC  346F               	retlw	111	;'o'
   661  05DD  346E               	retlw	110	;'n'
   662  05DE  3400               	retlw	0
   663                           psect	stringtext
   664                           	
   665  05DF                     STR_27:	
   666  05DF  3455               	retlw	85	;'U'
   667  05E0  3473               	retlw	115	;'s'
   668  05E1  3465               	retlw	101	;'e'
   669  05E2  3472               	retlw	114	;'r'
   670  05E3  3420               	retlw	32	;' '
   671  05E4  3444               	retlw	68	;'D'
   672  05E5  3465               	retlw	101	;'e'
   673  05E6  346C               	retlw	108	;'l'
   674  05E7  3465               	retlw	101	;'e'
   675  05E8  3474               	retlw	116	;'t'
   676  05E9  3465               	retlw	101	;'e'
   677  05EA  3464               	retlw	100	;'d'
   678  05EB  340A               	retlw	10
   679  05EC  3455               	retlw	85	;'U'
   680  05ED  3473               	retlw	115	;'s'
   681  05EE  3465               	retlw	101	;'e'
   682  05EF  3472               	retlw	114	;'r'
   683  05F0  3420               	retlw	32	;' '
   684  05F1  344E               	retlw	78	;'N'
   685  05F2  346F               	retlw	111	;'o'
   686  05F3  343A               	retlw	58	;':'
   687  05F4  3400               	retlw	0
   688                           psect	stringtext
   689                           	
   690  05F5                     STR_21:	
   691  05F5  344E               	retlw	78	;'N'
   692  05F6  3465               	retlw	101	;'e'
   693  05F7  3477               	retlw	119	;'w'
   694  05F8  3420               	retlw	32	;' '
   695  05F9  3455               	retlw	85	;'U'
   696  05FA  3473               	retlw	115	;'s'
   697  05FB  3465               	retlw	101	;'e'
   698  05FC  3472               	retlw	114	;'r'
   699  05FD  340A               	retlw	10
   700  05FE  3450               	retlw	80	;'P'
   701  05FF  346C               	retlw	108	;'l'
   702  0600  3461               	retlw	97	;'a'
   703  0601  3463               	retlw	99	;'c'
   704  0602  3465               	retlw	101	;'e'
   705  0603  3420               	retlw	32	;' '
   706  0604  3446               	retlw	70	;'F'
   707  0605  3469               	retlw	105	;'i'
   708  0606  346E               	retlw	110	;'n'
   709  0607  3467               	retlw	103	;'g'
   710  0608  3465               	retlw	101	;'e'
   711  0609  3472               	retlw	114	;'r'
   712  060A  3400               	retlw	0
   713                           psect	stringtext
   714                           	
   715  060B                     STR_22:	
   716  060B  344E               	retlw	78	;'N'
   717  060C  3465               	retlw	101	;'e'
   718  060D  3477               	retlw	119	;'w'
   719  060E  3420               	retlw	32	;' '
   720  060F  3455               	retlw	85	;'U'
   721  0610  3473               	retlw	115	;'s'
   722  0611  3465               	retlw	101	;'e'
   723  0612  3472               	retlw	114	;'r'
   724  0613  340A               	retlw	10
   725  0614  3420               	retlw	32	;' '
   726  0615  3443               	retlw	67	;'C'
   727  0616  3472               	retlw	114	;'r'
   728  0617  3465               	retlw	101	;'e'
   729  0618  3461               	retlw	97	;'a'
   730  0619  3474               	retlw	116	;'t'
   731  061A  3465               	retlw	101	;'e'
   732  061B  3464               	retlw	100	;'d'
   733  061C  3420               	retlw	32	;' '
   734  061D  3440               	retlw	64	;'@'
   735  061E  343A               	retlw	58	;':'
   736  061F  3400               	retlw	0
   737                           psect	stringtext
   738                           	
   739  0620                     STR_6:	
   740  0620  3455               	retlw	85	;'U'
   741  0621  3473               	retlw	115	;'s'
   742  0622  3465               	retlw	101	;'e'
   743  0623  3472               	retlw	114	;'r'
   744  0624  3420               	retlw	32	;' '
   745  0625  3456               	retlw	86	;'V'
   746  0626  3461               	retlw	97	;'a'
   747  0627  346C               	retlw	108	;'l'
   748  0628  3469               	retlw	105	;'i'
   749  0629  3464               	retlw	100	;'d'
   750  062A  340A               	retlw	10
   751  062B  3455               	retlw	85	;'U'
   752  062C  3473               	retlw	115	;'s'
   753  062D  3465               	retlw	101	;'e'
   754  062E  3472               	retlw	114	;'r'
   755  062F  3420               	retlw	32	;' '
   756  0630  344E               	retlw	78	;'N'
   757  0631  346F               	retlw	111	;'o'
   758  0632  343A               	retlw	58	;':'
   759  0633  3400               	retlw	0
   760                           psect	stringtext
   761                           	
   762  0634                     STR_15:	
   763  0634  3441               	retlw	65	;'A'
   764  0635  3464               	retlw	100	;'d'
   765  0636  346D               	retlw	109	;'m'
   766  0637  3469               	retlw	105	;'i'
   767  0638  346E               	retlw	110	;'n'
   768  0639  3420               	retlw	32	;' '
   769  063A  340A               	retlw	10
   770  063B  3420               	retlw	32	;' '
   771  063C  3420               	retlw	32	;' '
   772  063D  3452               	retlw	82	;'R'
   773  063E  3465               	retlw	101	;'e'
   774  063F  3467               	retlw	103	;'g'
   775  0640  3469               	retlw	105	;'i'
   776  0641  3473               	retlw	115	;'s'
   777  0642  3474               	retlw	116	;'t'
   778  0643  3465               	retlw	101	;'e'
   779  0644  3472               	retlw	114	;'r'
   780  0645  3465               	retlw	101	;'e'
   781  0646  3464               	retlw	100	;'d'
   782  0647  3400               	retlw	0
   783                           psect	stringtext
   784                           	
   785  0648                     STR_11:	
   786  0648  3443               	retlw	67	;'C'
   787  0649  3461               	retlw	97	;'a'
   788  064A  346E               	retlw	110	;'n'
   789  064B  3427               	retlw	39	;'''
   790  064C  3474               	retlw	116	;'t'
   791  064D  3420               	retlw	32	;' '
   792  064E  3444               	retlw	68	;'D'
   793  064F  3465               	retlw	101	;'e'
   794  0650  346C               	retlw	108	;'l'
   795  0651  3465               	retlw	101	;'e'
   796  0652  3474               	retlw	116	;'t'
   797  0653  3465               	retlw	101	;'e'
   798  0654  340A               	retlw	10
   799  0655  3420               	retlw	32	;' '
   800  0656  3441               	retlw	65	;'A'
   801  0657  3464               	retlw	100	;'d'
   802  0658  346D               	retlw	109	;'m'
   803  0659  3469               	retlw	105	;'i'
   804  065A  346E               	retlw	110	;'n'
   805  065B  3400               	retlw	0
   806                           psect	stringtext
   807                           	
   808  065C                     STR_4:	
   809  065C  3441               	retlw	65	;'A'
   810  065D  346C               	retlw	108	;'l'
   811  065E  346C               	retlw	108	;'l'
   812  065F  3420               	retlw	32	;' '
   813  0660  3455               	retlw	85	;'U'
   814  0661  3473               	retlw	115	;'s'
   815  0662  3465               	retlw	101	;'e'
   816  0663  3472               	retlw	114	;'r'
   817  0664  3473               	retlw	115	;'s'
   818  0665  340A               	retlw	10
   819  0666  3420               	retlw	32	;' '
   820  0667  3444               	retlw	68	;'D'
   821  0668  3465               	retlw	101	;'e'
   822  0669  346C               	retlw	108	;'l'
   823  066A  3465               	retlw	101	;'e'
   824  066B  3474               	retlw	116	;'t'
   825  066C  3465               	retlw	101	;'e'
   826  066D  3464               	retlw	100	;'d'
   827  066E  3400               	retlw	0
   828                           psect	stringtext
   829                           	
   830  066F                     STR_20:	
   831  066F  344E               	retlw	78	;'N'
   832  0670  346F               	retlw	111	;'o'
   833  0671  3474               	retlw	116	;'t'
   834  0672  3420               	retlw	32	;' '
   835  0673  3445               	retlw	69	;'E'
   836  0674  346E               	retlw	110	;'n'
   837  0675  346F               	retlw	111	;'o'
   838  0676  3475               	retlw	117	;'u'
   839  0677  3467               	retlw	103	;'g'
   840  0678  3468               	retlw	104	;'h'
   841  0679  340A               	retlw	10
   842  067A  3420               	retlw	32	;' '
   843  067B  344D               	retlw	77	;'M'
   844  067C  3465               	retlw	101	;'e'
   845  067D  346D               	retlw	109	;'m'
   846  067E  346F               	retlw	111	;'o'
   847  067F  3472               	retlw	114	;'r'
   848  0680  3479               	retlw	121	;'y'
   849  0681  3400               	retlw	0
   850                           psect	stringtext
   851                           	
   852  0682                     STR_3:	
   853  0682  3441               	retlw	65	;'A'
   854  0683  3464               	retlw	100	;'d'
   855  0684  346D               	retlw	109	;'m'
   856  0685  3469               	retlw	105	;'i'
   857  0686  346E               	retlw	110	;'n'
   858  0687  3420               	retlw	32	;' '
   859  0688  344E               	retlw	78	;'N'
   860  0689  346F               	retlw	111	;'o'
   861  068A  3474               	retlw	116	;'t'
   862  068B  340A               	retlw	10
   863  068C  3420               	retlw	32	;' '
   864  068D  3420               	retlw	32	;' '
   865  068E  3466               	retlw	102	;'f'
   866  068F  346F               	retlw	111	;'o'
   867  0690  3475               	retlw	117	;'u'
   868  0691  346E               	retlw	110	;'n'
   869  0692  3464               	retlw	100	;'d'
   870  0693  3400               	retlw	0
   871                           psect	stringtext
   872                           	
   873  0694                     STR_10:	
   874  0694  3441               	retlw	65	;'A'
   875  0695  3464               	retlw	100	;'d'
   876  0696  346D               	retlw	109	;'m'
   877  0697  3469               	retlw	105	;'i'
   878  0698  346E               	retlw	110	;'n'
   879  0699  3420               	retlw	32	;' '
   880  069A  3444               	retlw	68	;'D'
   881  069B  3465               	retlw	101	;'e'
   882  069C  346C               	retlw	108	;'l'
   883  069D  3465               	retlw	101	;'e'
   884  069E  3474               	retlw	116	;'t'
   885  069F  3465               	retlw	101	;'e'
   886  06A0  3464               	retlw	100	;'d'
   887  06A1  3400               	retlw	0
   888                           psect	stringtext
   889                           	
   890  06A2                     STR_28:	
   891  06A2  3443               	retlw	67	;'C'
   892  06A3  3461               	retlw	97	;'a'
   893  06A4  346E               	retlw	110	;'n'
   894  06A5  346E               	retlw	110	;'n'
   895  06A6  346F               	retlw	111	;'o'
   896  06A7  3474               	retlw	116	;'t'
   897  06A8  3420               	retlw	32	;' '
   898  06A9  3444               	retlw	68	;'D'
   899  06AA  3465               	retlw	101	;'e'
   900  06AB  346C               	retlw	108	;'l'
   901  06AC  3465               	retlw	101	;'e'
   902  06AD  3474               	retlw	116	;'t'
   903  06AE  3465               	retlw	101	;'e'
   904  06AF  3400               	retlw	0
   905                           psect	stringtext
   906                           	
   907  06B0                     STR_7:	
   908  06B0  3449               	retlw	73	;'I'
   909  06B1  346E               	retlw	110	;'n'
   910  06B2  3476               	retlw	118	;'v'
   911  06B3  3461               	retlw	97	;'a'
   912  06B4  346C               	retlw	108	;'l'
   913  06B5  3469               	retlw	105	;'i'
   914  06B6  3464               	retlw	100	;'d'
   915  06B7  3420               	retlw	32	;' '
   916  06B8  3455               	retlw	85	;'U'
   917  06B9  3473               	retlw	115	;'s'
   918  06BA  3465               	retlw	101	;'e'
   919  06BB  3472               	retlw	114	;'r'
   920  06BC  3400               	retlw	0
   921                           psect	stringtext
   922                           	
   923  06BD                     STR_2:	
   924  06BD  3441               	retlw	65	;'A'
   925  06BE  3464               	retlw	100	;'d'
   926  06BF  346D               	retlw	109	;'m'
   927  06C0  3469               	retlw	105	;'i'
   928  06C1  346E               	retlw	110	;'n'
   929  06C2  3420               	retlw	32	;' '
   930  06C3  3466               	retlw	102	;'f'
   931  06C4  346F               	retlw	111	;'o'
   932  06C5  3475               	retlw	117	;'u'
   933  06C6  346E               	retlw	110	;'n'
   934  06C7  3464               	retlw	100	;'d'
   935  06C8  3400               	retlw	0
   936                           psect	stringtext
   937                           	
   938  06C9                     STR_26:	
   939  06C9  3453               	retlw	83	;'S'
   940  06CA  3465               	retlw	101	;'e'
   941  06CB  346C               	retlw	108	;'l'
   942  06CC  3465               	retlw	101	;'e'
   943  06CD  3463               	retlw	99	;'c'
   944  06CE  3474               	retlw	116	;'t'
   945  06CF  3420               	retlw	32	;' '
   946  06D0  3455               	retlw	85	;'U'
   947  06D1  3473               	retlw	115	;'s'
   948  06D2  3465               	retlw	101	;'e'
   949  06D3  3472               	retlw	114	;'r'
   950  06D4  3400               	retlw	0
   951                           psect	stringtext
   952                           	
   953  06D5                     STR_30:	
   954  06D5  3457               	retlw	87	;'W'
   955  06D6  3465               	retlw	101	;'e'
   956  06D7  346C               	retlw	108	;'l'
   957  06D8  3463               	retlw	99	;'c'
   958  06D9  346F               	retlw	111	;'o'
   959  06DA  346D               	retlw	109	;'m'
   960  06DB  3465               	retlw	101	;'e'
   961  06DC  3400               	retlw	0
   962                           psect	stringtext
   963  057A                     STR_8	equ	STR_1+0
   964  057A                     STR_17	equ	STR_1+0
   965  057A                     STR_24	equ	STR_1+0
   966  0589                     STR_5	equ	STR_1+15
   967  0589                     STR_14	equ	STR_1+15
   968  06BD                     STR_9	equ	STR_2+0
   969  06BD                     STR_18	equ	STR_2+0
   970  06BD                     STR_25	equ	STR_2+0
   971  0682                     STR_12	equ	STR_3+0
   972  0682                     STR_19	equ	STR_3+0
   973  0682                     STR_29	equ	STR_3+0
   974                           	file	"proj.as"
   975                           	line	#
   976                           psect cinit,class=CODE,delta=2
   977                           global start_initialization
   978  1322                     start_initialization:
   979                           
   980                           psect	bssCOMMON,class=COMMON,space=1
   981                           global __pbssCOMMON
   982  0076                     __pbssCOMMON:
   983  0076                     _IxPtr:
   984  0076                            ds      1
   985                           
   986  0077                     _OxPtr:
   987  0077                            ds      1
   988                           
   989  0078                     _UartIxPtr:
   990  0078                            ds      1
   991                           
   992  0079                     _UartOxPtr:
   993  0079                            ds      1
   994                           
   995                           psect	dataCOMMON,class=COMMON,space=1
   996                           global __pdataCOMMON
   997  007A                     __pdataCOMMON:
   998                           	file	"C:\Users\GauravLT\Desktop\Finger Print Sensor\R307\PIC16F877A_R307\FingerPrintSen
                                 sor_R307.c"
   999                           	line	215
  1000  007A                     DeleteUser@F1292:
  1001  007A                            ds      1
  1002                           
  1003                           psect	dataCOMMON
  1004                           	file	"C:\Users\GauravLT\Desktop\Finger Print Sensor\R307\PIC16F877A_R307\FingerPrintSen
                                 sor_R307.c"
  1005                           	line	229
  1006  007B                     VerifyPswd@F1294:
  1007  007B                            ds      1
  1008                           
  1009                           psect	bssBANK1,class=BANK1,space=1
  1010                           global __pbssBANK1
  1011  00C1                     __pbssBANK1:
  1012  00C1                     __Package:
  1013  00C1                            ds      13
  1014                           
  1015  00CE                     _buzzOffCounter:
  1016  00CE                            ds      2
  1017                           
  1018  00D0                     EraseAllUsers@F1327:
  1019  00D0                            ds      1
  1020                           
  1021  00D1                     MatchTemplate@F1317:
  1022  00D1                            ds      1
  1023                           
  1024  00D2                     ScanForImage@F1298:
  1025  00D2                            ds      1
  1026                           
  1027  00D3                     _DefModulePassword:
  1028  00D3                            ds      4
  1029                           
  1030                           psect	dataBANK1,class=BANK1,space=1
  1031                           global __pdataBANK1
  1032  00A0                     __pdataBANK1:
  1033                           	file	"C:\Users\GauravLT\Desktop\Finger Print Sensor\R307\PIC16F877A_R307\FingerPrintSen
                                 sor_R307.c"
  1034                           	line	341
  1035  00A0                     HiSpeedScan@F1322:
  1036  00A0                            ds      5
  1037                           
  1038                           psect	dataBANK1
  1039                           	file	"C:\Users\GauravLT\Desktop\Finger Print Sensor\R307\PIC16F877A_R307\FingerPrintSen
                                 sor_R307.c"
  1040                           	line	438
  1041  00A5                     AddUserC@F1349:
  1042  00A5                            ds      4
  1043                           
  1044                           psect	dataBANK1
  1045                           	file	"C:\Users\GauravLT\Desktop\Finger Print Sensor\R307\PIC16F877A_R307\FingerPrintSen
                                 sor_R307.c"
  1046                           	line	213
  1047  00A9                     DeleteUser@F1289:
  1048  00A9                            ds      4
  1049                           
  1050                           psect	dataBANK1
  1051                           	file	"C:\Users\GauravLT\Desktop\Finger Print Sensor\R307\PIC16F877A_R307\FingerPrintSen
                                 sor_R307.c"
  1052                           	line	11
  1053  00AD                     _DefModuleAddress:
  1054  00AD                            ds      4
  1055                           
  1056                           psect	dataBANK1
  1057                           	file	"C:\Users\GauravLT\Desktop\Finger Print Sensor\R307\PIC16F877A_R307\FingerPrintSen
                                 sor_R307.c"
  1058                           	line	272
  1059  00B1                     LoadFingerTemplate@F1312:
  1060  00B1                            ds      3
  1061                           
  1062                           psect	dataBANK1
  1063                           	file	"C:\Users\GauravLT\Desktop\Finger Print Sensor\R307\PIC16F877A_R307\FingerPrintSen
                                 sor_R307.c"
  1064                           	line	10
  1065  00B4                     _PackageHeader:
  1066  00B4                            ds      2
  1067                           
  1068                           psect	dataBANK1
  1069                           	file	"C:\Users\GauravLT\Desktop\Finger Print Sensor\R307\PIC16F877A_R307\FingerPrintSen
                                 sor_R307.c"
  1070                           	line	408
  1071  00B6                     AddUserA@F1335:
  1072  00B6                            ds      1
  1073                           
  1074                           psect	dataBANK1
  1075                           	file	"C:\Users\GauravLT\Desktop\Finger Print Sensor\R307\PIC16F877A_R307\FingerPrintSen
                                 sor_R307.c"
  1076                           	line	410
  1077  00B7                     AddUserA@F1338:
  1078  00B7                            ds      1
  1079                           
  1080                           psect	dataBANK1
  1081                           	file	"C:\Users\GauravLT\Desktop\Finger Print Sensor\R307\PIC16F877A_R307\FingerPrintSen
                                 sor_R307.c"
  1082                           	line	422
  1083  00B8                     AddUserB@F1340:
  1084  00B8                            ds      1
  1085                           
  1086                           psect	dataBANK1
  1087                           	file	"C:\Users\GauravLT\Desktop\Finger Print Sensor\R307\PIC16F877A_R307\FingerPrintSen
                                 sor_R307.c"
  1088                           	line	424
  1089  00B9                     AddUserB@F1343:
  1090  00B9                            ds      1
  1091                           
  1092                           psect	dataBANK1
  1093                           	file	"C:\Users\GauravLT\Desktop\Finger Print Sensor\R307\PIC16F877A_R307\FingerPrintSen
                                 sor_R307.c"
  1094                           	line	436
  1095  00BA                     AddUserC@F1346:
  1096  00BA                            ds      1
  1097                           
  1098                           psect	dataBANK1
  1099                           	file	"C:\Users\GauravLT\Desktop\Finger Print Sensor\R307\PIC16F877A_R307\FingerPrintSen
                                 sor_R307.c"
  1100                           	line	365
  1101  00BB                     EraseAllUsers@F1330:
  1102  00BB                            ds      1
  1103                           
  1104                           psect	dataBANK1
  1105                           	file	"C:\Users\GauravLT\Desktop\Finger Print Sensor\R307\PIC16F877A_R307\FingerPrintSen
                                 sor_R307.c"
  1106                           	line	256
  1107  00BC                     GenCharacterFileFromImage@F1303:
  1108  00BC                            ds      1
  1109                           
  1110                           psect	dataBANK1
  1111                           	file	"C:\Users\GauravLT\Desktop\Finger Print Sensor\R307\PIC16F877A_R307\FingerPrintSen
                                 sor_R307.c"
  1112                           	line	257
  1113  00BD                     GenCharacterFileFromImage@F1305:
  1114  00BD                            ds      1
  1115                           
  1116                           psect	dataBANK1
  1117                           	file	"C:\Users\GauravLT\Desktop\Finger Print Sensor\R307\PIC16F877A_R307\FingerPrintSen
                                 sor_R307.c"
  1118                           	line	270
  1119  00BE                     LoadFingerTemplate@F1309:
  1120  00BE                            ds      1
  1121                           
  1122                           psect	dataBANK1
  1123                           	file	"C:\Users\GauravLT\Desktop\Finger Print Sensor\R307\PIC16F877A_R307\FingerPrintSen
                                 sor_R307.c"
  1124                           	line	285
  1125  00BF                     MatchTemplate@F1314:
  1126  00BF                            ds      1
  1127                           
  1128                           psect	dataBANK1
  1129                           	file	"C:\Users\GauravLT\Desktop\Finger Print Sensor\R307\PIC16F877A_R307\FingerPrintSen
                                 sor_R307.c"
  1130                           	line	243
  1131  00C0                     ScanForImage@F1300:
  1132  00C0                            ds      1
  1133                           
  1134                           psect	bssBANK3,class=BANK3,space=1
  1135                           global __pbssBANK3
  1136  0190                     __pbssBANK3:
  1137  0190                     _KeypdBuffer:
  1138  0190                            ds      20
  1139                           
  1140  01A4                     _LcdBuffer:
  1141  01A4                            ds      32
  1142                           
  1143                           psect	dataBANK3,class=BANK3,space=1
  1144                           global __pdataBANK3
  1145  01D8                     __pdataBANK3:
  1146                           	file	"C:\Users\GauravLT\Desktop\Finger Print Sensor\R307\PIC16F877A_R307\FingerPrintSen
                                 sor_R307.c"
  1147                           	line	343
  1148  01D8                     HiSpeedScan@F1325:
  1149  01D8                            ds      5
  1150                           
  1151                           psect	bssBANK2,class=BANK2,space=1
  1152                           global __pbssBANK2
  1153  0110                     __pbssBANK2:
  1154  0110                     _UartBuffer:
  1155  0110                            ds      96
  1156                           
  1157                           psect clrtext,class=CODE,delta=2
  1158                           global clear_ram
  1159                           ;	Called with FSR containing the base address, and
  1160                           ;	W with the last address+1
  1161  04F5                     clear_ram:
  1162  04F5  0064               	clrwdt			;clear the watchdog before getting into this loop
  1163  04F6                     clrloop:
  1164  04F6  0180               	clrf	indf		;clear RAM location pointed to by FSR
  1165  04F7  0A84               	incf	fsr,f		;increment pointer
  1166  04F8  0604               	xorwf	fsr,w		;XOR with final address
  1167  04F9  1903               	btfsc	status,2	;have we reached the end yet?
  1168  04FA  3400               	retlw	0		;all done for this memory range, return
  1169  04FB  0604               	xorwf	fsr,w		;XOR again to restore value
  1170  04FC  2CF6               	goto	clrloop		;do the next byte
  1171                           
  1172                           ; Clear objects allocated to COMMON
  1173                           psect cinit,class=CODE,delta=2
  1174  1322  01F6               	clrf	((__pbssCOMMON)+0)&07Fh
  1175  1323  01F7               	clrf	((__pbssCOMMON)+1)&07Fh
  1176  1324  01F8               	clrf	((__pbssCOMMON)+2)&07Fh
  1177  1325  01F9               	clrf	((__pbssCOMMON)+3)&07Fh
  1178                           ; Clear objects allocated to BANK1
  1179                           psect cinit,class=CODE,delta=2
  1180  1326  1383               	bcf	status, 7	;select IRP bank0
  1181  1327  30C1               	movlw	low(__pbssBANK1)
  1182  1328  0084               	movwf	fsr
  1183  1329  30D7               	movlw	low((__pbssBANK1)+016h)
  1184  132A  120A  118A  24F5   	fcall	clear_ram
              160A  118A         
  1185                           ; Clear objects allocated to BANK3
  1186                           psect cinit,class=CODE,delta=2
  1187  132F  1783               	bsf	status, 7	;select IRP bank2
  1188  1330  3090               	movlw	low(__pbssBANK3)
  1189  1331  0084               	movwf	fsr
  1190  1332  30C4               	movlw	low((__pbssBANK3)+034h)
  1191  1333  120A  118A  24F5   	fcall	clear_ram
              160A  118A         
  1192                           ; Clear objects allocated to BANK2
  1193                           psect cinit,class=CODE,delta=2
  1194  1338  3010               	movlw	low(__pbssBANK2)
  1195  1339  0084               	movwf	fsr
  1196  133A  3070               	movlw	low((__pbssBANK2)+060h)
  1197  133B  120A  118A  24F5   	fcall	clear_ram
              160A  118A         
  1198                           global btemp
  1199                           psect inittext,class=CODE,delta=2
  1200                           global init_fetch,btemp
  1201                           ;	Called with low address in FSR and high address in W
  1202  1FC3                     init_fetch:
  1203  1FC3  087E               	movf btemp,w
  1204  1FC4  008A               	movwf pclath
  1205  1FC5  087F               	movf btemp+1,w
  1206  1FC6  0082               	movwf pc
  1207                           global init_ram
  1208                           ;Called with:
  1209                           ;	high address of idata address in btemp 
  1210                           ;	low address of idata address in btemp+1 
  1211                           ;	low address of data in FSR
  1212                           ;	high address + 1 of data in btemp-1
  1213  1FC7                     init_ram:
  1214  1FC7  160A  158A  27C3   	fcall init_fetch
              160A  158A         
  1215  1FCC  0080               	movwf indf,f
  1216  1FCD  0A84               	incf fsr,f
  1217  1FCE  0804               	movf fsr,w
  1218  1FCF  067D               	xorwf btemp-1,w
  1219  1FD0  1903               	btfsc status,2
  1220  1FD1  3400               	retlw 0
  1221  1FD2  0AFF               	incf btemp+1,f
  1222  1FD3  1903               	btfsc status,2
  1223  1FD4  0AFE               	incf btemp,f
  1224  1FD5  2FC7               	goto init_ram
  1225                           ; Initialize objects allocated to BANK3
  1226                           psect cinit,class=CODE,delta=2
  1227                           global init_ram, __pidataBANK3
  1228  1340  30DD               	movlw low(__pdataBANK3+5)
  1229  1341  00FD               	movwf btemp-1,f
  1230  1342  301F               	movlw high(__pidataBANK3)
  1231  1343  00FE               	movwf btemp,f
  1232  1344  3093               	movlw low(__pidataBANK3)
  1233  1345  00FF               	movwf btemp+1,f
  1234  1346  30D8               	movlw low(__pdataBANK3)
  1235  1347  0084               	movwf fsr,f
  1236  1348  160A  158A  27C7   	fcall init_ram
              160A  118A         
  1237                           ; Initialize objects allocated to BANK1
  1238                           psect cinit,class=CODE,delta=2
  1239                           global init_ram, __pidataBANK1
  1240  134D  1383               	bcf	status, 7	;select IRP bank0
  1241  134E  30C1               	movlw low(__pdataBANK1+33)
  1242  134F  00FD               	movwf btemp-1,f
  1243  1350  3010               	movlw high(__pidataBANK1)
  1244  1351  00FE               	movwf btemp,f
  1245  1352  30AF               	movlw low(__pidataBANK1)
  1246  1353  00FF               	movwf btemp+1,f
  1247  1354  30A0               	movlw low(__pdataBANK1)
  1248  1355  0084               	movwf fsr,f
  1249  1356  160A  158A  27C7   	fcall init_ram
              160A  118A         
  1250                           ; Initialize objects allocated to COMMON
  1251                           	global __pidataCOMMON
  1252                           psect cinit,class=CODE,delta=2
  1253  135B  120A  118A  24FD   	fcall	__pidataCOMMON+0		;fetch initializer
              160A  118A         
  1254  1360  00FA               	movwf	__pdataCOMMON+0&07fh		
  1255  1361  120A  118A  24FE   	fcall	__pidataCOMMON+1		;fetch initializer
              160A  118A         
  1256  1366  00FB               	movwf	__pdataCOMMON+1&07fh		
  1257                           psect cinit,class=CODE,delta=2
  1258                           global end_of_initialization
  1259                           
  1260                           ;End of C runtime variable initialization code
  1261                           
  1262  1367                     end_of_initialization:
  1263  1367  0183               clrf status
  1264  1368  120A  118A  2EDD   ljmp _main	;jump to C main() function
  1265                           psect	cstackBANK3,class=BANK3,space=1
  1266                           global __pcstackBANK3
  1267  01C4                     __pcstackBANK3:
  1268                           	global	DeleteUserAfterAdminConfirm@buff_2234
  1269  01C4                     DeleteUserAfterAdminConfirm@buff_2234:	; 10 bytes @ 0x0
  1270  01C4                     	ds	10
  1271                           	global	DeleteUserAfterAdminConfirm@isDeleteUser
  1272  01CE                     DeleteUserAfterAdminConfirm@isDeleteUser:	; 1 bytes @ 0xA
  1273  01CE                     	ds	1
  1274                           	global	DeleteUserAfterAdminConfirm@buff
  1275  01CF                     DeleteUserAfterAdminConfirm@buff:	; 5 bytes @ 0xB
  1276  01CF                     	ds	5
  1277                           	global	DeleteUserAfterAdminConfirm@result
  1278  01D4                     DeleteUserAfterAdminConfirm@result:	; 1 bytes @ 0x10
  1279  01D4                     	ds	1
  1280                           	global	DeleteUserAfterAdminConfirm@UserNo
  1281  01D5                     DeleteUserAfterAdminConfirm@UserNo:	; 1 bytes @ 0x11
  1282  01D5                     	ds	1
  1283                           	global	DeleteUserAfterAdminConfirm@key
  1284  01D6                     DeleteUserAfterAdminConfirm@key:	; 1 bytes @ 0x12
  1285  01D6                     	ds	1
  1286                           	global	DeleteUserAfterAdminConfirm@DelUserNo
  1287  01D7                     DeleteUserAfterAdminConfirm@DelUserNo:	; 1 bytes @ 0x13
  1288  01D7                     	ds	1
  1289                           psect	cstackBANK1,class=BANK1,space=1
  1290                           global __pcstackBANK1
  1291  00D7                     __pcstackBANK1:
  1292                           	global	??_ControlAccess
  1293  00D7                     ??_ControlAccess:	; 0 bytes @ 0x0
  1294                           	global	??_AddNewUserAfterAdminConfirm
  1295  00D7                     ??_AddNewUserAfterAdminConfirm:	; 0 bytes @ 0x0
  1296                           	global	??_DeleteUserAfterAdminConfirm
  1297  00D7                     ??_DeleteUserAfterAdminConfirm:	; 0 bytes @ 0x0
  1298                           	global	EraseAllUsersAfterAdminConfirm@isEraseAllUsers
  1299  00D7                     EraseAllUsersAfterAdminConfirm@isEraseAllUsers:	; 1 bytes @ 0x0
  1300                           	global	AlterAdminUser@Create0thPositionUser
  1301  00D7                     AlterAdminUser@Create0thPositionUser:	; 1 bytes @ 0x0
  1302  00D7                     	ds	1
  1303                           	global	EraseAllUsersAfterAdminConfirm@result
  1304  00D8                     EraseAllUsersAfterAdminConfirm@result:	; 1 bytes @ 0x1
  1305                           	global	AlterAdminUser@result
  1306  00D8                     AlterAdminUser@result:	; 1 bytes @ 0x1
  1307  00D8                     	ds	1
  1308                           	global	EraseAllUsersAfterAdminConfirm@UserNo
  1309  00D9                     EraseAllUsersAfterAdminConfirm@UserNo:	; 1 bytes @ 0x2
  1310                           	global	AlterAdminUser@NewUserResult
  1311  00D9                     AlterAdminUser@NewUserResult:	; 1 bytes @ 0x2
  1312  00D9                     	ds	1
  1313                           	global	AlterAdminUser@UserNo
  1314  00DA                     AlterAdminUser@UserNo:	; 1 bytes @ 0x3
  1315  00DA                     	ds	2
  1316                           	global	ControlAccess@buff
  1317  00DC                     ControlAccess@buff:	; 10 bytes @ 0x5
  1318                           	global	AddNewUserAfterAdminConfirm@buff
  1319  00DC                     AddNewUserAfterAdminConfirm@buff:	; 10 bytes @ 0x5
  1320  00DC                     	ds	10
  1321                           	global	ControlAccess@result
  1322  00E6                     ControlAccess@result:	; 1 bytes @ 0xF
  1323                           	global	AddNewUserAfterAdminConfirm@isAddNewUser
  1324  00E6                     AddNewUserAfterAdminConfirm@isAddNewUser:	; 1 bytes @ 0xF
  1325  00E6                     	ds	1
  1326                           	global	ControlAccess@UserNo
  1327  00E7                     ControlAccess@UserNo:	; 1 bytes @ 0x10
  1328                           	global	AddNewUserAfterAdminConfirm@result
  1329  00E7                     AddNewUserAfterAdminConfirm@result:	; 1 bytes @ 0x10
  1330  00E7                     	ds	1
  1331                           	global	AddNewUserAfterAdminConfirm@_availSpaceResult
  1332  00E8                     AddNewUserAfterAdminConfirm@_availSpaceResult:	; 1 bytes @ 0x11
  1333  00E8                     	ds	1
  1334                           	global	AddNewUserAfterAdminConfirm@availSpaceResult
  1335  00E9                     AddNewUserAfterAdminConfirm@availSpaceResult:	; 1 bytes @ 0x12
  1336  00E9                     	ds	1
  1337                           	global	AddNewUserAfterAdminConfirm@AddNewUserResult
  1338  00EA                     AddNewUserAfterAdminConfirm@AddNewUserResult:	; 1 bytes @ 0x13
  1339  00EA                     	ds	1
  1340                           	global	AddNewUserAfterAdminConfirm@UserNo
  1341  00EB                     AddNewUserAfterAdminConfirm@UserNo:	; 1 bytes @ 0x14
  1342  00EB                     	ds	1
  1343                           psect	cstackCOMMON,class=COMMON,space=1
  1344                           global __pcstackCOMMON
  1345  0070                     __pcstackCOMMON:
  1346                           	global	?_LcdClear
  1347  0070                     ?_LcdClear:	; 0 bytes @ 0x0
  1348                           	global	?_ee_eraseNPos
  1349  0070                     ?_ee_eraseNPos:	; 0 bytes @ 0x0
  1350                           	global	?_KeyScan
  1351  0070                     ?_KeyScan:	; 0 bytes @ 0x0
  1352                           	global	?_releaseEElocation
  1353  0070                     ?_releaseEElocation:	; 0 bytes @ 0x0
  1354                           	global	?_PutUartByte
  1355  0070                     ?_PutUartByte:	; 0 bytes @ 0x0
  1356                           	global	??_PutUartByte
  1357  0070                     ??_PutUartByte:	; 0 bytes @ 0x0
  1358                           	global	?_UartInit
  1359  0070                     ?_UartInit:	; 0 bytes @ 0x0
  1360                           	global	?_reserveEElocation
  1361  0070                     ?_reserveEElocation:	; 0 bytes @ 0x0
  1362                           	global	?_LcdInit
  1363  0070                     ?_LcdInit:	; 0 bytes @ 0x0
  1364                           	global	?_UploadLcdBuffer
  1365  0070                     ?_UploadLcdBuffer:	; 0 bytes @ 0x0
  1366                           	global	?_isr
  1367  0070                     ?_isr:	; 0 bytes @ 0x0
  1368                           	global	?_main
  1369  0070                     ?_main:	; 0 bytes @ 0x0
  1370                           	global	?_PutKey
  1371  0070                     ?_PutKey:	; 0 bytes @ 0x0
  1372                           	global	?_SendUartByte
  1373  0070                     ?_SendUartByte:	; 0 bytes @ 0x0
  1374                           	global	?_ClearUartBuffer
  1375  0070                     ?_ClearUartBuffer:	; 0 bytes @ 0x0
  1376                           	global	?_ee_read
  1377  0070                     ?_ee_read:	; 1 bytes @ 0x0
  1378                           	global	?_EraseAllUsers
  1379  0070                     ?_EraseAllUsers:	; 1 bytes @ 0x0
  1380                           	global	?_DeleteUser
  1381  0070                     ?_DeleteUser:	; 1 bytes @ 0x0
  1382                           	global	?_AddNewUser
  1383  0070                     ?_AddNewUser:	; 1 bytes @ 0x0
  1384                           	global	?_getNextAvailLocation
  1385  0070                     ?_getNextAvailLocation:	; 1 bytes @ 0x0
  1386                           	global	?_IsKeyPending
  1387  0070                     ?_IsKeyPending:	; 1 bytes @ 0x0
  1388                           	global	?_GetKey
  1389  0070                     ?_GetKey:	; 1 bytes @ 0x0
  1390                           	global	?_VerifyPswd
  1391  0070                     ?_VerifyPswd:	; 1 bytes @ 0x0
  1392                           	global	?_EraseAllUsersAfterAdminConfirm
  1393  0070                     ?_EraseAllUsersAfterAdminConfirm:	; 1 bytes @ 0x0
  1394                           	global	?_ControlAccess
  1395  0070                     ?_ControlAccess:	; 1 bytes @ 0x0
  1396                           	global	?_AlterAdminUser
  1397  0070                     ?_AlterAdminUser:	; 1 bytes @ 0x0
  1398                           	global	?_AddNewUserAfterAdminConfirm
  1399  0070                     ?_AddNewUserAfterAdminConfirm:	; 1 bytes @ 0x0
  1400                           	global	?_DeleteUserAfterAdminConfirm
  1401  0070                     ?_DeleteUserAfterAdminConfirm:	; 1 bytes @ 0x0
  1402                           	global	?_IsUartBytePending
  1403  0070                     ?_IsUartBytePending:	; 1 bytes @ 0x0
  1404                           	global	?_GetUartByte
  1405  0070                     ?_GetUartByte:	; 1 bytes @ 0x0
  1406                           	global	?_ScanForImage
  1407  0070                     ?_ScanForImage:	; 1 bytes @ 0x0
  1408                           	global	?_GenCharacterFileFromImage
  1409  0070                     ?_GenCharacterFileFromImage:	; 1 bytes @ 0x0
  1410                           	global	?_AddUserA
  1411  0070                     ?_AddUserA:	; 1 bytes @ 0x0
  1412                           	global	?_AddUserB
  1413  0070                     ?_AddUserB:	; 1 bytes @ 0x0
  1414                           	global	?_AddUserC
  1415  0070                     ?_AddUserC:	; 1 bytes @ 0x0
  1416  0070                     	ds	1
  1417                           	global	PutUartByte@val
  1418  0071                     PutUartByte@val:	; 1 bytes @ 0x1
  1419  0071                     	ds	1
  1420                           	global	??_isr
  1421  0072                     ??_isr:	; 0 bytes @ 0x2
  1422  0072                     	ds	4
  1423                           psect	cstackBANK0,class=BANK0,space=1
  1424                           global __pcstackBANK0
  1425  0020                     __pcstackBANK0:
  1426                           	global	?_LcdDelay
  1427  0020                     ?_LcdDelay:	; 0 bytes @ 0x0
  1428                           	global	?_memset1
  1429  0020                     ?_memset1:	; 0 bytes @ 0x0
  1430                           	global	??_ee_read
  1431  0020                     ??_ee_read:	; 0 bytes @ 0x0
  1432                           	global	??_IsKeyPending
  1433  0020                     ??_IsKeyPending:	; 0 bytes @ 0x0
  1434                           	global	??_GetKey
  1435  0020                     ??_GetKey:	; 0 bytes @ 0x0
  1436                           	global	??_UartInit
  1437  0020                     ??_UartInit:	; 0 bytes @ 0x0
  1438                           	global	??_SendUartByte
  1439  0020                     ??_SendUartByte:	; 0 bytes @ 0x0
  1440                           	global	??_ClearUartBuffer
  1441  0020                     ??_ClearUartBuffer:	; 0 bytes @ 0x0
  1442                           	global	??_IsUartBytePending
  1443  0020                     ??_IsUartBytePending:	; 0 bytes @ 0x0
  1444                           	global	??_GetUartByte
  1445  0020                     ??_GetUartByte:	; 0 bytes @ 0x0
  1446                           	global	?_ToggleEndianFormat
  1447  0020                     ?_ToggleEndianFormat:	; 4 bytes @ 0x0
  1448                           	global	?___lmul
  1449  0020                     ?___lmul:	; 4 bytes @ 0x0
  1450                           	global	?___llmod
  1451  0020                     ?___llmod:	; 4 bytes @ 0x0
  1452                           	global	?___lldiv
  1453  0020                     ?___lldiv:	; 4 bytes @ 0x0
  1454                           	global	SendUartByte@val
  1455  0020                     SendUartByte@val:	; 1 bytes @ 0x0
  1456                           	global	LcdDelay@d
  1457  0020                     LcdDelay@d:	; 2 bytes @ 0x0
  1458                           	global	memset1@str
  1459  0020                     memset1@str:	; 2 bytes @ 0x0
  1460                           	global	ToggleEndianFormat@val
  1461  0020                     ToggleEndianFormat@val:	; 4 bytes @ 0x0
  1462                           	global	___lmul@multiplier
  1463  0020                     ___lmul@multiplier:	; 4 bytes @ 0x0
  1464                           	global	___llmod@divisor
  1465  0020                     ___llmod@divisor:	; 4 bytes @ 0x0
  1466                           	global	___lldiv@divisor
  1467  0020                     ___lldiv@divisor:	; 4 bytes @ 0x0
  1468  0020                     	ds	1
  1469                           	global	?_SendUartValue
  1470  0021                     ?_SendUartValue:	; 0 bytes @ 0x1
  1471                           	global	GetKey@key
  1472  0021                     GetKey@key:	; 1 bytes @ 0x1
  1473                           	global	ClearUartBuffer@i
  1474  0021                     ClearUartBuffer@i:	; 1 bytes @ 0x1
  1475                           	global	GetUartByte@val
  1476  0021                     GetUartByte@val:	; 1 bytes @ 0x1
  1477                           	global	ee_read@a
  1478  0021                     ee_read@a:	; 1 bytes @ 0x1
  1479                           	global	SendUartValue@value
  1480  0021                     SendUartValue@value:	; 4 bytes @ 0x1
  1481  0021                     	ds	1
  1482                           	global	??_LcdDelay
  1483  0022                     ??_LcdDelay:	; 0 bytes @ 0x2
  1484                           	global	?_SendByte
  1485  0022                     ?_SendByte:	; 0 bytes @ 0x2
  1486                           	global	??_PutKey
  1487  0022                     ??_PutKey:	; 0 bytes @ 0x2
  1488                           	global	SendByte@val
  1489  0022                     SendByte@val:	; 1 bytes @ 0x2
  1490                           	global	ee_read@d
  1491  0022                     ee_read@d:	; 1 bytes @ 0x2
  1492                           	global	memset1@data
  1493  0022                     memset1@data:	; 1 bytes @ 0x2
  1494  0022                     	ds	1
  1495                           	global	??_SendByte
  1496  0023                     ??_SendByte:	; 0 bytes @ 0x3
  1497                           	global	?_ee_write
  1498  0023                     ?_ee_write:	; 0 bytes @ 0x3
  1499                           	global	??_getNextAvailLocation
  1500  0023                     ??_getNextAvailLocation:	; 0 bytes @ 0x3
  1501                           	global	PutKey@key
  1502  0023                     PutKey@key:	; 1 bytes @ 0x3
  1503                           	global	ee_write@d
  1504  0023                     ee_write@d:	; 1 bytes @ 0x3
  1505                           	global	memset1@len
  1506  0023                     memset1@len:	; 2 bytes @ 0x3
  1507  0023                     	ds	1
  1508                           	global	??_ee_write
  1509  0024                     ??_ee_write:	; 0 bytes @ 0x4
  1510                           	global	??_KeyScan
  1511  0024                     ??_KeyScan:	; 0 bytes @ 0x4
  1512                           	global	SendByte@Mode
  1513  0024                     SendByte@Mode:	; 1 bytes @ 0x4
  1514                           	global	ToggleEndianFormat@size
  1515  0024                     ToggleEndianFormat@size:	; 1 bytes @ 0x4
  1516                           	global	getNextAvailLocation@result
  1517  0024                     getNextAvailLocation@result:	; 1 bytes @ 0x4
  1518                           	global	ee_write@a
  1519  0024                     ee_write@a:	; 1 bytes @ 0x4
  1520                           	global	___lmul@multiplicand
  1521  0024                     ___lmul@multiplicand:	; 4 bytes @ 0x4
  1522                           	global	___llmod@dividend
  1523  0024                     ___llmod@dividend:	; 4 bytes @ 0x4
  1524                           	global	___lldiv@dividend
  1525  0024                     ___lldiv@dividend:	; 4 bytes @ 0x4
  1526  0024                     	ds	1
  1527                           	global	??_memset1
  1528  0025                     ??_memset1:	; 0 bytes @ 0x5
  1529                           	global	??_ee_eraseNPos
  1530  0025                     ??_ee_eraseNPos:	; 0 bytes @ 0x5
  1531                           	global	??_releaseEElocation
  1532  0025                     ??_releaseEElocation:	; 0 bytes @ 0x5
  1533                           	global	??_reserveEElocation
  1534  0025                     ??_reserveEElocation:	; 0 bytes @ 0x5
  1535                           	global	??_UploadLcdBuffer
  1536  0025                     ??_UploadLcdBuffer:	; 0 bytes @ 0x5
  1537                           	global	??_ToggleEndianFormat
  1538  0025                     ??_ToggleEndianFormat:	; 0 bytes @ 0x5
  1539                           	global	KeyScan@keyNo
  1540  0025                     KeyScan@keyNo:	; 1 bytes @ 0x5
  1541                           	global	SendUartValue@size
  1542  0025                     SendUartValue@size:	; 1 bytes @ 0x5
  1543                           	global	getNextAvailLocation@i
  1544  0025                     getNextAvailLocation@i:	; 1 bytes @ 0x5
  1545  0025                     	ds	1
  1546                           	global	??_SendUartValue
  1547  0026                     ??_SendUartValue:	; 0 bytes @ 0x6
  1548                           	global	ee_eraseNPos@n
  1549  0026                     ee_eraseNPos@n:	; 1 bytes @ 0x6
  1550                           	global	reserveEElocation@loc
  1551  0026                     reserveEElocation@loc:	; 1 bytes @ 0x6
  1552                           	global	releaseEElocation@loc
  1553  0026                     releaseEElocation@loc:	; 1 bytes @ 0x6
  1554  0026                     	ds	1
  1555                           	global	ee_eraseNPos@i
  1556  0027                     ee_eraseNPos@i:	; 1 bytes @ 0x7
  1557  0027                     	ds	1
  1558                           	global	??_LcdClear
  1559  0028                     ??_LcdClear:	; 0 bytes @ 0x8
  1560                           	global	??_LcdInit
  1561  0028                     ??_LcdInit:	; 0 bytes @ 0x8
  1562                           	global	??___lmul
  1563  0028                     ??___lmul:	; 0 bytes @ 0x8
  1564                           	global	??___llmod
  1565  0028                     ??___llmod:	; 0 bytes @ 0x8
  1566                           	global	??___lldiv
  1567  0028                     ??___lldiv:	; 0 bytes @ 0x8
  1568  0028                     	ds	1
  1569                           	global	UploadLcdBuffer@i
  1570  0029                     UploadLcdBuffer@i:	; 1 bytes @ 0x9
  1571                           	global	___llmod@counter
  1572  0029                     ___llmod@counter:	; 1 bytes @ 0x9
  1573                           	global	___lldiv@counter
  1574  0029                     ___lldiv@counter:	; 1 bytes @ 0x9
  1575                           	global	___lmul@product
  1576  0029                     ___lmul@product:	; 4 bytes @ 0x9
  1577  0029                     	ds	1
  1578                           	global	UploadLcdBuffer@j
  1579  002A                     UploadLcdBuffer@j:	; 1 bytes @ 0xA
  1580                           	global	___lldiv@quotient
  1581  002A                     ___lldiv@quotient:	; 4 bytes @ 0xA
  1582  002A                     	ds	1
  1583                           	global	?_LcdPrint
  1584  002B                     ?_LcdPrint:	; 0 bytes @ 0xB
  1585                           	global	?_sendPackage
  1586  002B                     ?_sendPackage:	; 0 bytes @ 0xB
  1587                           	global	sendPackage@length
  1588  002B                     sendPackage@length:	; 1 bytes @ 0xB
  1589                           	global	LcdPrint@s
  1590  002B                     LcdPrint@s:	; 2 bytes @ 0xB
  1591  002B                     	ds	1
  1592                           	global	sendPackage@instruction
  1593  002C                     sendPackage@instruction:	; 1 bytes @ 0xC
  1594  002C                     	ds	1
  1595                           	global	?_Delay
  1596  002D                     ?_Delay:	; 0 bytes @ 0xD
  1597                           	global	LcdPrint@rowNo
  1598  002D                     LcdPrint@rowNo:	; 1 bytes @ 0xD
  1599                           	global	sendPackage@content
  1600  002D                     sendPackage@content:	; 1 bytes @ 0xD
  1601                           	global	Delay@d
  1602  002D                     Delay@d:	; 2 bytes @ 0xD
  1603  002D                     	ds	1
  1604                           	global	??_sendPackage
  1605  002E                     ??_sendPackage:	; 0 bytes @ 0xE
  1606                           	global	?_TotDigits
  1607  002E                     ?_TotDigits:	; 1 bytes @ 0xE
  1608                           	global	LcdPrint@colNo
  1609  002E                     LcdPrint@colNo:	; 1 bytes @ 0xE
  1610                           	global	TotDigits@val
  1611  002E                     TotDigits@val:	; 4 bytes @ 0xE
  1612  002E                     	ds	1
  1613                           	global	??_Delay
  1614  002F                     ??_Delay:	; 0 bytes @ 0xF
  1615                           	global	??_LcdPrint
  1616  002F                     ??_LcdPrint:	; 0 bytes @ 0xF
  1617  002F                     	ds	3
  1618                           	global	??_TotDigits
  1619  0032                     ??_TotDigits:	; 0 bytes @ 0x12
  1620  0032                     	ds	1
  1621                           	global	?_menu
  1622  0033                     ?_menu:	; 1 bytes @ 0x13
  1623                           	global	TotDigits@result
  1624  0033                     TotDigits@result:	; 1 bytes @ 0x13
  1625                           	global	menu@s
  1626  0033                     menu@s:	; 2 bytes @ 0x13
  1627                           	global	Delay@dd
  1628  0033                     Delay@dd:	; 4 bytes @ 0x13
  1629  0033                     	ds	1
  1630                           	global	?_DecToStr
  1631  0034                     ?_DecToStr:	; 0 bytes @ 0x14
  1632                           	global	DecToStr@val
  1633  0034                     DecToStr@val:	; 4 bytes @ 0x14
  1634  0034                     	ds	1
  1635                           	global	??_menu
  1636  0035                     ??_menu:	; 0 bytes @ 0x15
  1637                           	global	ToggleEndianFormat@result
  1638  0035                     ToggleEndianFormat@result:	; 2 bytes @ 0x15
  1639  0035                     	ds	1
  1640                           	global	menu@keyHit
  1641  0036                     menu@keyHit:	; 1 bytes @ 0x16
  1642                           	global	sendPackage@identifier
  1643  0036                     sendPackage@identifier:	; 1 bytes @ 0x16
  1644  0036                     	ds	1
  1645                           	global	?_FillUpResponse
  1646  0037                     ?_FillUpResponse:	; 1 bytes @ 0x17
  1647                           	global	FillUpResponse@confirmationCode
  1648  0037                     FillUpResponse@confirmationCode:	; 1 bytes @ 0x17
  1649                           	global	sendPackage@i
  1650  0037                     sendPackage@i:	; 2 bytes @ 0x17
  1651  0037                     	ds	1
  1652                           	global	??_FillUpResponse
  1653  0038                     ??_FillUpResponse:	; 0 bytes @ 0x18
  1654                           	global	DecToStr@dest
  1655  0038                     DecToStr@dest:	; 2 bytes @ 0x18
  1656  0038                     	ds	2
  1657                           	global	DecToStr@minDigit
  1658  003A                     DecToStr@minDigit:	; 1 bytes @ 0x1A
  1659  003A                     	ds	1
  1660                           	global	??_DecToStr
  1661  003B                     ??_DecToStr:	; 0 bytes @ 0x1B
  1662  003B                     	ds	3
  1663                           	global	DecToStr@len
  1664  003E                     DecToStr@len:	; 1 bytes @ 0x1E
  1665  003E                     	ds	2
  1666                           	global	FillUpResponse@data
  1667  0040                     FillUpResponse@data:	; 1 bytes @ 0x20
  1668  0040                     	ds	1
  1669                           	global	FillUpResponse@chkSumDigitCount
  1670  0041                     FillUpResponse@chkSumDigitCount:	; 1 bytes @ 0x21
  1671  0041                     	ds	1
  1672                           	global	FillUpResponse@wait
  1673  0042                     FillUpResponse@wait:	; 4 bytes @ 0x22
  1674  0042                     	ds	4
  1675                           	global	FillUpResponse@checkSumCalculated
  1676  0046                     FillUpResponse@checkSumCalculated:	; 2 bytes @ 0x26
  1677  0046                     	ds	2
  1678                           	global	FillUpResponse@l
  1679  0048                     FillUpResponse@l:	; 1 bytes @ 0x28
  1680  0048                     	ds	1
  1681                           	global	FillUpResponse@respPtr
  1682  0049                     FillUpResponse@respPtr:	; 1 bytes @ 0x29
  1683  0049                     	ds	1
  1684                           	global	FillUpResponse@chkLength
  1685  004A                     FillUpResponse@chkLength:	; 1 bytes @ 0x2A
  1686  004A                     	ds	1
  1687                           	global	FillUpResponse@i
  1688  004B                     FillUpResponse@i:	; 1 bytes @ 0x2B
  1689  004B                     	ds	1
  1690                           	global	FillUpResponse@c
  1691  004C                     FillUpResponse@c:	; 1 bytes @ 0x2C
  1692  004C                     	ds	1
  1693                           	global	FillUpResponse@_Response
  1694  004D                     FillUpResponse@_Response:	; 12 bytes @ 0x2D
  1695  004D                     	ds	12
  1696                           	global	??_EraseAllUsers
  1697  0059                     ??_EraseAllUsers:	; 0 bytes @ 0x39
  1698                           	global	??_DeleteUser
  1699  0059                     ??_DeleteUser:	; 0 bytes @ 0x39
  1700                           	global	??_VerifyPswd
  1701  0059                     ??_VerifyPswd:	; 0 bytes @ 0x39
  1702                           	global	??_ScanForImage
  1703  0059                     ??_ScanForImage:	; 0 bytes @ 0x39
  1704                           	global	??_GenCharacterFileFromImage
  1705  0059                     ??_GenCharacterFileFromImage:	; 0 bytes @ 0x39
  1706                           	global	??_AddUserA
  1707  0059                     ??_AddUserA:	; 0 bytes @ 0x39
  1708                           	global	??_AddUserB
  1709  0059                     ??_AddUserB:	; 0 bytes @ 0x39
  1710                           	global	??_AddUserC
  1711  0059                     ??_AddUserC:	; 0 bytes @ 0x39
  1712                           	global	?_HiSpeedScan
  1713  0059                     ?_HiSpeedScan:	; 1 bytes @ 0x39
  1714                           	global	HiSpeedScan@UserNo
  1715  0059                     HiSpeedScan@UserNo:	; 2 bytes @ 0x39
  1716  0059                     	ds	2
  1717                           	global	??_HiSpeedScan
  1718  005B                     ??_HiSpeedScan:	; 0 bytes @ 0x3B
  1719                           	global	ScanForImage@contentData
  1720  005B                     ScanForImage@contentData:	; 1 bytes @ 0x3B
  1721  005B                     	ds	1
  1722                           	global	VerifyPswd@dataOut
  1723  005C                     VerifyPswd@dataOut:	; 1 bytes @ 0x3C
  1724                           	global	ScanForImage@dataOut
  1725  005C                     ScanForImage@dataOut:	; 1 bytes @ 0x3C
  1726                           	global	GenCharacterFileFromImage@contentData
  1727  005C                     GenCharacterFileFromImage@contentData:	; 1 bytes @ 0x3C
  1728                           	global	EraseAllUsers@contentData
  1729  005C                     EraseAllUsers@contentData:	; 1 bytes @ 0x3C
  1730                           	global	AddUserA@dataOut
  1731  005C                     AddUserA@dataOut:	; 1 bytes @ 0x3C
  1732                           	global	AddUserB@dataOut
  1733  005C                     AddUserB@dataOut:	; 1 bytes @ 0x3C
  1734                           	global	DeleteUser@contentData
  1735  005C                     DeleteUser@contentData:	; 4 bytes @ 0x3C
  1736                           	global	AddUserC@contentData
  1737  005C                     AddUserC@contentData:	; 4 bytes @ 0x3C
  1738  005C                     	ds	1
  1739                           	global	VerifyPswd@confirmationCode
  1740  005D                     VerifyPswd@confirmationCode:	; 1 bytes @ 0x3D
  1741                           	global	ScanForImage@confirmationCode
  1742  005D                     ScanForImage@confirmationCode:	; 1 bytes @ 0x3D
  1743                           	global	GenCharacterFileFromImage@dataOut
  1744  005D                     GenCharacterFileFromImage@dataOut:	; 1 bytes @ 0x3D
  1745                           	global	EraseAllUsers@dataOut
  1746  005D                     EraseAllUsers@dataOut:	; 1 bytes @ 0x3D
  1747                           	global	AddUserA@contentData
  1748  005D                     AddUserA@contentData:	; 1 bytes @ 0x3D
  1749                           	global	AddUserB@contentData
  1750  005D                     AddUserB@contentData:	; 1 bytes @ 0x3D
  1751  005D                     	ds	1
  1752                           	global	GenCharacterFileFromImage@confirmationCode
  1753  005E                     GenCharacterFileFromImage@confirmationCode:	; 1 bytes @ 0x3E
  1754                           	global	EraseAllUsers@confirmationCode
  1755  005E                     EraseAllUsers@confirmationCode:	; 1 bytes @ 0x3E
  1756                           	global	AddUserA@confirmationCode
  1757  005E                     AddUserA@confirmationCode:	; 1 bytes @ 0x3E
  1758                           	global	AddUserB@confirmationCode
  1759  005E                     AddUserB@confirmationCode:	; 1 bytes @ 0x3E
  1760                           	global	HiSpeedScan@contentData
  1761  005E                     HiSpeedScan@contentData:	; 5 bytes @ 0x3E
  1762  005E                     	ds	2
  1763                           	global	DeleteUser@UserNo
  1764  0060                     DeleteUser@UserNo:	; 1 bytes @ 0x40
  1765                           	global	AddUserC@position
  1766  0060                     AddUserC@position:	; 1 bytes @ 0x40
  1767  0060                     	ds	1
  1768                           	global	DeleteUser@dataOut
  1769  0061                     DeleteUser@dataOut:	; 1 bytes @ 0x41
  1770                           	global	AddUserC@dataOut
  1771  0061                     AddUserC@dataOut:	; 1 bytes @ 0x41
  1772  0061                     	ds	1
  1773                           	global	DeleteUser@confirmationCode
  1774  0062                     DeleteUser@confirmationCode:	; 1 bytes @ 0x42
  1775                           	global	AddUserC@confirmationCode
  1776  0062                     AddUserC@confirmationCode:	; 1 bytes @ 0x42
  1777  0062                     	ds	1
  1778                           	global	??_AddNewUser
  1779  0063                     ??_AddNewUser:	; 0 bytes @ 0x43
  1780                           	global	HiSpeedScan@dataOut
  1781  0063                     HiSpeedScan@dataOut:	; 5 bytes @ 0x43
  1782  0063                     	ds	1
  1783                           	global	AddNewUser@position
  1784  0064                     AddNewUser@position:	; 1 bytes @ 0x44
  1785  0064                     	ds	1
  1786                           	global	AddNewUser@scanResult
  1787  0065                     AddNewUser@scanResult:	; 1 bytes @ 0x45
  1788  0065                     	ds	3
  1789                           	global	HiSpeedScan@confirmationCode
  1790  0068                     HiSpeedScan@confirmationCode:	; 1 bytes @ 0x48
  1791  0068                     	ds	1
  1792                           	global	?_HiSpeedScan0
  1793  0069                     ?_HiSpeedScan0:	; 1 bytes @ 0x49
  1794                           	global	HiSpeedScan0@UserNo
  1795  0069                     HiSpeedScan0@UserNo:	; 2 bytes @ 0x49
  1796  0069                     	ds	2
  1797                           	global	??_HiSpeedScan0
  1798  006B                     ??_HiSpeedScan0:	; 0 bytes @ 0x4B
  1799  006B                     	ds	1
  1800                           	global	HiSpeedScan0@scanResult
  1801  006C                     HiSpeedScan0@scanResult:	; 1 bytes @ 0x4C
  1802  006C                     	ds	1
  1803                           	global	??_EraseAllUsersAfterAdminConfirm
  1804  006D                     ??_EraseAllUsersAfterAdminConfirm:	; 0 bytes @ 0x4D
  1805                           	global	??_AlterAdminUser
  1806  006D                     ??_AlterAdminUser:	; 0 bytes @ 0x4D
  1807  006D                     	ds	1
  1808                           	global	??_main
  1809  006E                     ??_main:	; 0 bytes @ 0x4E
  1810  006E                     	ds	1
  1811                           	global	main@menuResponse
  1812  006F                     main@menuResponse:	; 1 bytes @ 0x4F
  1813  006F                     	ds	1
  1814 ;;Data sizes: Strings 477, constant 0, data 40, bss 174, persistent 0 stack 0
  1815 ;;Auto spaces:   Size  Autos    Used
  1816 ;; COMMON          14      6      12
  1817 ;; BANK0           80     80      80
  1818 ;; BANK1           80     21      76
  1819 ;; BANK3           96     20      77
  1820 ;; BANK2           96      0      96
  1821                           
  1822 ;;
  1823 ;; Pointer list with targets:
  1824                           
  1825 ;; ?___llmod	unsigned long  size(1) Largest target is 0
  1826 ;;
  1827 ;; ?___lldiv	unsigned long  size(1) Largest target is 0
  1828 ;;
  1829 ;; ?___lmul	unsigned long  size(1) Largest target is 0
  1830 ;;
  1831 ;; ?_ToggleEndianFormat	unsigned long  size(1) Largest target is 0
  1832 ;;
  1833 ;; DecToStr@dest	PTR unsigned char  size(2) Largest target is 10
  1834 ;;		 -> DeleteUserAfterAdminConfirm@buff_2234(BANK3[10]), DeleteUserAfterAdminConfirm@buff(BANK3[5]), AddNewUserAfterAdm
       inConfirm@buff(BANK1[10]), ControlAccess@buff(BANK1[10]), 
  1835 ;;
  1836 ;; memset1@str	PTR unsigned char  size(2) Largest target is 32
  1837 ;;		 -> FillUpResponse@_Response(BANK0[12]), ControlAccess@buff(BANK1[10]), LcdBuffer(BANK3[32]), 
  1838 ;;
  1839 ;; HiSpeedScan@UserNo	PTR unsigned char  size(2) Largest target is 1
  1840 ;;		 -> DeleteUserAfterAdminConfirm@UserNo(BANK3[1]), AddNewUserAfterAdminConfirm@UserNo(BANK1[1]), AlterAdminUser@UserN
       o(BANK1[1]), ControlAccess@UserNo(BANK1[1]), 
  1841 ;;		 -> EraseAllUsersAfterAdminConfirm@UserNo(BANK1[1]), 
  1842 ;;
  1843 ;; HiSpeedScan0@UserNo	PTR unsigned char  size(2) Largest target is 1
  1844 ;;		 -> DeleteUserAfterAdminConfirm@UserNo(BANK3[1]), AddNewUserAfterAdminConfirm@UserNo(BANK1[1]), AlterAdminUser@UserN
       o(BANK1[1]), ControlAccess@UserNo(BANK1[1]), 
  1845 ;;		 -> EraseAllUsersAfterAdminConfirm@UserNo(BANK1[1]), 
  1846 ;;
  1847 ;; FillUpResponse@confirmationCode	PTR unsigned char  size(1) Largest target is 1
  1848 ;;		 -> AddUserC@confirmationCode(BANK0[1]), AddUserB@confirmationCode(BANK0[1]), AddUserA@confirmationCode(BANK0[1]), E
       raseAllUsers@confirmationCode(BANK0[1]), 
  1849 ;;		 -> HiSpeedScan@confirmationCode(BANK0[1]), MatchTemplate@confirmationCode(COMMON[1]), LoadFingerTemplate@confirmati
       onCode(COMMON[1]), GenCharacterFileFromImage@confirmationCode(BANK0[1]), 
  1850 ;;		 -> ScanForImage@confirmationCode(BANK0[1]), VerifyPswd@confirmationCode(BANK0[1]), DeleteUser@confirmationCode(BANK
       0[1]), 
  1851 ;;
  1852 ;; FillUpResponse@data	PTR unsigned char  size(1) Largest target is 5
  1853 ;;		 -> AddUserC@dataOut(BANK0[1]), AddUserB@dataOut(BANK0[1]), AddUserA@dataOut(BANK0[1]), EraseAllUsers@dataOut(BANK0[
       1]), 
  1854 ;;		 -> HiSpeedScan@dataOut(BANK0[5]), MatchTemplate@dataOut(COMMON[1]), LoadFingerTemplate@dataOut(COMMON[1]), GenChara
       cterFileFromImage@dataOut(BANK0[1]), 
  1855 ;;		 -> ScanForImage@dataOut(BANK0[1]), VerifyPswd@dataOut(BANK0[1]), DeleteUser@dataOut(BANK0[1]), 
  1856 ;;
  1857 ;; FillUpResponse@respPtr	PTR unsigned char  size(1) Largest target is 12
  1858 ;;		 -> FillUpResponse@_Response(BANK0[12]), 
  1859 ;;
  1860 ;; sendPackage@content	PTR unsigned char  size(1) Largest target is 5
  1861 ;;		 -> AddUserC@contentData(BANK0[4]), AddUserB@contentData(BANK0[1]), AddUserA@contentData(BANK0[1]), EraseAllUsers@co
       ntentData(BANK0[1]), 
  1862 ;;		 -> HiSpeedScan@contentData(BANK0[5]), MatchTemplate@contentData(COMMON[1]), LoadFingerTemplate@contentData(COMMON[3
       ]), GenCharacterFileFromImage@contentData(BANK0[1]), 
  1863 ;;		 -> ScanForImage@contentData(BANK0[1]), DefModulePassword(BANK1[4]), DeleteUser@contentData(BANK0[4]), 
  1864 ;;
  1865 ;; S3940Package$Content	PTR unsigned char  size(1) Largest target is 5
  1866 ;;		 -> AddUserC@contentData(BANK0[4]), AddUserB@contentData(BANK0[1]), AddUserA@contentData(BANK0[1]), EraseAllUsers@co
       ntentData(BANK0[1]), 
  1867 ;;		 -> HiSpeedScan@contentData(BANK0[5]), MatchTemplate@contentData(COMMON[1]), LoadFingerTemplate@contentData(COMMON[3
       ]), GenCharacterFileFromImage@contentData(BANK0[1]), 
  1868 ;;		 -> ScanForImage@contentData(BANK0[1]), DefModulePassword(BANK1[4]), DeleteUser@contentData(BANK0[4]), 
  1869 ;;
  1870 ;; _Package.Content	PTR unsigned char  size(1) Largest target is 5
  1871 ;;		 -> AddUserC@contentData(BANK0[4]), AddUserB@contentData(BANK0[1]), AddUserA@contentData(BANK0[1]), EraseAllUsers@co
       ntentData(BANK0[1]), 
  1872 ;;		 -> HiSpeedScan@contentData(BANK0[5]), MatchTemplate@contentData(COMMON[1]), LoadFingerTemplate@contentData(COMMON[3
       ]), GenCharacterFileFromImage@contentData(BANK0[1]), 
  1873 ;;		 -> ScanForImage@contentData(BANK0[1]), DefModulePassword(BANK1[4]), DeleteUser@contentData(BANK0[4]), 
  1874 ;;
  1875 ;; menu@s	PTR const unsigned char  size(2) Largest target is 33
  1876 ;;		 -> STR_34(CODE[29]), STR_33(CODE[33]), STR_32(CODE[30]), STR_31(CODE[30]), 
  1877 ;;
  1878 ;; LcdPrint@s	PTR const unsigned char  size(2) Largest target is 33
  1879 ;;		 -> STR_34(CODE[29]), STR_33(CODE[33]), STR_32(CODE[30]), STR_31(CODE[30]), 
  1880 ;;		 -> STR_30(CODE[8]), STR_29(CODE[18]), STR_28(CODE[14]), DeleteUserAfterAdminConfirm@buff_2234(BANK3[10]), 
  1881 ;;		 -> STR_27(CODE[22]), DeleteUserAfterAdminConfirm@buff(BANK3[5]), STR_26(CODE[12]), STR_25(CODE[12]), 
  1882 ;;		 -> STR_24(CODE[28]), STR_23(CODE[24]), AddNewUserAfterAdminConfirm@buff(BANK1[10]), STR_22(CODE[21]), 
  1883 ;;		 -> STR_21(CODE[22]), STR_20(CODE[19]), STR_19(CODE[18]), STR_18(CODE[12]), 
  1884 ;;		 -> STR_17(CODE[28]), STR_16(CODE[25]), STR_15(CODE[20]), STR_14(CODE[13]), 
  1885 ;;		 -> STR_13(CODE[24]), STR_12(CODE[18]), STR_11(CODE[20]), STR_10(CODE[14]), 
  1886 ;;		 -> STR_9(CODE[12]), STR_8(CODE[28]), STR_7(CODE[13]), STR_6(CODE[20]), 
  1887 ;;		 -> ControlAccess@buff(BANK1[10]), STR_5(CODE[13]), STR_4(CODE[19]), STR_3(CODE[18]), 
  1888 ;;		 -> STR_2(CODE[12]), STR_1(CODE[28]), 
  1889 ;;
  1890                           
  1891                           
  1892 ;;
  1893 ;; Critical Paths under _main in COMMON
  1894 ;;
  1895 ;;   None.
  1896 ;;
  1897 ;; Critical Paths under _isr in COMMON
  1898 ;;
  1899 ;;   _isr->_PutUartByte
  1900 ;;
  1901 ;; Critical Paths under _main in BANK0
  1902 ;;
  1903 ;;   _main->_AlterAdminUser
  1904 ;;   _main->_EraseAllUsersAfterAdminConfirm
  1905 ;;   _DeleteUserAfterAdminConfirm->_HiSpeedScan0
  1906 ;;   _AddNewUserAfterAdminConfirm->_HiSpeedScan0
  1907 ;;   _AlterAdminUser->_HiSpeedScan0
  1908 ;;   _ControlAccess->_HiSpeedScan0
  1909 ;;   _EraseAllUsersAfterAdminConfirm->_HiSpeedScan0
  1910 ;;   _menu->_LcdPrint
  1911 ;;   _AddNewUser->_AddUserC
  1912 ;;   _HiSpeedScan0->_HiSpeedScan
  1913 ;;   _AddUserC->_FillUpResponse
  1914 ;;   _AddUserB->_FillUpResponse
  1915 ;;   _AddUserA->_FillUpResponse
  1916 ;;   _HiSpeedScan->_FillUpResponse
  1917 ;;   _GenCharacterFileFromImage->_FillUpResponse
  1918 ;;   _ScanForImage->_FillUpResponse
  1919 ;;   _VerifyPswd->_FillUpResponse
  1920 ;;   _DeleteUser->_FillUpResponse
  1921 ;;   _EraseAllUsers->_FillUpResponse
  1922 ;;   _LcdPrint->_UploadLcdBuffer
  1923 ;;   _sendPackage->_SendUartValue
  1924 ;;   _KeyScan->_PutKey
  1925 ;;   _DecToStr->_TotDigits
  1926 ;;   _UploadLcdBuffer->_SendByte
  1927 ;;   _LcdClear->_memset1
  1928 ;;   _TotDigits->___lldiv
  1929 ;;   _reserveEElocation->_ee_write
  1930 ;;   _FillUpResponse->_ToggleEndianFormat
  1931 ;;   _SendUartValue->_SendUartByte
  1932 ;;   _PutKey->_LcdDelay
  1933 ;;   _releaseEElocation->_ee_write
  1934 ;;   _getNextAvailLocation->_ee_read
  1935 ;;   _ee_eraseNPos->_ee_write
  1936 ;;   _Delay->___lmul
  1937 ;;   _SendByte->_LcdDelay
  1938 ;;   _ee_write->_ee_read
  1939 ;;
  1940 ;; Critical Paths under _isr in BANK0
  1941 ;;
  1942 ;;   None.
  1943 ;;
  1944 ;; Critical Paths under _main in BANK1
  1945 ;;
  1946 ;;   _main->_AddNewUserAfterAdminConfirm
  1947 ;;
  1948 ;; Critical Paths under _isr in BANK1
  1949 ;;
  1950 ;;   None.
  1951 ;;
  1952 ;; Critical Paths under _main in BANK3
  1953 ;;
  1954 ;;   _main->_DeleteUserAfterAdminConfirm
  1955 ;;
  1956 ;; Critical Paths under _isr in BANK3
  1957 ;;
  1958 ;;   None.
  1959 ;;
  1960 ;; Critical Paths under _main in BANK2
  1961 ;;
  1962 ;;   None.
  1963 ;;
  1964 ;; Critical Paths under _isr in BANK2
  1965 ;;
  1966 ;;   None.
  1967                           
  1968 ;;
  1969 ;;Main: autosize = 0, tempsize = 1, incstack = 0, save=0
  1970 ;;
  1971                           
  1972 ;;
  1973 ;;Call Graph Tables:
  1974 ;;
  1975 ;; ---------------------------------------------------------------------------------
  1976 ;; (Depth) Function   	        Calls       Base Space   Used Autos Params    Refs
  1977 ;; ---------------------------------------------------------------------------------
  1978 ;; (0) _main                                                 2     2      0  290826
  1979 ;;                                             78 BANK0      2     2      0
  1980 ;;                            _LcdInit
  1981 ;;                           _LcdPrint
  1982 ;;                              _Delay
  1983 ;;                           _UartInit
  1984 ;;                         _VerifyPswd
  1985 ;;                               _menu
  1986 ;;                      _ControlAccess
  1987 ;;                     _AlterAdminUser
  1988 ;;        _AddNewUserAfterAdminConfirm
  1989 ;;     _EraseAllUsersAfterAdminConfirm
  1990 ;;        _DeleteUserAfterAdminConfirm
  1991 ;; ---------------------------------------------------------------------------------
  1992 ;; (1) _DeleteUserAfterAdminConfirm                         25    25      0   44445
  1993 ;;                                              0 BANK1      5     5      0
  1994 ;;                                              0 BANK3     20    20      0
  1995 ;;                            _ee_read
  1996 ;;                           _LcdClear
  1997 ;;                           _LcdPrint
  1998 ;;                       _HiSpeedScan0
  1999 ;;                              _Delay
  2000 ;;                           _DecToStr
  2001 ;;                            _KeyScan
  2002 ;;                       _IsKeyPending
  2003 ;;                             _GetKey
  2004 ;;                         _DeleteUser
  2005 ;;                  _releaseEElocation
  2006 ;; ---------------------------------------------------------------------------------
  2007 ;; (1) _AddNewUserAfterAdminConfirm                         21    21      0   77019
  2008 ;;                                              0 BANK1     21    21      0
  2009 ;;                            _ee_read
  2010 ;;                           _LcdClear
  2011 ;;                           _LcdPrint
  2012 ;;                       _HiSpeedScan0
  2013 ;;                              _Delay
  2014 ;;               _getNextAvailLocation
  2015 ;;                         _AddNewUser
  2016 ;;                           _DecToStr
  2017 ;; ---------------------------------------------------------------------------------
  2018 ;; (1) _AlterAdminUser                                       5     5      0   80364
  2019 ;;                                             77 BANK0      1     1      0
  2020 ;;                                              0 BANK1      4     4      0
  2021 ;;                            _ee_read
  2022 ;;                           _LcdClear
  2023 ;;                           _LcdPrint
  2024 ;;                       _HiSpeedScan0
  2025 ;;                              _Delay
  2026 ;;                         _DeleteUser
  2027 ;;                         _AddNewUser
  2028 ;; ---------------------------------------------------------------------------------
  2029 ;; (1) _ControlAccess                                       17    17      0   33858
  2030 ;;                                              0 BANK1     17    17      0
  2031 ;;                           _LcdClear
  2032 ;;                           _LcdPrint
  2033 ;;                       _HiSpeedScan0
  2034 ;;                            _memset1
  2035 ;;                           _DecToStr
  2036 ;;                              _Delay
  2037 ;; ---------------------------------------------------------------------------------
  2038 ;; (1) _EraseAllUsersAfterAdminConfirm                       4     4      0   38373
  2039 ;;                                             77 BANK0      1     1      0
  2040 ;;                                              0 BANK1      3     3      0
  2041 ;;                            _ee_read
  2042 ;;                           _LcdClear
  2043 ;;                           _LcdPrint
  2044 ;;                       _HiSpeedScan0
  2045 ;;                              _Delay
  2046 ;;                      _EraseAllUsers
  2047 ;;                       _ee_eraseNPos
  2048 ;;                           _ee_write
  2049 ;; ---------------------------------------------------------------------------------
  2050 ;; (1) _menu                                                 4     2      2    3747
  2051 ;;                                             19 BANK0      4     2      2
  2052 ;;                           _LcdClear
  2053 ;;                           _LcdPrint
  2054 ;;                            _KeyScan
  2055 ;;                       _IsKeyPending
  2056 ;;                             _GetKey
  2057 ;; ---------------------------------------------------------------------------------
  2058 ;; (2) _AddNewUser                                           3     3      0   42252
  2059 ;;                                             67 BANK0      3     3      0
  2060 ;;                            _KeyScan
  2061 ;;                       _IsKeyPending
  2062 ;;                             _GetKey
  2063 ;;                       _ScanForImage
  2064 ;;          _GenCharacterFileFromImage
  2065 ;;                           _AddUserA
  2066 ;;                           _AddUserB
  2067 ;;                           _AddUserC
  2068 ;;                  _reserveEElocation
  2069 ;; ---------------------------------------------------------------------------------
  2070 ;; (2) _HiSpeedScan0                                         4     2      2   25380
  2071 ;;                                             73 BANK0      4     2      2
  2072 ;;                            _KeyScan
  2073 ;;                       _IsKeyPending
  2074 ;;                             _GetKey
  2075 ;;                       _ScanForImage
  2076 ;;          _GenCharacterFileFromImage
  2077 ;;                        _HiSpeedScan
  2078 ;; ---------------------------------------------------------------------------------
  2079 ;; (3) _AddUserC                                            10    10      0    8316
  2080 ;;                                             57 BANK0     10    10      0
  2081 ;;                    _ClearUartBuffer
  2082 ;;                        _sendPackage
  2083 ;;                     _FillUpResponse
  2084 ;; ---------------------------------------------------------------------------------
  2085 ;; (3) _AddUserB                                             6     6      0    8100
  2086 ;;                                             57 BANK0      6     6      0
  2087 ;;                    _ClearUartBuffer
  2088 ;;                        _sendPackage
  2089 ;;                     _FillUpResponse
  2090 ;; ---------------------------------------------------------------------------------
  2091 ;; (3) _AddUserA                                             6     6      0    8100
  2092 ;;                                             57 BANK0      6     6      0
  2093 ;;                    _ClearUartBuffer
  2094 ;;                        _sendPackage
  2095 ;;                     _FillUpResponse
  2096 ;; ---------------------------------------------------------------------------------
  2097 ;; (3) _HiSpeedScan                                         16    14      2    8382
  2098 ;;                                             57 BANK0     16    14      2
  2099 ;;                    _ClearUartBuffer
  2100 ;;                        _sendPackage
  2101 ;;                     _FillUpResponse
  2102 ;; ---------------------------------------------------------------------------------
  2103 ;; (3) _GenCharacterFileFromImage                            6     6      0    8100
  2104 ;;                                             57 BANK0      6     6      0
  2105 ;;                    _ClearUartBuffer
  2106 ;;                        _sendPackage
  2107 ;;                     _FillUpResponse
  2108 ;; ---------------------------------------------------------------------------------
  2109 ;; (3) _ScanForImage                                         5     5      0    8100
  2110 ;;                                             57 BANK0      5     5      0
  2111 ;;                    _ClearUartBuffer
  2112 ;;                        _sendPackage
  2113 ;;                     _FillUpResponse
  2114 ;; ---------------------------------------------------------------------------------
  2115 ;; (1) _VerifyPswd                                           5     5      0    7950
  2116 ;;                                             57 BANK0      5     5      0
  2117 ;;                    _ClearUartBuffer
  2118 ;;                        _sendPackage
  2119 ;;                     _FillUpResponse
  2120 ;; ---------------------------------------------------------------------------------
  2121 ;; (2) _DeleteUser                                          10    10      0    8316
  2122 ;;                                             57 BANK0     10    10      0
  2123 ;;                    _ClearUartBuffer
  2124 ;;                        _sendPackage
  2125 ;;                     _FillUpResponse
  2126 ;; ---------------------------------------------------------------------------------
  2127 ;; (2) _EraseAllUsers                                        6     6      0    8100
  2128 ;;                                             57 BANK0      6     6      0
  2129 ;;                    _ClearUartBuffer
  2130 ;;                        _sendPackage
  2131 ;;                     _FillUpResponse
  2132 ;; ---------------------------------------------------------------------------------
  2133 ;; (2) _LcdPrint                                             8     4      4    1842
  2134 ;;                                             11 BANK0      8     4      4
  2135 ;;                    _UploadLcdBuffer
  2136 ;; ---------------------------------------------------------------------------------
  2137 ;; (1) _LcdInit                                              1     1      0    1431
  2138 ;;                                              8 BANK0      1     1      0
  2139 ;;                           _LcdDelay
  2140 ;;                           _SendByte
  2141 ;;                           _LcdClear
  2142 ;; ---------------------------------------------------------------------------------
  2143 ;; (3) _sendPackage                                         14    11      3    1476
  2144 ;;                                             11 BANK0     14    11      3
  2145 ;;                      _SendUartValue
  2146 ;;                       _SendUartByte
  2147 ;; ---------------------------------------------------------------------------------
  2148 ;; (2) _KeyScan                                              2     2      0     474
  2149 ;;                                              4 BANK0      2     2      0
  2150 ;;                             _PutKey
  2151 ;; ---------------------------------------------------------------------------------
  2152 ;; (2) _DecToStr                                            11     4      7    3654
  2153 ;;                                             20 BANK0     11     4      7
  2154 ;;                          _TotDigits
  2155 ;;                            ___llmod
  2156 ;;                            ___lldiv
  2157 ;; ---------------------------------------------------------------------------------
  2158 ;; (3) _UploadLcdBuffer                                      6     6      0    1083
  2159 ;;                                              5 BANK0      6     6      0
  2160 ;;                           _SendByte
  2161 ;; ---------------------------------------------------------------------------------
  2162 ;; (2) _LcdClear                                             0     0      0     846
  2163 ;;                            _memset1
  2164 ;;                           _SendByte
  2165 ;; ---------------------------------------------------------------------------------
  2166 ;; (3) _TotDigits                                            6     2      4    1101
  2167 ;;                                             14 BANK0      6     2      4
  2168 ;;                            ___lldiv
  2169 ;; ---------------------------------------------------------------------------------
  2170 ;; (3) _reserveEElocation                                    2     2      0     543
  2171 ;;                                              5 BANK0      2     2      0
  2172 ;;                           _ee_write
  2173 ;;                            _ee_read
  2174 ;; ---------------------------------------------------------------------------------
  2175 ;; (3) _FillUpResponse                                      34    33      1    5784
  2176 ;;                                             23 BANK0     34    33      1
  2177 ;;                            _memset1
  2178 ;;                  _IsUartBytePending
  2179 ;;                        _GetUartByte
  2180 ;;                 _ToggleEndianFormat
  2181 ;; ---------------------------------------------------------------------------------
  2182 ;; (4) _SendUartValue                                       10     5      5     717
  2183 ;;                                              1 BANK0     10     5      5
  2184 ;;                       _SendUartByte
  2185 ;; ---------------------------------------------------------------------------------
  2186 ;; (3) _PutKey                                               2     2      0     195
  2187 ;;                                              2 BANK0      2     2      0
  2188 ;;                           _LcdDelay
  2189 ;; ---------------------------------------------------------------------------------
  2190 ;; (2) _releaseEElocation                                    2     2      0     543
  2191 ;;                                              5 BANK0      2     2      0
  2192 ;;                           _ee_write
  2193 ;;                            _ee_read
  2194 ;; ---------------------------------------------------------------------------------
  2195 ;; (2) _getNextAvailLocation                                 3     3      0     606
  2196 ;;                                              3 BANK0      3     3      0
  2197 ;;                            _ee_read
  2198 ;; ---------------------------------------------------------------------------------
  2199 ;; (2) _ee_eraseNPos                                         3     3      0     498
  2200 ;;                                              5 BANK0      3     3      0
  2201 ;;                           _ee_write
  2202 ;; ---------------------------------------------------------------------------------
  2203 ;; (2) _Delay                                               10     8      2     735
  2204 ;;                                             13 BANK0     10     8      2
  2205 ;;                             ___lmul
  2206 ;; ---------------------------------------------------------------------------------
  2207 ;; (4) _SendByte                                             3     2      1     477
  2208 ;;                                              2 BANK0      3     2      1
  2209 ;;                           _LcdDelay
  2210 ;; ---------------------------------------------------------------------------------
  2211 ;; (3) ___lldiv                                             14     6      8     777
  2212 ;;                                              0 BANK0     14     6      8
  2213 ;; ---------------------------------------------------------------------------------
  2214 ;; (3) ___llmod                                             10     2      8     714
  2215 ;;                                              0 BANK0     10     2      8
  2216 ;; ---------------------------------------------------------------------------------
  2217 ;; (3) ___lmul                                              13     5      8     432
  2218 ;;                                              0 BANK0     13     5      8
  2219 ;; ---------------------------------------------------------------------------------
  2220 ;; (4) _ToggleEndianFormat                                  23    18      5    1086
  2221 ;;                                              0 BANK0     23    18      5
  2222 ;; ---------------------------------------------------------------------------------
  2223 ;; (4) _GetUartByte                                          2     2      0     108
  2224 ;;                                              0 BANK0      2     2      0
  2225 ;; ---------------------------------------------------------------------------------
  2226 ;; (4) _IsUartBytePending                                    0     0      0       0
  2227 ;; ---------------------------------------------------------------------------------
  2228 ;; (3) _ClearUartBuffer                                      2     2      0     303
  2229 ;;                                              0 BANK0      2     2      0
  2230 ;; ---------------------------------------------------------------------------------
  2231 ;; (4) _SendUartByte                                         1     1      0      87
  2232 ;;                                              0 BANK0      1     1      0
  2233 ;; ---------------------------------------------------------------------------------
  2234 ;; (1) _UartInit                                             0     0      0       0
  2235 ;; ---------------------------------------------------------------------------------
  2236 ;; (2) _GetKey                                               2     2      0     108
  2237 ;;                                              0 BANK0      2     2      0
  2238 ;; ---------------------------------------------------------------------------------
  2239 ;; (2) _IsKeyPending                                         0     0      0       0
  2240 ;; ---------------------------------------------------------------------------------
  2241 ;; (3) _ee_write                                             2     1      1     174
  2242 ;;                                              3 BANK0      2     1      1
  2243 ;;                            _ee_read (ARG)
  2244 ;; ---------------------------------------------------------------------------------
  2245 ;; (3) _ee_read                                              3     3      0     195
  2246 ;;                                              0 BANK0      3     3      0
  2247 ;; ---------------------------------------------------------------------------------
  2248 ;; (4) _memset1                                              8     3      5     369
  2249 ;;                                              0 BANK0      8     3      5
  2250 ;; ---------------------------------------------------------------------------------
  2251 ;; (4) _LcdDelay                                             2     0      2     108
  2252 ;;                                              0 BANK0      2     0      2
  2253 ;; ---------------------------------------------------------------------------------
  2254 ;; Estimated maximum stack depth 4
  2255 ;; ---------------------------------------------------------------------------------
  2256 ;; (Depth) Function   	        Calls       Base Space   Used Autos Params    Refs
  2257 ;; ---------------------------------------------------------------------------------
  2258 ;; (7) _isr                                                  4     4      0      22
  2259 ;;                                              2 COMMON     4     4      0
  2260 ;;                        _PutUartByte
  2261 ;; ---------------------------------------------------------------------------------
  2262 ;; (8) _PutUartByte                                          2     2      0      22
  2263 ;;                                              0 COMMON     2     2      0
  2264 ;; ---------------------------------------------------------------------------------
  2265 ;; Estimated maximum stack depth 8
  2266 ;; ---------------------------------------------------------------------------------
  2267                           
  2268 ;; Call Graph Graphs:
  2269                           
  2270 ;; _main (ROOT)
  2271 ;;   _LcdInit
  2272 ;;     _LcdDelay
  2273 ;;     _SendByte
  2274 ;;       _LcdDelay
  2275 ;;     _LcdClear
  2276 ;;       _memset1
  2277 ;;       _SendByte
  2278 ;;         _LcdDelay
  2279 ;;   _LcdPrint
  2280 ;;     _UploadLcdBuffer
  2281 ;;       _SendByte
  2282 ;;         _LcdDelay
  2283 ;;   _Delay
  2284 ;;     ___lmul
  2285 ;;   _UartInit
  2286 ;;   _VerifyPswd
  2287 ;;     _ClearUartBuffer
  2288 ;;     _sendPackage
  2289 ;;       _SendUartValue
  2290 ;;         _SendUartByte
  2291 ;;       _SendUartByte
  2292 ;;     _FillUpResponse
  2293 ;;       _memset1
  2294 ;;       _IsUartBytePending
  2295 ;;       _GetUartByte
  2296 ;;       _ToggleEndianFormat
  2297 ;;   _menu
  2298 ;;     _LcdClear
  2299 ;;       _memset1
  2300 ;;       _SendByte
  2301 ;;         _LcdDelay
  2302 ;;     _LcdPrint
  2303 ;;       _UploadLcdBuffer
  2304 ;;         _SendByte
  2305 ;;           _LcdDelay
  2306 ;;     _KeyScan
  2307 ;;       _PutKey
  2308 ;;         _LcdDelay
  2309 ;;     _IsKeyPending
  2310 ;;     _GetKey
  2311 ;;   _ControlAccess
  2312 ;;     _LcdClear
  2313 ;;       _memset1
  2314 ;;       _SendByte
  2315 ;;         _LcdDelay
  2316 ;;     _LcdPrint
  2317 ;;       _UploadLcdBuffer
  2318 ;;         _SendByte
  2319 ;;           _LcdDelay
  2320 ;;     _HiSpeedScan0
  2321 ;;       _KeyScan
  2322 ;;         _PutKey
  2323 ;;           _LcdDelay
  2324 ;;       _IsKeyPending
  2325 ;;       _GetKey
  2326 ;;       _ScanForImage
  2327 ;;         _ClearUartBuffer
  2328 ;;         _sendPackage
  2329 ;;           _SendUartValue
  2330 ;;             _SendUartByte
  2331 ;;           _SendUartByte
  2332 ;;         _FillUpResponse
  2333 ;;           _memset1
  2334 ;;           _IsUartBytePending
  2335 ;;           _GetUartByte
  2336 ;;           _ToggleEndianFormat
  2337 ;;       _GenCharacterFileFromImage
  2338 ;;         _ClearUartBuffer
  2339 ;;         _sendPackage
  2340 ;;           _SendUartValue
  2341 ;;             _SendUartByte
  2342 ;;           _SendUartByte
  2343 ;;         _FillUpResponse
  2344 ;;           _memset1
  2345 ;;           _IsUartBytePending
  2346 ;;           _GetUartByte
  2347 ;;           _ToggleEndianFormat
  2348 ;;       _HiSpeedScan
  2349 ;;         _ClearUartBuffer
  2350 ;;         _sendPackage
  2351 ;;           _SendUartValue
  2352 ;;             _SendUartByte
  2353 ;;           _SendUartByte
  2354 ;;         _FillUpResponse
  2355 ;;           _memset1
  2356 ;;           _IsUartBytePending
  2357 ;;           _GetUartByte
  2358 ;;           _ToggleEndianFormat
  2359 ;;     _memset1
  2360 ;;     _DecToStr
  2361 ;;       _TotDigits
  2362 ;;         ___lldiv
  2363 ;;       ___llmod
  2364 ;;       ___lldiv
  2365 ;;     _Delay
  2366 ;;       ___lmul
  2367 ;;   _AlterAdminUser
  2368 ;;     _ee_read
  2369 ;;     _LcdClear
  2370 ;;       _memset1
  2371 ;;       _SendByte
  2372 ;;         _LcdDelay
  2373 ;;     _LcdPrint
  2374 ;;       _UploadLcdBuffer
  2375 ;;         _SendByte
  2376 ;;           _LcdDelay
  2377 ;;     _HiSpeedScan0
  2378 ;;       _KeyScan
  2379 ;;         _PutKey
  2380 ;;           _LcdDelay
  2381 ;;       _IsKeyPending
  2382 ;;       _GetKey
  2383 ;;       _ScanForImage
  2384 ;;         _ClearUartBuffer
  2385 ;;         _sendPackage
  2386 ;;           _SendUartValue
  2387 ;;             _SendUartByte
  2388 ;;           _SendUartByte
  2389 ;;         _FillUpResponse
  2390 ;;           _memset1
  2391 ;;           _IsUartBytePending
  2392 ;;           _GetUartByte
  2393 ;;           _ToggleEndianFormat
  2394 ;;       _GenCharacterFileFromImage
  2395 ;;         _ClearUartBuffer
  2396 ;;         _sendPackage
  2397 ;;           _SendUartValue
  2398 ;;             _SendUartByte
  2399 ;;           _SendUartByte
  2400 ;;         _FillUpResponse
  2401 ;;           _memset1
  2402 ;;           _IsUartBytePending
  2403 ;;           _GetUartByte
  2404 ;;           _ToggleEndianFormat
  2405 ;;       _HiSpeedScan
  2406 ;;         _ClearUartBuffer
  2407 ;;         _sendPackage
  2408 ;;           _SendUartValue
  2409 ;;             _SendUartByte
  2410 ;;           _SendUartByte
  2411 ;;         _FillUpResponse
  2412 ;;           _memset1
  2413 ;;           _IsUartBytePending
  2414 ;;           _GetUartByte
  2415 ;;           _ToggleEndianFormat
  2416 ;;     _Delay
  2417 ;;       ___lmul
  2418 ;;     _DeleteUser
  2419 ;;       _ClearUartBuffer
  2420 ;;       _sendPackage
  2421 ;;         _SendUartValue
  2422 ;;           _SendUartByte
  2423 ;;         _SendUartByte
  2424 ;;       _FillUpResponse
  2425 ;;         _memset1
  2426 ;;         _IsUartBytePending
  2427 ;;         _GetUartByte
  2428 ;;         _ToggleEndianFormat
  2429 ;;     _AddNewUser
  2430 ;;       _KeyScan
  2431 ;;         _PutKey
  2432 ;;           _LcdDelay
  2433 ;;       _IsKeyPending
  2434 ;;       _GetKey
  2435 ;;       _ScanForImage
  2436 ;;         _ClearUartBuffer
  2437 ;;         _sendPackage
  2438 ;;           _SendUartValue
  2439 ;;             _SendUartByte
  2440 ;;           _SendUartByte
  2441 ;;         _FillUpResponse
  2442 ;;           _memset1
  2443 ;;           _IsUartBytePending
  2444 ;;           _GetUartByte
  2445 ;;           _ToggleEndianFormat
  2446 ;;       _GenCharacterFileFromImage
  2447 ;;         _ClearUartBuffer
  2448 ;;         _sendPackage
  2449 ;;           _SendUartValue
  2450 ;;             _SendUartByte
  2451 ;;           _SendUartByte
  2452 ;;         _FillUpResponse
  2453 ;;           _memset1
  2454 ;;           _IsUartBytePending
  2455 ;;           _GetUartByte
  2456 ;;           _ToggleEndianFormat
  2457 ;;       _AddUserA
  2458 ;;         _ClearUartBuffer
  2459 ;;         _sendPackage
  2460 ;;           _SendUartValue
  2461 ;;             _SendUartByte
  2462 ;;           _SendUartByte
  2463 ;;         _FillUpResponse
  2464 ;;           _memset1
  2465 ;;           _IsUartBytePending
  2466 ;;           _GetUartByte
  2467 ;;           _ToggleEndianFormat
  2468 ;;       _AddUserB
  2469 ;;         _ClearUartBuffer
  2470 ;;         _sendPackage
  2471 ;;           _SendUartValue
  2472 ;;             _SendUartByte
  2473 ;;           _SendUartByte
  2474 ;;         _FillUpResponse
  2475 ;;           _memset1
  2476 ;;           _IsUartBytePending
  2477 ;;           _GetUartByte
  2478 ;;           _ToggleEndianFormat
  2479 ;;       _AddUserC
  2480 ;;         _ClearUartBuffer
  2481 ;;         _sendPackage
  2482 ;;           _SendUartValue
  2483 ;;             _SendUartByte
  2484 ;;           _SendUartByte
  2485 ;;         _FillUpResponse
  2486 ;;           _memset1
  2487 ;;           _IsUartBytePending
  2488 ;;           _GetUartByte
  2489 ;;           _ToggleEndianFormat
  2490 ;;       _reserveEElocation
  2491 ;;         _ee_write
  2492 ;;           _ee_read (ARG)
  2493 ;;         _ee_read
  2494 ;;   _AddNewUserAfterAdminConfirm
  2495 ;;     _ee_read
  2496 ;;     _LcdClear
  2497 ;;       _memset1
  2498 ;;       _SendByte
  2499 ;;         _LcdDelay
  2500 ;;     _LcdPrint
  2501 ;;       _UploadLcdBuffer
  2502 ;;         _SendByte
  2503 ;;           _LcdDelay
  2504 ;;     _HiSpeedScan0
  2505 ;;       _KeyScan
  2506 ;;         _PutKey
  2507 ;;           _LcdDelay
  2508 ;;       _IsKeyPending
  2509 ;;       _GetKey
  2510 ;;       _ScanForImage
  2511 ;;         _ClearUartBuffer
  2512 ;;         _sendPackage
  2513 ;;           _SendUartValue
  2514 ;;             _SendUartByte
  2515 ;;           _SendUartByte
  2516 ;;         _FillUpResponse
  2517 ;;           _memset1
  2518 ;;           _IsUartBytePending
  2519 ;;           _GetUartByte
  2520 ;;           _ToggleEndianFormat
  2521 ;;       _GenCharacterFileFromImage
  2522 ;;         _ClearUartBuffer
  2523 ;;         _sendPackage
  2524 ;;           _SendUartValue
  2525 ;;             _SendUartByte
  2526 ;;           _SendUartByte
  2527 ;;         _FillUpResponse
  2528 ;;           _memset1
  2529 ;;           _IsUartBytePending
  2530 ;;           _GetUartByte
  2531 ;;           _ToggleEndianFormat
  2532 ;;       _HiSpeedScan
  2533 ;;         _ClearUartBuffer
  2534 ;;         _sendPackage
  2535 ;;           _SendUartValue
  2536 ;;             _SendUartByte
  2537 ;;           _SendUartByte
  2538 ;;         _FillUpResponse
  2539 ;;           _memset1
  2540 ;;           _IsUartBytePending
  2541 ;;           _GetUartByte
  2542 ;;           _ToggleEndianFormat
  2543 ;;     _Delay
  2544 ;;       ___lmul
  2545 ;;     _getNextAvailLocation
  2546 ;;       _ee_read
  2547 ;;     _AddNewUser
  2548 ;;       _KeyScan
  2549 ;;         _PutKey
  2550 ;;           _LcdDelay
  2551 ;;       _IsKeyPending
  2552 ;;       _GetKey
  2553 ;;       _ScanForImage
  2554 ;;         _ClearUartBuffer
  2555 ;;         _sendPackage
  2556 ;;           _SendUartValue
  2557 ;;             _SendUartByte
  2558 ;;           _SendUartByte
  2559 ;;         _FillUpResponse
  2560 ;;           _memset1
  2561 ;;           _IsUartBytePending
  2562 ;;           _GetUartByte
  2563 ;;           _ToggleEndianFormat
  2564 ;;       _GenCharacterFileFromImage
  2565 ;;         _ClearUartBuffer
  2566 ;;         _sendPackage
  2567 ;;           _SendUartValue
  2568 ;;             _SendUartByte
  2569 ;;           _SendUartByte
  2570 ;;         _FillUpResponse
  2571 ;;           _memset1
  2572 ;;           _IsUartBytePending
  2573 ;;           _GetUartByte
  2574 ;;           _ToggleEndianFormat
  2575 ;;       _AddUserA
  2576 ;;         _ClearUartBuffer
  2577 ;;         _sendPackage
  2578 ;;           _SendUartValue
  2579 ;;             _SendUartByte
  2580 ;;           _SendUartByte
  2581 ;;         _FillUpResponse
  2582 ;;           _memset1
  2583 ;;           _IsUartBytePending
  2584 ;;           _GetUartByte
  2585 ;;           _ToggleEndianFormat
  2586 ;;       _AddUserB
  2587 ;;         _ClearUartBuffer
  2588 ;;         _sendPackage
  2589 ;;           _SendUartValue
  2590 ;;             _SendUartByte
  2591 ;;           _SendUartByte
  2592 ;;         _FillUpResponse
  2593 ;;           _memset1
  2594 ;;           _IsUartBytePending
  2595 ;;           _GetUartByte
  2596 ;;           _ToggleEndianFormat
  2597 ;;       _AddUserC
  2598 ;;         _ClearUartBuffer
  2599 ;;         _sendPackage
  2600 ;;           _SendUartValue
  2601 ;;             _SendUartByte
  2602 ;;           _SendUartByte
  2603 ;;         _FillUpResponse
  2604 ;;           _memset1
  2605 ;;           _IsUartBytePending
  2606 ;;           _GetUartByte
  2607 ;;           _ToggleEndianFormat
  2608 ;;       _reserveEElocation
  2609 ;;         _ee_write
  2610 ;;           _ee_read (ARG)
  2611 ;;         _ee_read
  2612 ;;     _DecToStr
  2613 ;;       _TotDigits
  2614 ;;         ___lldiv
  2615 ;;       ___llmod
  2616 ;;       ___lldiv
  2617 ;;   _EraseAllUsersAfterAdminConfirm
  2618 ;;     _ee_read
  2619 ;;     _LcdClear
  2620 ;;       _memset1
  2621 ;;       _SendByte
  2622 ;;         _LcdDelay
  2623 ;;     _LcdPrint
  2624 ;;       _UploadLcdBuffer
  2625 ;;         _SendByte
  2626 ;;           _LcdDelay
  2627 ;;     _HiSpeedScan0
  2628 ;;       _KeyScan
  2629 ;;         _PutKey
  2630 ;;           _LcdDelay
  2631 ;;       _IsKeyPending
  2632 ;;       _GetKey
  2633 ;;       _ScanForImage
  2634 ;;         _ClearUartBuffer
  2635 ;;         _sendPackage
  2636 ;;           _SendUartValue
  2637 ;;             _SendUartByte
  2638 ;;           _SendUartByte
  2639 ;;         _FillUpResponse
  2640 ;;           _memset1
  2641 ;;           _IsUartBytePending
  2642 ;;           _GetUartByte
  2643 ;;           _ToggleEndianFormat
  2644 ;;       _GenCharacterFileFromImage
  2645 ;;         _ClearUartBuffer
  2646 ;;         _sendPackage
  2647 ;;           _SendUartValue
  2648 ;;             _SendUartByte
  2649 ;;           _SendUartByte
  2650 ;;         _FillUpResponse
  2651 ;;           _memset1
  2652 ;;           _IsUartBytePending
  2653 ;;           _GetUartByte
  2654 ;;           _ToggleEndianFormat
  2655 ;;       _HiSpeedScan
  2656 ;;         _ClearUartBuffer
  2657 ;;         _sendPackage
  2658 ;;           _SendUartValue
  2659 ;;             _SendUartByte
  2660 ;;           _SendUartByte
  2661 ;;         _FillUpResponse
  2662 ;;           _memset1
  2663 ;;           _IsUartBytePending
  2664 ;;           _GetUartByte
  2665 ;;           _ToggleEndianFormat
  2666 ;;     _Delay
  2667 ;;       ___lmul
  2668 ;;     _EraseAllUsers
  2669 ;;       _ClearUartBuffer
  2670 ;;       _sendPackage
  2671 ;;         _SendUartValue
  2672 ;;           _SendUartByte
  2673 ;;         _SendUartByte
  2674 ;;       _FillUpResponse
  2675 ;;         _memset1
  2676 ;;         _IsUartBytePending
  2677 ;;         _GetUartByte
  2678 ;;         _ToggleEndianFormat
  2679 ;;     _ee_eraseNPos
  2680 ;;       _ee_write
  2681 ;;         _ee_read (ARG)
  2682 ;;     _ee_write
  2683 ;;       _ee_read (ARG)
  2684 ;;   _DeleteUserAfterAdminConfirm
  2685 ;;     _ee_read
  2686 ;;     _LcdClear
  2687 ;;       _memset1
  2688 ;;       _SendByte
  2689 ;;         _LcdDelay
  2690 ;;     _LcdPrint
  2691 ;;       _UploadLcdBuffer
  2692 ;;         _SendByte
  2693 ;;           _LcdDelay
  2694 ;;     _HiSpeedScan0
  2695 ;;       _KeyScan
  2696 ;;         _PutKey
  2697 ;;           _LcdDelay
  2698 ;;       _IsKeyPending
  2699 ;;       _GetKey
  2700 ;;       _ScanForImage
  2701 ;;         _ClearUartBuffer
  2702 ;;         _sendPackage
  2703 ;;           _SendUartValue
  2704 ;;             _SendUartByte
  2705 ;;           _SendUartByte
  2706 ;;         _FillUpResponse
  2707 ;;           _memset1
  2708 ;;           _IsUartBytePending
  2709 ;;           _GetUartByte
  2710 ;;           _ToggleEndianFormat
  2711 ;;       _GenCharacterFileFromImage
  2712 ;;         _ClearUartBuffer
  2713 ;;         _sendPackage
  2714 ;;           _SendUartValue
  2715 ;;             _SendUartByte
  2716 ;;           _SendUartByte
  2717 ;;         _FillUpResponse
  2718 ;;           _memset1
  2719 ;;           _IsUartBytePending
  2720 ;;           _GetUartByte
  2721 ;;           _ToggleEndianFormat
  2722 ;;       _HiSpeedScan
  2723 ;;         _ClearUartBuffer
  2724 ;;         _sendPackage
  2725 ;;           _SendUartValue
  2726 ;;             _SendUartByte
  2727 ;;           _SendUartByte
  2728 ;;         _FillUpResponse
  2729 ;;           _memset1
  2730 ;;           _IsUartBytePending
  2731 ;;           _GetUartByte
  2732 ;;           _ToggleEndianFormat
  2733 ;;     _Delay
  2734 ;;       ___lmul
  2735 ;;     _DecToStr
  2736 ;;       _TotDigits
  2737 ;;         ___lldiv
  2738 ;;       ___llmod
  2739 ;;       ___lldiv
  2740 ;;     _KeyScan
  2741 ;;       _PutKey
  2742 ;;         _LcdDelay
  2743 ;;     _IsKeyPending
  2744 ;;     _GetKey
  2745 ;;     _DeleteUser
  2746 ;;       _ClearUartBuffer
  2747 ;;       _sendPackage
  2748 ;;         _SendUartValue
  2749 ;;           _SendUartByte
  2750 ;;         _SendUartByte
  2751 ;;       _FillUpResponse
  2752 ;;         _memset1
  2753 ;;         _IsUartBytePending
  2754 ;;         _GetUartByte
  2755 ;;         _ToggleEndianFormat
  2756 ;;     _releaseEElocation
  2757 ;;       _ee_write
  2758 ;;         _ee_read (ARG)
  2759 ;;       _ee_read
  2760 ;;
  2761 ;; _isr (ROOT)
  2762 ;;   _PutUartByte
  2763 ;;
  2764                           
  2765 ;; Address spaces:
  2766                           
  2767 ;;Name               Size   Autos  Total    Cost      Usage
  2768 ;;BANK3               60     14      4D       9       80.2%
  2769 ;;BITBANK3            60      0       0       8        0.0%
  2770 ;;SFR3                 0      0       0       4        0.0%
  2771 ;;BITSFR3              0      0       0       4        0.0%
  2772 ;;BANK2               60      0      60      11      100.0%
  2773 ;;BITBANK2            60      0       0      10        0.0%
  2774 ;;SFR2                 0      0       0       5        0.0%
  2775 ;;BITSFR2              0      0       0       5        0.0%
  2776 ;;SFR1                 0      0       0       2        0.0%
  2777 ;;BITSFR1              0      0       0       2        0.0%
  2778 ;;BANK1               50     15      4C       7       95.0%
  2779 ;;BITBANK1            50      0       0       6        0.0%
  2780 ;;CODE                 0      0       0       0        0.0%
  2781 ;;DATA                 0      0     15F      12        0.0%
  2782 ;;ABS                  0      0     155       3        0.0%
  2783 ;;NULL                 0      0       0       0        0.0%
  2784 ;;STACK                0      0       A       2        0.0%
  2785 ;;BANK0               50     50      50       5      100.0%
  2786 ;;BITBANK0            50      0       0       4        0.0%
  2787 ;;SFR0                 0      0       0       1        0.0%
  2788 ;;BITSFR0              0      0       0       1        0.0%
  2789 ;;COMMON               E      6       C       1       85.7%
  2790 ;;BITCOMMON            E      0       0       0        0.0%
  2791 ;;EEDATA             100      0       0       0        0.0%
  2792                           
  2793                           	global	_main
  2794                           psect	maintext,global,class=CODE,delta=2
  2795                           global __pmaintext
  2796  06DD                     __pmaintext:
  2797                           
  2798 ;; *************** function _main *****************
  2799 ;; Defined at:
  2800 ;;		line 335 in file "C:\Users\GauravLT\Desktop\Finger Print Sensor\R307\PIC16F877A_R307\main.c"
  2801 ;; Parameters:    Size  Location     Type
  2802 ;;		None
  2803 ;; Auto vars:     Size  Location     Type
  2804 ;;  menuResponse    1   79[BANK0 ] unsigned char 
  2805 ;; Return value:  Size  Location     Type
  2806 ;;		None               void
  2807 ;; Registers used:
  2808 ;;		wreg, fsr0l, fsr0h, status,2, status,0, btemp+1, pclath, cstack
  2809 ;; Tracked objects:
  2810 ;;		On entry : 17F/0
  2811 ;;		On exit  : 0/0
  2812 ;;		Unchanged: 0/0
  2813 ;; Data sizes:     COMMON   BANK0   BANK1   BANK3   BANK2
  2814 ;;      Params:         0       0       0       0       0
  2815 ;;      Locals:         0       1       0       0       0
  2816 ;;      Temps:          0       1       0       0       0
  2817 ;;      Totals:         0       2       0       0       0
  2818 ;;Total ram usage:        2 bytes
  2819 ;; Hardware stack levels required when called:    8
  2820 ;; This function calls:
  2821 ;;		_LcdInit
  2822 ;;		_LcdPrint
  2823 ;;		_Delay
  2824 ;;		_UartInit
  2825 ;;		_VerifyPswd
  2826 ;;		_menu
  2827 ;;		_ControlAccess
  2828 ;;		_AlterAdminUser
  2829 ;;		_AddNewUserAfterAdminConfirm
  2830 ;;		_EraseAllUsersAfterAdminConfirm
  2831 ;;		_DeleteUserAfterAdminConfirm
  2832 ;; This function is called by:
  2833 ;;		Startup code after reset
  2834 ;; This function uses a non-reentrant model
  2835 ;;
  2836                           psect	maintext
  2837                           	file	"C:\Users\GauravLT\Desktop\Finger Print Sensor\R307\PIC16F877A_R307\main.c"
  2838                           	line	335
  2839                           	global	__size_of_main
  2840  00FB                     	__size_of_main	equ	__end_of_main-_main
  2841                           	
  2842  06DD                     _main:	
  2843                           	opt	stack 0
  2844                           ; Regs used in _main: [wreg-fsr0h+status,2+status,0+btemp+1+pclath+cstack]
  2845                           	line	336
  2846                           	
  2847  06DD                     l14646:	
  2848                           ;main.c: 336: unsigned char menuResponse=0xFF;
  2849  06DD  30FF               	movlw	(0FFh)
  2850  06DE  1283               	bcf	status, 5	;RP0=0, select bank0
  2851  06DF  1303               	bcf	status, 6	;RP1=0, select bank0
  2852  06E0  00EE               	movwf	(??_main+0)+0
  2853  06E1  086E               	movf	(??_main+0)+0,w
  2854  06E2  00EF               	movwf	(main@menuResponse)
  2855                           	line	338
  2856                           ;main.c: 338: TRISC=0X8F;
  2857  06E3  308F               	movlw	(08Fh)
  2858  06E4  1683               	bsf	status, 5	;RP0=1, select bank1
  2859  06E5  1303               	bcf	status, 6	;RP1=0, select bank1
  2860  06E6  0087               	movwf	(135)^080h	;volatile
  2861                           	line	339
  2862                           	
  2863  06E7                     l14648:	
  2864                           ;main.c: 339: LcdInit();
  2865  06E7  160A  118A  2165   	fcall	_LcdInit
              120A  118A         
  2866                           	line	340
  2867                           	
  2868  06EC                     l14650:	
  2869                           ;main.c: 340: RB1 = 0;
  2870  06EC  1283               	bcf	status, 5	;RP0=0, select bank0
  2871  06ED  1303               	bcf	status, 6	;RP1=0, select bank0
  2872  06EE  1086               	bcf	(49/8),(49)&7
  2873                           	line	341
  2874                           	
  2875  06EF                     l14652:	
  2876                           ;main.c: 341: LcdPrint("Welcome", 0,0);
  2877  06EF  30D5               	movlw	low(STR_30|8000h)
  2878  06F0  00AB               	movwf	(?_LcdPrint)
  2879  06F1  3086               	movlw	high(STR_30|8000h)
  2880  06F2  00AC               	movwf	((?_LcdPrint))+1
  2881  06F3  01AD               	clrf	0+(?_LcdPrint)+02h
  2882  06F4  01AE               	clrf	0+(?_LcdPrint)+03h
  2883  06F5  160A  118A  2723   	fcall	_LcdPrint
              120A  118A         
  2884                           	line	342
  2885                           	
  2886  06FA                     l14654:	
  2887                           ;main.c: 342: Delay(1);
  2888  06FA  3001               	movlw	low(01h)
  2889  06FB  1283               	bcf	status, 5	;RP0=0, select bank0
  2890  06FC  1303               	bcf	status, 6	;RP1=0, select bank0
  2891  06FD  00AD               	movwf	(?_Delay)
  2892  06FE  3000               	movlw	high(01h)
  2893  06FF  00AE               	movwf	((?_Delay))+1
  2894  0700  160A  118A  253F   	fcall	_Delay
              120A  118A         
  2895                           	line	343
  2896                           	
  2897  0705                     l14656:	
  2898                           ;main.c: 343: UartInit();
  2899  0705  160A  158A  27B3   	fcall	_UartInit
              120A  118A         
  2900                           	line	345
  2901                           	
  2902  070A                     l14658:	
  2903                           ;main.c: 345: VerifyPswd();
  2904  070A  160A  118A  21C8   	fcall	_VerifyPswd
              120A  118A         
  2905  070F  2F10               	goto	l14660
  2906                           	line	350
  2907                           ;main.c: 350: while(1)
  2908                           	
  2909  0710                     l1543:	
  2910                           	line	352
  2911                           	
  2912  0710                     l14660:	
  2913                           ;main.c: 351: {
  2914                           ;main.c: 352: menuResponse = menu("1 For Access\n2 For Alter User");
  2915  0710  303F               	movlw	low(STR_31|8000h)
  2916  0711  1283               	bcf	status, 5	;RP0=0, select bank0
  2917  0712  1303               	bcf	status, 6	;RP1=0, select bank0
  2918  0713  00B3               	movwf	(?_menu)
  2919  0714  3085               	movlw	high(STR_31|8000h)
  2920  0715  00B4               	movwf	((?_menu))+1
  2921  0716  160A  118A  249C   	fcall	_menu
              120A  118A         
  2922  071B  1283               	bcf	status, 5	;RP0=0, select bank0
  2923  071C  1303               	bcf	status, 6	;RP1=0, select bank0
  2924  071D  00EE               	movwf	(??_main+0)+0
  2925  071E  086E               	movf	(??_main+0)+0,w
  2926  071F  00EF               	movwf	(main@menuResponse)
  2927                           	line	353
  2928                           ;main.c: 353: if(menuResponse == '1') { ControlAccess();}
  2929  0720  086F               	movf	(main@menuResponse),w
  2930  0721  3A31               	xorlw	031h
  2931  0722  1D03               	skipz
  2932  0723  2F25               	goto	u15141
  2933  0724  2F26               	goto	u15140
  2934  0725                     u15141:
  2935  0725  2F2C               	goto	l14664
  2936  0726                     u15140:
  2937                           	
  2938  0726                     l14662:	
  2939  0726  120A  158A  22D6   	fcall	_ControlAccess
              120A  118A         
  2940  072B  2F10               	goto	l14660
  2941                           	line	354
  2942                           	
  2943  072C                     l1544:	
  2944                           	
  2945  072C                     l14664:	
  2946                           ;main.c: 354: else if(menuResponse == '2')
  2947  072C  1283               	bcf	status, 5	;RP0=0, select bank0
  2948  072D  1303               	bcf	status, 6	;RP1=0, select bank0
  2949  072E  086F               	movf	(main@menuResponse),w
  2950  072F  3A32               	xorlw	032h
  2951  0730  1D03               	skipz
  2952  0731  2F33               	goto	u15151
  2953  0732  2F34               	goto	u15150
  2954  0733                     u15151:
  2955  0733  2F10               	goto	l14660
  2956  0734                     u15150:
  2957  0734  2F35               	goto	l14666
  2958                           	line	356
  2959                           ;main.c: 355: {
  2960                           ;main.c: 356: while(1)
  2961                           	
  2962  0735                     l1547:	
  2963                           	line	358
  2964                           	
  2965  0735                     l14666:	
  2966                           ;main.c: 357: {
  2967                           ;main.c: 358: menuResponse = menu("1 Change Admin\n2 Add/Del User");
  2968  0735  3021               	movlw	low(STR_32|8000h)
  2969  0736  1283               	bcf	status, 5	;RP0=0, select bank0
  2970  0737  1303               	bcf	status, 6	;RP1=0, select bank0
  2971  0738  00B3               	movwf	(?_menu)
  2972  0739  3085               	movlw	high(STR_32|8000h)
  2973  073A  00B4               	movwf	((?_menu))+1
  2974  073B  160A  118A  249C   	fcall	_menu
              120A  118A         
  2975  0740  1283               	bcf	status, 5	;RP0=0, select bank0
  2976  0741  1303               	bcf	status, 6	;RP1=0, select bank0
  2977  0742  00EE               	movwf	(??_main+0)+0
  2978  0743  086E               	movf	(??_main+0)+0,w
  2979  0744  00EF               	movwf	(main@menuResponse)
  2980                           	line	359
  2981                           	
  2982  0745                     l14668:	
  2983                           ;main.c: 359: if(menuResponse == '1') AlterAdminUser();
  2984  0745  086F               	movf	(main@menuResponse),w
  2985  0746  3A31               	xorlw	031h
  2986  0747  1D03               	skipz
  2987  0748  2F4A               	goto	u15161
  2988  0749  2F4B               	goto	u15160
  2989  074A                     u15161:
  2990  074A  2F51               	goto	l14672
  2991  074B                     u15160:
  2992                           	
  2993  074B                     l14670:	
  2994  074B  120A  158A  250D   	fcall	_AlterAdminUser
              120A  118A         
  2995  0750  2F35               	goto	l14666
  2996                           	line	360
  2997                           	
  2998  0751                     l1548:	
  2999                           	
  3000  0751                     l14672:	
  3001                           ;main.c: 360: else if(menuResponse == '2')
  3002  0751  1283               	bcf	status, 5	;RP0=0, select bank0
  3003  0752  1303               	bcf	status, 6	;RP1=0, select bank0
  3004  0753  086F               	movf	(main@menuResponse),w
  3005  0754  3A32               	xorlw	032h
  3006  0755  1D03               	skipz
  3007  0756  2F58               	goto	u15171
  3008  0757  2F59               	goto	u15170
  3009  0758                     u15171:
  3010  0758  2FC5               	goto	l14700
  3011  0759                     u15170:
  3012  0759  2F5A               	goto	l14674
  3013                           	line	362
  3014                           ;main.c: 361: {
  3015                           ;main.c: 362: while(1)
  3016                           	
  3017  075A                     l1551:	
  3018                           	line	364
  3019                           	
  3020  075A                     l14674:	
  3021                           ;main.c: 363: {
  3022                           ;main.c: 364: menuResponse = menu("1 Add New User\n2 Delete Old User");
  3023  075A  3000               	movlw	low(STR_33|8000h)
  3024  075B  1283               	bcf	status, 5	;RP0=0, select bank0
  3025  075C  1303               	bcf	status, 6	;RP1=0, select bank0
  3026  075D  00B3               	movwf	(?_menu)
  3027  075E  3085               	movlw	high(STR_33|8000h)
  3028  075F  00B4               	movwf	((?_menu))+1
  3029  0760  160A  118A  249C   	fcall	_menu
              120A  118A         
  3030  0765  1283               	bcf	status, 5	;RP0=0, select bank0
  3031  0766  1303               	bcf	status, 6	;RP1=0, select bank0
  3032  0767  00EE               	movwf	(??_main+0)+0
  3033  0768  086E               	movf	(??_main+0)+0,w
  3034  0769  00EF               	movwf	(main@menuResponse)
  3035                           	line	365
  3036                           	
  3037  076A                     l14676:	
  3038                           ;main.c: 365: if(menuResponse == '1'){AddNewUserAfterAdminConfirm();}
  3039  076A  086F               	movf	(main@menuResponse),w
  3040  076B  3A31               	xorlw	031h
  3041  076C  1D03               	skipz
  3042  076D  2F6F               	goto	u15181
  3043  076E  2F70               	goto	u15180
  3044  076F                     u15181:
  3045  076F  2F76               	goto	l14680
  3046  0770                     u15180:
  3047                           	
  3048  0770                     l14678:	
  3049  0770  120A  158A  2684   	fcall	_AddNewUserAfterAdminConfirm
              120A  118A         
  3050  0775  2F5A               	goto	l14674
  3051                           	line	366
  3052                           	
  3053  0776                     l1552:	
  3054                           	
  3055  0776                     l14680:	
  3056                           ;main.c: 366: else if(menuResponse == '2')
  3057  0776  1283               	bcf	status, 5	;RP0=0, select bank0
  3058  0777  1303               	bcf	status, 6	;RP1=0, select bank0
  3059  0778  086F               	movf	(main@menuResponse),w
  3060  0779  3A32               	xorlw	032h
  3061  077A  1D03               	skipz
  3062  077B  2F7D               	goto	u15191
  3063  077C  2F7E               	goto	u15190
  3064  077D                     u15191:
  3065  077D  2FB8               	goto	l14696
  3066  077E                     u15190:
  3067  077E  2F7F               	goto	l14682
  3068                           	line	368
  3069                           ;main.c: 367: {
  3070                           ;main.c: 368: while(1)
  3071                           	
  3072  077F                     l1555:	
  3073                           	line	370
  3074                           	
  3075  077F                     l14682:	
  3076                           ;main.c: 369: {
  3077                           ;main.c: 370: menuResponse = menu("1 Delete All\n2 Delete Single");
  3078  077F  305D               	movlw	low(STR_34|8000h)
  3079  0780  1283               	bcf	status, 5	;RP0=0, select bank0
  3080  0781  1303               	bcf	status, 6	;RP1=0, select bank0
  3081  0782  00B3               	movwf	(?_menu)
  3082  0783  3085               	movlw	high(STR_34|8000h)
  3083  0784  00B4               	movwf	((?_menu))+1
  3084  0785  160A  118A  249C   	fcall	_menu
              120A  118A         
  3085  078A  1283               	bcf	status, 5	;RP0=0, select bank0
  3086  078B  1303               	bcf	status, 6	;RP1=0, select bank0
  3087  078C  00EE               	movwf	(??_main+0)+0
  3088  078D  086E               	movf	(??_main+0)+0,w
  3089  078E  00EF               	movwf	(main@menuResponse)
  3090                           	line	371
  3091                           	
  3092  078F                     l14684:	
  3093                           ;main.c: 371: if(menuResponse == '1'){EraseAllUsersAfterAdminConfirm();}
  3094  078F  086F               	movf	(main@menuResponse),w
  3095  0790  3A31               	xorlw	031h
  3096  0791  1D03               	skipz
  3097  0792  2F94               	goto	u15201
  3098  0793  2F95               	goto	u15200
  3099  0794                     u15201:
  3100  0794  2F9B               	goto	l14688
  3101  0795                     u15200:
  3102                           	
  3103  0795                     l14686:	
  3104  0795  120A  118A  242A   	fcall	_EraseAllUsersAfterAdminConfirm
              120A  118A         
  3105  079A  2F7F               	goto	l14682
  3106                           	line	372
  3107                           	
  3108  079B                     l1556:	
  3109                           	
  3110  079B                     l14688:	
  3111                           ;main.c: 372: else if(menuResponse == '2'){DeleteUserAfterAdminConfirm();}
  3112  079B  1283               	bcf	status, 5	;RP0=0, select bank0
  3113  079C  1303               	bcf	status, 6	;RP1=0, select bank0
  3114  079D  086F               	movf	(main@menuResponse),w
  3115  079E  3A32               	xorlw	032h
  3116  079F  1D03               	skipz
  3117  07A0  2FA2               	goto	u15211
  3118  07A1  2FA3               	goto	u15210
  3119  07A2                     u15211:
  3120  07A2  2FA9               	goto	l14692
  3121  07A3                     u15210:
  3122                           	
  3123  07A3                     l14690:	
  3124  07A3  120A  118A  2015   	fcall	_DeleteUserAfterAdminConfirm
              120A  118A         
  3125  07A8  2F7F               	goto	l14682
  3126                           	line	373
  3127                           	
  3128  07A9                     l1558:	
  3129                           	
  3130  07A9                     l14692:	
  3131                           ;main.c: 373: else if(menuResponse == '3')break;
  3132  07A9  1283               	bcf	status, 5	;RP0=0, select bank0
  3133  07AA  1303               	bcf	status, 6	;RP1=0, select bank0
  3134  07AB  086F               	movf	(main@menuResponse),w
  3135  07AC  3A33               	xorlw	033h
  3136  07AD  1D03               	skipz
  3137  07AE  2FB0               	goto	u15221
  3138  07AF  2FB1               	goto	u15220
  3139  07B0                     u15221:
  3140  07B0  2F7F               	goto	l14682
  3141  07B1                     u15220:
  3142  07B1  2F5A               	goto	l14674
  3143                           	
  3144  07B2                     l14694:	
  3145  07B2  2F5A               	goto	l14674
  3146                           	
  3147  07B3                     l1560:	
  3148  07B3  2F7F               	goto	l14682
  3149                           	line	374
  3150                           	
  3151  07B4                     l1559:	
  3152  07B4  2F7F               	goto	l14682
  3153                           	
  3154  07B5                     l1557:	
  3155  07B5  2F7F               	goto	l14682
  3156                           	
  3157  07B6                     l1562:	
  3158                           	line	368
  3159  07B6  2F7F               	goto	l14682
  3160                           	
  3161  07B7                     l1561:	
  3162                           	line	375
  3163                           ;main.c: 374: }
  3164                           ;main.c: 375: }
  3165  07B7  2F5A               	goto	l14674
  3166                           	line	376
  3167                           	
  3168  07B8                     l1554:	
  3169                           	
  3170  07B8                     l14696:	
  3171                           ;main.c: 376: else if(menuResponse == '3')break;
  3172  07B8  086F               	movf	(main@menuResponse),w
  3173  07B9  3A33               	xorlw	033h
  3174  07BA  1D03               	skipz
  3175  07BB  2FBD               	goto	u15231
  3176  07BC  2FBE               	goto	u15230
  3177  07BD                     u15231:
  3178  07BD  2F5A               	goto	l14674
  3179  07BE                     u15230:
  3180  07BE  2F35               	goto	l14666
  3181                           	
  3182  07BF                     l14698:	
  3183  07BF  2F35               	goto	l14666
  3184                           	
  3185  07C0                     l1564:	
  3186  07C0  2F5A               	goto	l14674
  3187                           	line	377
  3188                           	
  3189  07C1                     l1563:	
  3190  07C1  2F5A               	goto	l14674
  3191                           	
  3192  07C2                     l1553:	
  3193  07C2  2F5A               	goto	l14674
  3194                           	
  3195  07C3                     l1566:	
  3196                           	line	362
  3197  07C3  2F5A               	goto	l14674
  3198                           	
  3199  07C4                     l1565:	
  3200                           	line	378
  3201                           ;main.c: 377: }
  3202                           ;main.c: 378: }
  3203  07C4  2F35               	goto	l14666
  3204                           	line	379
  3205                           	
  3206  07C5                     l1550:	
  3207                           	
  3208  07C5                     l14700:	
  3209                           ;main.c: 379: else if(menuResponse == '3')break;
  3210  07C5  086F               	movf	(main@menuResponse),w
  3211  07C6  3A33               	xorlw	033h
  3212  07C7  1D03               	skipz
  3213  07C8  2FCA               	goto	u15241
  3214  07C9  2FCB               	goto	u15240
  3215  07CA                     u15241:
  3216  07CA  2F35               	goto	l14666
  3217  07CB                     u15240:
  3218  07CB  2F10               	goto	l14660
  3219                           	
  3220  07CC                     l14702:	
  3221  07CC  2F10               	goto	l14660
  3222                           	
  3223  07CD                     l1568:	
  3224  07CD  2F35               	goto	l14666
  3225                           	line	380
  3226                           	
  3227  07CE                     l1567:	
  3228  07CE  2F35               	goto	l14666
  3229                           	
  3230  07CF                     l1549:	
  3231  07CF  2F35               	goto	l14666
  3232                           	
  3233  07D0                     l1570:	
  3234                           	line	356
  3235  07D0  2F35               	goto	l14666
  3236                           	
  3237  07D1                     l1569:	
  3238  07D1  2F10               	goto	l14660
  3239                           	line	381
  3240                           	
  3241  07D2                     l1546:	
  3242  07D2  2F10               	goto	l14660
  3243                           	line	382
  3244                           	
  3245  07D3                     l1545:	
  3246  07D3  2F10               	goto	l14660
  3247                           	
  3248  07D4                     l1571:	
  3249                           	line	350
  3250  07D4  2F10               	goto	l14660
  3251                           	
  3252  07D5                     l1572:	
  3253                           	line	383
  3254                           	
  3255  07D5                     l1573:	
  3256                           	global	start
  3257  07D5  120A  118A  2812   	ljmp	start
  3258                           	opt stack 0
  3259                           GLOBAL	__end_of_main
  3260  07D8                     	__end_of_main:
  3261 ;; =============== function _main ends ============
  3262                           
  3263                           	signat	_main,88
  3264                           	global	_DeleteUserAfterAdminConfirm
  3265                           psect	text4236,local,class=CODE,delta=2
  3266                           global __ptext4236
  3267  0015                     __ptext4236:
  3268                           
  3269 ;; *************** function _DeleteUserAfterAdminConfirm *****************
  3270 ;; Defined at:
  3271 ;;		line 238 in file "C:\Users\GauravLT\Desktop\Finger Print Sensor\R307\PIC16F877A_R307\main.c"
  3272 ;; Parameters:    Size  Location     Type
  3273 ;;		None
  3274 ;; Auto vars:     Size  Location     Type
  3275 ;;  key             1   18[BANK3 ] unsigned char 
  3276 ;;  buff           10    0[BANK3 ] unsigned char [10]
  3277 ;;  buff            5   11[BANK3 ] unsigned char [5]
  3278 ;;  DelUserNo       1   19[BANK3 ] unsigned char 
  3279 ;;  UserNo          1   17[BANK3 ] unsigned char 
  3280 ;;  result          1   16[BANK3 ] unsigned char 
  3281 ;;  isDeleteUser    1   10[BANK3 ] unsigned char 
  3282 ;; Return value:  Size  Location     Type
  3283 ;;                  1    wreg      unsigned char 
  3284 ;; Registers used:
  3285 ;;		wreg, fsr0l, fsr0h, status,2, status,0, btemp+1, pclath, cstack
  3286 ;; Tracked objects:
  3287 ;;		On entry : 0/0
  3288 ;;		On exit  : 0/0
  3289 ;;		Unchanged: 0/0
  3290 ;; Data sizes:     COMMON   BANK0   BANK1   BANK3   BANK2
  3291 ;;      Params:         0       0       0       0       0
  3292 ;;      Locals:         0       0       0      20       0
  3293 ;;      Temps:          0       0       5       0       0
  3294 ;;      Totals:         0       0       5      20       0
  3295 ;;Total ram usage:       25 bytes
  3296 ;; Hardware stack levels used:    1
  3297 ;; Hardware stack levels required when called:    7
  3298 ;; This function calls:
  3299 ;;		_ee_read
  3300 ;;		_LcdClear
  3301 ;;		_LcdPrint
  3302 ;;		_HiSpeedScan0
  3303 ;;		_Delay
  3304 ;;		_DecToStr
  3305 ;;		_KeyScan
  3306 ;;		_IsKeyPending
  3307 ;;		_GetKey
  3308 ;;		_DeleteUser
  3309 ;;		_releaseEElocation
  3310 ;; This function is called by:
  3311 ;;		_main
  3312 ;; This function uses a non-reentrant model
  3313 ;;
  3314                           psect	text4236
  3315                           	file	"C:\Users\GauravLT\Desktop\Finger Print Sensor\R307\PIC16F877A_R307\main.c"
  3316                           	line	238
  3317                           	global	__size_of_DeleteUserAfterAdminConfirm
  3318  021A                     	__size_of_DeleteUserAfterAdminConfirm	equ	__end_of_DeleteUserAfterAdminConfirm-_DeleteU
                                 serAfterAdminConfirm
  3319                           	
  3320  0015                     _DeleteUserAfterAdminConfirm:	
  3321                           	opt	stack 0
  3322                           ; Regs used in _DeleteUserAfterAdminConfirm: [wreg-fsr0h+status,2+status,0+btemp+1+pclat
                                 h+cstack]
  3323                           	line	239
  3324                           	
  3325  0015                     l14550:	
  3326                           ;main.c: 239: unsigned char isDeleteUser=1;
  3327  0015  1683               	bsf	status, 5	;RP0=1, select bank3
  3328  0016  1703               	bsf	status, 6	;RP1=1, select bank3
  3329  0017  01CE               	clrf	(DeleteUserAfterAdminConfirm@isDeleteUser)^0180h
  3330  0018  1403               	bsf	status,0
  3331  0019  0DCE               	rlf	(DeleteUserAfterAdminConfirm@isDeleteUser)^0180h,f
  3332                           	line	241
  3333                           	
  3334  001A                     l14552:	
  3335                           ;main.c: 241: if(ee_read(0x00) == 0x01)
  3336  001A  3000               	movlw	(0)
  3337  001B  160A  118A  206D   	fcall	_ee_read
              120A  118A         
  3338  0020  3A01               	xorlw	01h
  3339  0021  1D03               	skipz
  3340  0022  2824               	goto	u15021
  3341  0023  2825               	goto	u15020
  3342  0024                     u15021:
  3343  0024  2A2E               	goto	l1508
  3344  0025                     u15020:
  3345                           	line	243
  3346                           	
  3347  0025                     l14554:	
  3348                           ;main.c: 242: {
  3349                           ;main.c: 243: LcdClear();
  3350  0025  160A  118A  2032   	fcall	_LcdClear
              120A  118A         
  3351                           	line	244
  3352                           	
  3353  002A                     l14556:	
  3354                           ;main.c: 244: LcdPrint("Admin Required\nPlace Finger",0,0);
  3355  002A  307A               	movlw	low(STR_24|8000h)
  3356  002B  1283               	bcf	status, 5	;RP0=0, select bank0
  3357  002C  1303               	bcf	status, 6	;RP1=0, select bank0
  3358  002D  00AB               	movwf	(?_LcdPrint)
  3359  002E  3085               	movlw	high(STR_24|8000h)
  3360  002F  00AC               	movwf	((?_LcdPrint))+1
  3361  0030  01AD               	clrf	0+(?_LcdPrint)+02h
  3362  0031  01AE               	clrf	0+(?_LcdPrint)+03h
  3363  0032  160A  118A  2723   	fcall	_LcdPrint
              120A  118A         
  3364                           	line	245
  3365                           	
  3366  0037                     l14558:	
  3367                           ;main.c: 245: isDeleteUser = 0;
  3368  0037  1683               	bsf	status, 5	;RP0=1, select bank3
  3369  0038  1703               	bsf	status, 6	;RP1=1, select bank3
  3370  0039  01CE               	clrf	(DeleteUserAfterAdminConfirm@isDeleteUser)^0180h
  3371                           	line	248
  3372                           	
  3373  003A                     l14560:	
  3374                           ;main.c: 247: unsigned char UserNo;
  3375                           ;main.c: 248: unsigned char result = HiSpeedScan0(&UserNo);
  3376  003A  30D5               	movlw	(DeleteUserAfterAdminConfirm@UserNo&0ffh)
  3377  003B  1283               	bcf	status, 5	;RP0=0, select bank0
  3378  003C  1303               	bcf	status, 6	;RP1=0, select bank0
  3379  003D  00E9               	movwf	(?_HiSpeedScan0)
  3380  003E  3001               	movlw	(0x3/2)
  3381  003F  00EA               	movwf	(?_HiSpeedScan0+1)
  3382  0040  160A  118A  24EC   	fcall	_HiSpeedScan0
              120A  118A         
  3383  0045  1683               	bsf	status, 5	;RP0=1, select bank1
  3384  0046  1303               	bcf	status, 6	;RP1=0, select bank1
  3385  0047  00D7               	movwf	(??_DeleteUserAfterAdminConfirm+0)^080h+0
  3386  0048  0857               	movf	(??_DeleteUserAfterAdminConfirm+0)^080h+0,w
  3387  0049  1683               	bsf	status, 5	;RP0=1, select bank3
  3388  004A  1703               	bsf	status, 6	;RP1=1, select bank3
  3389  004B  00D4               	movwf	(DeleteUserAfterAdminConfirm@result)^0180h
  3390                           	line	249
  3391                           	
  3392  004C                     l14562:	
  3393                           ;main.c: 249: if(result == 0xFF) return 0;
  3394  004C  0854               	movf	(DeleteUserAfterAdminConfirm@result)^0180h,w
  3395  004D  3AFF               	xorlw	0FFh
  3396  004E  1D03               	skipz
  3397  004F  2851               	goto	u15031
  3398  0050  2852               	goto	u15030
  3399  0051                     u15031:
  3400  0051  2855               	goto	l14568
  3401  0052                     u15030:
  3402  0052  2A2E               	goto	l1508
  3403                           	
  3404  0053                     l14564:	
  3405                           ;	Return value of _DeleteUserAfterAdminConfirm is never used
  3406  0053  2A2E               	goto	l1508
  3407                           	
  3408  0054                     l14566:	
  3409  0054  2A2E               	goto	l1508
  3410                           	line	250
  3411                           	
  3412  0055                     l1507:	
  3413                           	line	252
  3414                           	
  3415  0055                     l14568:	
  3416                           ;main.c: 250: else
  3417                           ;main.c: 251: {
  3418                           ;main.c: 252: if(result == 1 && UserNo == 0)
  3419  0055  0854               	movf	(DeleteUserAfterAdminConfirm@result)^0180h,w
  3420  0056  3A01               	xorlw	01h
  3421  0057  1D03               	skipz
  3422  0058  285A               	goto	u15041
  3423  0059  285B               	goto	u15040
  3424  005A                     u15041:
  3425  005A  2A0D               	goto	l14638
  3426  005B                     u15040:
  3427                           	
  3428  005B                     l14570:	
  3429  005B  08D5               	movf	(DeleteUserAfterAdminConfirm@UserNo)^0180h,f
  3430  005C  1D03               	skipz
  3431  005D  285F               	goto	u15051
  3432  005E  2860               	goto	u15050
  3433  005F                     u15051:
  3434  005F  2A0D               	goto	l14638
  3435  0060                     u15050:
  3436                           	line	254
  3437                           	
  3438  0060                     l14572:	
  3439                           ;main.c: 253: {
  3440                           ;main.c: 254: LcdClear();
  3441  0060  160A  118A  2032   	fcall	_LcdClear
              120A  118A         
  3442                           	line	255
  3443                           	
  3444  0065                     l14574:	
  3445                           ;main.c: 255: LcdPrint("Admin found",0,0);
  3446  0065  30BD               	movlw	low(STR_25|8000h)
  3447  0066  1283               	bcf	status, 5	;RP0=0, select bank0
  3448  0067  1303               	bcf	status, 6	;RP1=0, select bank0
  3449  0068  00AB               	movwf	(?_LcdPrint)
  3450  0069  3086               	movlw	high(STR_25|8000h)
  3451  006A  00AC               	movwf	((?_LcdPrint))+1
  3452  006B  01AD               	clrf	0+(?_LcdPrint)+02h
  3453  006C  01AE               	clrf	0+(?_LcdPrint)+03h
  3454  006D  160A  118A  2723   	fcall	_LcdPrint
              120A  118A         
  3455                           	line	256
  3456                           	
  3457  0072                     l14576:	
  3458                           ;main.c: 256: Delay(2);
  3459  0072  3002               	movlw	low(02h)
  3460  0073  1283               	bcf	status, 5	;RP0=0, select bank0
  3461  0074  1303               	bcf	status, 6	;RP1=0, select bank0
  3462  0075  00AD               	movwf	(?_Delay)
  3463  0076  3000               	movlw	high(02h)
  3464  0077  00AE               	movwf	((?_Delay))+1
  3465  0078  160A  118A  253F   	fcall	_Delay
              120A  118A         
  3466                           	line	258
  3467                           	
  3468  007D                     l14578:	
  3469                           ;main.c: 258: unsigned char DelUserNo = 1;
  3470  007D  1683               	bsf	status, 5	;RP0=1, select bank3
  3471  007E  1703               	bsf	status, 6	;RP1=1, select bank3
  3472  007F  01D7               	clrf	(DeleteUserAfterAdminConfirm@DelUserNo)^0180h
  3473  0080  1403               	bsf	status,0
  3474  0081  0DD7               	rlf	(DeleteUserAfterAdminConfirm@DelUserNo)^0180h,f
  3475                           	line	260
  3476                           	
  3477  0082                     l14580:	
  3478                           ;main.c: 259: unsigned char buff[5];
  3479                           ;main.c: 260: LcdClear();
  3480  0082  160A  118A  2032   	fcall	_LcdClear
              120A  118A         
  3481                           	line	261
  3482                           	
  3483  0087                     l14582:	
  3484                           ;main.c: 261: LcdPrint("Select User",0,0);
  3485  0087  30C9               	movlw	low(STR_26|8000h)
  3486  0088  1283               	bcf	status, 5	;RP0=0, select bank0
  3487  0089  1303               	bcf	status, 6	;RP1=0, select bank0
  3488  008A  00AB               	movwf	(?_LcdPrint)
  3489  008B  3086               	movlw	high(STR_26|8000h)
  3490  008C  00AC               	movwf	((?_LcdPrint))+1
  3491  008D  01AD               	clrf	0+(?_LcdPrint)+02h
  3492  008E  01AE               	clrf	0+(?_LcdPrint)+03h
  3493  008F  160A  118A  2723   	fcall	_LcdPrint
              120A  118A         
  3494                           	line	262
  3495                           	
  3496  0094                     l14584:	
  3497                           ;main.c: 262: DecToStr(DelUserNo, buff, 2);
  3498  0094  1683               	bsf	status, 5	;RP0=1, select bank3
  3499  0095  1703               	bsf	status, 6	;RP1=1, select bank3
  3500  0096  0857               	movf	(DeleteUserAfterAdminConfirm@DelUserNo)^0180h,w
  3501  0097  1683               	bsf	status, 5	;RP0=1, select bank1
  3502  0098  1303               	bcf	status, 6	;RP1=0, select bank1
  3503  0099  00D7               	movwf	(??_DeleteUserAfterAdminConfirm+0)^080h+0
  3504  009A  01D8               	clrf	((??_DeleteUserAfterAdminConfirm+0)^080h+0+1)
  3505  009B  01D9               	clrf	((??_DeleteUserAfterAdminConfirm+0)^080h+0+2)
  3506  009C  01DA               	clrf	((??_DeleteUserAfterAdminConfirm+0)^080h+0+3)
  3507  009D  085A               	movf	3+(??_DeleteUserAfterAdminConfirm+0)^080h+0,w
  3508  009E  1283               	bcf	status, 5	;RP0=0, select bank0
  3509  009F  1303               	bcf	status, 6	;RP1=0, select bank0
  3510  00A0  00B7               	movwf	(?_DecToStr+3)
  3511  00A1  1683               	bsf	status, 5	;RP0=1, select bank1
  3512  00A2  1303               	bcf	status, 6	;RP1=0, select bank1
  3513  00A3  0859               	movf	2+(??_DeleteUserAfterAdminConfirm+0)^080h+0,w
  3514  00A4  1283               	bcf	status, 5	;RP0=0, select bank0
  3515  00A5  1303               	bcf	status, 6	;RP1=0, select bank0
  3516  00A6  00B6               	movwf	(?_DecToStr+2)
  3517  00A7  1683               	bsf	status, 5	;RP0=1, select bank1
  3518  00A8  1303               	bcf	status, 6	;RP1=0, select bank1
  3519  00A9  0858               	movf	1+(??_DeleteUserAfterAdminConfirm+0)^080h+0,w
  3520  00AA  1283               	bcf	status, 5	;RP0=0, select bank0
  3521  00AB  1303               	bcf	status, 6	;RP1=0, select bank0
  3522  00AC  00B5               	movwf	(?_DecToStr+1)
  3523  00AD  1683               	bsf	status, 5	;RP0=1, select bank1
  3524  00AE  1303               	bcf	status, 6	;RP1=0, select bank1
  3525  00AF  0857               	movf	0+(??_DeleteUserAfterAdminConfirm+0)^080h+0,w
  3526  00B0  1283               	bcf	status, 5	;RP0=0, select bank0
  3527  00B1  1303               	bcf	status, 6	;RP1=0, select bank0
  3528  00B2  00B4               	movwf	(?_DecToStr)
  3529                           
  3530  00B3  30CF               	movlw	(DeleteUserAfterAdminConfirm@buff&0ffh)
  3531  00B4  00B8               	movwf	(0+?_DecToStr+04h)
  3532  00B5  3001               	movlw	(0x3/2)
  3533  00B6  00B9               	movwf	(1+?_DecToStr+04h)
  3534  00B7  3002               	movlw	(02h)
  3535  00B8  1683               	bsf	status, 5	;RP0=1, select bank1
  3536  00B9  1303               	bcf	status, 6	;RP1=0, select bank1
  3537  00BA  00DB               	movwf	(??_DeleteUserAfterAdminConfirm+4)^080h+0
  3538  00BB  085B               	movf	(??_DeleteUserAfterAdminConfirm+4)^080h+0,w
  3539  00BC  1283               	bcf	status, 5	;RP0=0, select bank0
  3540  00BD  1303               	bcf	status, 6	;RP1=0, select bank0
  3541  00BE  00BA               	movwf	0+(?_DecToStr)+06h
  3542  00BF  120A  158A  208F   	fcall	_DecToStr
              120A  118A         
  3543                           	line	263
  3544                           	
  3545  00C4                     l14586:	
  3546                           ;main.c: 263: LcdPrint(buff, 1, 5);
  3547  00C4  30CF               	movlw	(DeleteUserAfterAdminConfirm@buff&0ffh)
  3548  00C5  1283               	bcf	status, 5	;RP0=0, select bank0
  3549  00C6  1303               	bcf	status, 6	;RP1=0, select bank0
  3550  00C7  00AB               	movwf	(?_LcdPrint)
  3551  00C8  3001               	movlw	(0x3/2)
  3552  00C9  00AC               	movwf	(?_LcdPrint+1)
  3553  00CA  01AD               	clrf	0+(?_LcdPrint)+02h
  3554  00CB  1403               	bsf	status,0
  3555  00CC  0DAD               	rlf	0+(?_LcdPrint)+02h,f
  3556  00CD  3005               	movlw	(05h)
  3557  00CE  1683               	bsf	status, 5	;RP0=1, select bank1
  3558  00CF  1303               	bcf	status, 6	;RP1=0, select bank1
  3559  00D0  00D7               	movwf	(??_DeleteUserAfterAdminConfirm+0)^080h+0
  3560  00D1  0857               	movf	(??_DeleteUserAfterAdminConfirm+0)^080h+0,w
  3561  00D2  1283               	bcf	status, 5	;RP0=0, select bank0
  3562  00D3  1303               	bcf	status, 6	;RP1=0, select bank0
  3563  00D4  00AE               	movwf	0+(?_LcdPrint)+03h
  3564  00D5  160A  118A  2723   	fcall	_LcdPrint
              120A  118A         
  3565  00DA  28DB               	goto	l14588
  3566                           	line	264
  3567                           ;main.c: 264: while(1)
  3568                           	
  3569  00DB                     l1511:	
  3570                           	line	266
  3571                           	
  3572  00DB                     l14588:	
  3573                           ;main.c: 265: {
  3574                           ;main.c: 266: KeyScan();
  3575  00DB  120A  158A  2110   	fcall	_KeyScan
              120A  118A         
  3576                           	line	267
  3577                           	
  3578  00E0                     l14590:	
  3579                           ;main.c: 267: if(IsKeyPending())
  3580  00E0  160A  158A  2798   	fcall	_IsKeyPending
              120A  118A         
  3581  00E5  3A00               	xorlw	0
  3582  00E6  1903               	skipnz
  3583  00E7  28E9               	goto	u15061
  3584  00E8  28EA               	goto	u15060
  3585  00E9                     u15061:
  3586  00E9  28DB               	goto	l14588
  3587  00EA                     u15060:
  3588                           	line	269
  3589                           	
  3590  00EA                     l14592:	
  3591                           ;main.c: 268: {
  3592                           ;main.c: 269: unsigned char key = GetKey();
  3593  00EA  160A  118A  2019   	fcall	_GetKey
              120A  118A         
  3594  00EF  1683               	bsf	status, 5	;RP0=1, select bank1
  3595  00F0  1303               	bcf	status, 6	;RP1=0, select bank1
  3596  00F1  00D7               	movwf	(??_DeleteUserAfterAdminConfirm+0)^080h+0
  3597  00F2  0857               	movf	(??_DeleteUserAfterAdminConfirm+0)^080h+0,w
  3598  00F3  1683               	bsf	status, 5	;RP0=1, select bank3
  3599  00F4  1703               	bsf	status, 6	;RP1=1, select bank3
  3600  00F5  00D6               	movwf	(DeleteUserAfterAdminConfirm@key)^0180h
  3601                           	line	270
  3602                           	
  3603  00F6                     l14594:	
  3604                           ;main.c: 270: if(key == '1'){ if(DelUserNo<24) DelUserNo++; }
  3605  00F6  0856               	movf	(DeleteUserAfterAdminConfirm@key)^0180h,w
  3606  00F7  3A31               	xorlw	031h
  3607  00F8  1D03               	skipz
  3608  00F9  28FB               	goto	u15071
  3609  00FA  28FC               	goto	u15070
  3610  00FB                     u15071:
  3611  00FB  290C               	goto	l14600
  3612  00FC                     u15070:
  3613                           	
  3614  00FC                     l14596:	
  3615  00FC  3018               	movlw	(018h)
  3616  00FD  0257               	subwf	(DeleteUserAfterAdminConfirm@DelUserNo)^0180h,w
  3617  00FE  1803               	skipnc
  3618  00FF  2901               	goto	u15081
  3619  0100  2902               	goto	u15080
  3620  0101                     u15081:
  3621  0101  292E               	goto	l14616
  3622  0102                     u15080:
  3623                           	
  3624  0102                     l14598:	
  3625  0102  3001               	movlw	(01h)
  3626  0103  1683               	bsf	status, 5	;RP0=1, select bank1
  3627  0104  1303               	bcf	status, 6	;RP1=0, select bank1
  3628  0105  00D7               	movwf	(??_DeleteUserAfterAdminConfirm+0)^080h+0
  3629  0106  0857               	movf	(??_DeleteUserAfterAdminConfirm+0)^080h+0,w
  3630  0107  1683               	bsf	status, 5	;RP0=1, select bank3
  3631  0108  1703               	bsf	status, 6	;RP1=1, select bank3
  3632  0109  07D7               	addwf	(DeleteUserAfterAdminConfirm@DelUserNo)^0180h,f
  3633  010A  292E               	goto	l14616
  3634                           	
  3635  010B                     l1514:	
  3636  010B  292E               	goto	l14616
  3637                           	line	271
  3638                           	
  3639  010C                     l1513:	
  3640                           	
  3641  010C                     l14600:	
  3642                           ;main.c: 271: else if(key == '2') {if(DelUserNo > 0) DelUserNo--; }
  3643  010C  0856               	movf	(DeleteUserAfterAdminConfirm@key)^0180h,w
  3644  010D  3A32               	xorlw	032h
  3645  010E  1D03               	skipz
  3646  010F  2911               	goto	u15091
  3647  0110  2912               	goto	u15090
  3648  0111                     u15091:
  3649  0111  291A               	goto	l14606
  3650  0112                     u15090:
  3651                           	
  3652  0112                     l14602:	
  3653  0112  0857               	movf	(DeleteUserAfterAdminConfirm@DelUserNo)^0180h,w
  3654  0113  1D03               	skipz
  3655  0114  2916               	goto	u15100
  3656  0115  292E               	goto	l14616
  3657  0116                     u15100:
  3658                           	
  3659  0116                     l14604:	
  3660  0116  3001               	movlw	low(01h)
  3661  0117  02D7               	subwf	(DeleteUserAfterAdminConfirm@DelUserNo)^0180h,f
  3662  0118  292E               	goto	l14616
  3663                           	
  3664  0119                     l1517:	
  3665  0119  292E               	goto	l14616
  3666                           	line	272
  3667                           	
  3668  011A                     l1516:	
  3669                           	
  3670  011A                     l14606:	
  3671                           ;main.c: 272: else if(key == '3') return 0;
  3672  011A  0856               	movf	(DeleteUserAfterAdminConfirm@key)^0180h,w
  3673  011B  3A33               	xorlw	033h
  3674  011C  1D03               	skipz
  3675  011D  291F               	goto	u15111
  3676  011E  2920               	goto	u15110
  3677  011F                     u15111:
  3678  011F  2923               	goto	l14612
  3679  0120                     u15110:
  3680  0120  2A2E               	goto	l1508
  3681                           	
  3682  0121                     l14608:	
  3683                           ;	Return value of _DeleteUserAfterAdminConfirm is never used
  3684  0121  2A2E               	goto	l1508
  3685                           	
  3686  0122                     l14610:	
  3687  0122  292E               	goto	l14616
  3688                           	line	273
  3689                           	
  3690  0123                     l1519:	
  3691                           	
  3692  0123                     l14612:	
  3693                           ;main.c: 273: else if(key == '4') break;
  3694  0123  0856               	movf	(DeleteUserAfterAdminConfirm@key)^0180h,w
  3695  0124  3A34               	xorlw	034h
  3696  0125  1D03               	skipz
  3697  0126  2928               	goto	u15121
  3698  0127  2929               	goto	u15120
  3699  0128                     u15121:
  3700  0128  292E               	goto	l14616
  3701  0129                     u15120:
  3702  0129  2975               	goto	l14620
  3703                           	
  3704  012A                     l14614:	
  3705  012A  2975               	goto	l14620
  3706                           	
  3707  012B                     l1521:	
  3708  012B  292E               	goto	l14616
  3709                           	line	275
  3710                           	
  3711  012C                     l1520:	
  3712  012C  292E               	goto	l14616
  3713                           	
  3714  012D                     l1518:	
  3715  012D  292E               	goto	l14616
  3716                           	
  3717  012E                     l1515:	
  3718                           	
  3719  012E                     l14616:	
  3720                           ;main.c: 275: DecToStr(DelUserNo, buff, 2);
  3721  012E  0857               	movf	(DeleteUserAfterAdminConfirm@DelUserNo)^0180h,w
  3722  012F  1683               	bsf	status, 5	;RP0=1, select bank1
  3723  0130  1303               	bcf	status, 6	;RP1=0, select bank1
  3724  0131  00D7               	movwf	(??_DeleteUserAfterAdminConfirm+0)^080h+0
  3725  0132  01D8               	clrf	((??_DeleteUserAfterAdminConfirm+0)^080h+0+1)
  3726  0133  01D9               	clrf	((??_DeleteUserAfterAdminConfirm+0)^080h+0+2)
  3727  0134  01DA               	clrf	((??_DeleteUserAfterAdminConfirm+0)^080h+0+3)
  3728  0135  085A               	movf	3+(??_DeleteUserAfterAdminConfirm+0)^080h+0,w
  3729  0136  1283               	bcf	status, 5	;RP0=0, select bank0
  3730  0137  1303               	bcf	status, 6	;RP1=0, select bank0
  3731  0138  00B7               	movwf	(?_DecToStr+3)
  3732  0139  1683               	bsf	status, 5	;RP0=1, select bank1
  3733  013A  1303               	bcf	status, 6	;RP1=0, select bank1
  3734  013B  0859               	movf	2+(??_DeleteUserAfterAdminConfirm+0)^080h+0,w
  3735  013C  1283               	bcf	status, 5	;RP0=0, select bank0
  3736  013D  1303               	bcf	status, 6	;RP1=0, select bank0
  3737  013E  00B6               	movwf	(?_DecToStr+2)
  3738  013F  1683               	bsf	status, 5	;RP0=1, select bank1
  3739  0140  1303               	bcf	status, 6	;RP1=0, select bank1
  3740  0141  0858               	movf	1+(??_DeleteUserAfterAdminConfirm+0)^080h+0,w
  3741  0142  1283               	bcf	status, 5	;RP0=0, select bank0
  3742  0143  1303               	bcf	status, 6	;RP1=0, select bank0
  3743  0144  00B5               	movwf	(?_DecToStr+1)
  3744  0145  1683               	bsf	status, 5	;RP0=1, select bank1
  3745  0146  1303               	bcf	status, 6	;RP1=0, select bank1
  3746  0147  0857               	movf	0+(??_DeleteUserAfterAdminConfirm+0)^080h+0,w
  3747  0148  1283               	bcf	status, 5	;RP0=0, select bank0
  3748  0149  1303               	bcf	status, 6	;RP1=0, select bank0
  3749  014A  00B4               	movwf	(?_DecToStr)
  3750                           
  3751  014B  30CF               	movlw	(DeleteUserAfterAdminConfirm@buff&0ffh)
  3752  014C  00B8               	movwf	(0+?_DecToStr+04h)
  3753  014D  3001               	movlw	(0x3/2)
  3754  014E  00B9               	movwf	(1+?_DecToStr+04h)
  3755  014F  3002               	movlw	(02h)
  3756  0150  1683               	bsf	status, 5	;RP0=1, select bank1
  3757  0151  1303               	bcf	status, 6	;RP1=0, select bank1
  3758  0152  00DB               	movwf	(??_DeleteUserAfterAdminConfirm+4)^080h+0
  3759  0153  085B               	movf	(??_DeleteUserAfterAdminConfirm+4)^080h+0,w
  3760  0154  1283               	bcf	status, 5	;RP0=0, select bank0
  3761  0155  1303               	bcf	status, 6	;RP1=0, select bank0
  3762  0156  00BA               	movwf	0+(?_DecToStr)+06h
  3763  0157  120A  158A  208F   	fcall	_DecToStr
              120A  118A         
  3764                           	line	276
  3765                           	
  3766  015C                     l14618:	
  3767                           ;main.c: 276: LcdPrint(buff, 1, 5);
  3768  015C  30CF               	movlw	(DeleteUserAfterAdminConfirm@buff&0ffh)
  3769  015D  1283               	bcf	status, 5	;RP0=0, select bank0
  3770  015E  1303               	bcf	status, 6	;RP1=0, select bank0
  3771  015F  00AB               	movwf	(?_LcdPrint)
  3772  0160  3001               	movlw	(0x3/2)
  3773  0161  00AC               	movwf	(?_LcdPrint+1)
  3774  0162  01AD               	clrf	0+(?_LcdPrint)+02h
  3775  0163  1403               	bsf	status,0
  3776  0164  0DAD               	rlf	0+(?_LcdPrint)+02h,f
  3777  0165  3005               	movlw	(05h)
  3778  0166  1683               	bsf	status, 5	;RP0=1, select bank1
  3779  0167  1303               	bcf	status, 6	;RP1=0, select bank1
  3780  0168  00D7               	movwf	(??_DeleteUserAfterAdminConfirm+0)^080h+0
  3781  0169  0857               	movf	(??_DeleteUserAfterAdminConfirm+0)^080h+0,w
  3782  016A  1283               	bcf	status, 5	;RP0=0, select bank0
  3783  016B  1303               	bcf	status, 6	;RP1=0, select bank0
  3784  016C  00AE               	movwf	0+(?_LcdPrint)+03h
  3785  016D  160A  118A  2723   	fcall	_LcdPrint
              120A  118A         
  3786  0172  28DB               	goto	l14588
  3787                           	line	277
  3788                           	
  3789  0173                     l1512:	
  3790  0173  28DB               	goto	l14588
  3791                           	line	278
  3792                           	
  3793  0174                     l1523:	
  3794                           	line	264
  3795  0174  28DB               	goto	l14588
  3796                           	
  3797  0175                     l1522:	
  3798                           	line	280
  3799                           	
  3800  0175                     l14620:	
  3801                           ;main.c: 277: }
  3802                           ;main.c: 278: }
  3803                           ;main.c: 280: if(DeleteUser(DelUserNo) == 1)
  3804  0175  1683               	bsf	status, 5	;RP0=1, select bank3
  3805  0176  1703               	bsf	status, 6	;RP1=1, select bank3
  3806  0177  0857               	movf	(DeleteUserAfterAdminConfirm@DelUserNo)^0180h,w
  3807  0178  160A  118A  25F6   	fcall	_DeleteUser
              120A  118A         
  3808  017D  3A01               	xorlw	01h
  3809  017E  1D03               	skipz
  3810  017F  2981               	goto	u15131
  3811  0180  2982               	goto	u15130
  3812  0181                     u15131:
  3813  0181  29EE               	goto	l14632
  3814  0182                     u15130:
  3815                           	line	283
  3816                           	
  3817  0182                     l14622:	
  3818                           ;main.c: 281: {
  3819                           ;main.c: 282: unsigned char buff[10];
  3820                           ;main.c: 283: LcdClear();
  3821  0182  160A  118A  2032   	fcall	_LcdClear
              120A  118A         
  3822                           	line	284
  3823                           	
  3824  0187                     l14624:	
  3825                           ;main.c: 284: LcdPrint("User Deleted\nUser No:",0,0);
  3826  0187  30DF               	movlw	low(STR_27|8000h)
  3827  0188  1283               	bcf	status, 5	;RP0=0, select bank0
  3828  0189  1303               	bcf	status, 6	;RP1=0, select bank0
  3829  018A  00AB               	movwf	(?_LcdPrint)
  3830  018B  3085               	movlw	high(STR_27|8000h)
  3831  018C  00AC               	movwf	((?_LcdPrint))+1
  3832  018D  01AD               	clrf	0+(?_LcdPrint)+02h
  3833  018E  01AE               	clrf	0+(?_LcdPrint)+03h
  3834  018F  160A  118A  2723   	fcall	_LcdPrint
              120A  118A         
  3835                           	line	285
  3836                           	
  3837  0194                     l14626:	
  3838                           ;main.c: 285: DecToStr(DelUserNo, buff, 2);
  3839  0194  1683               	bsf	status, 5	;RP0=1, select bank3
  3840  0195  1703               	bsf	status, 6	;RP1=1, select bank3
  3841  0196  0857               	movf	(DeleteUserAfterAdminConfirm@DelUserNo)^0180h,w
  3842  0197  1683               	bsf	status, 5	;RP0=1, select bank1
  3843  0198  1303               	bcf	status, 6	;RP1=0, select bank1
  3844  0199  00D7               	movwf	(??_DeleteUserAfterAdminConfirm+0)^080h+0
  3845  019A  01D8               	clrf	((??_DeleteUserAfterAdminConfirm+0)^080h+0+1)
  3846  019B  01D9               	clrf	((??_DeleteUserAfterAdminConfirm+0)^080h+0+2)
  3847  019C  01DA               	clrf	((??_DeleteUserAfterAdminConfirm+0)^080h+0+3)
  3848  019D  085A               	movf	3+(??_DeleteUserAfterAdminConfirm+0)^080h+0,w
  3849  019E  1283               	bcf	status, 5	;RP0=0, select bank0
  3850  019F  1303               	bcf	status, 6	;RP1=0, select bank0
  3851  01A0  00B7               	movwf	(?_DecToStr+3)
  3852  01A1  1683               	bsf	status, 5	;RP0=1, select bank1
  3853  01A2  1303               	bcf	status, 6	;RP1=0, select bank1
  3854  01A3  0859               	movf	2+(??_DeleteUserAfterAdminConfirm+0)^080h+0,w
  3855  01A4  1283               	bcf	status, 5	;RP0=0, select bank0
  3856  01A5  1303               	bcf	status, 6	;RP1=0, select bank0
  3857  01A6  00B6               	movwf	(?_DecToStr+2)
  3858  01A7  1683               	bsf	status, 5	;RP0=1, select bank1
  3859  01A8  1303               	bcf	status, 6	;RP1=0, select bank1
  3860  01A9  0858               	movf	1+(??_DeleteUserAfterAdminConfirm+0)^080h+0,w
  3861  01AA  1283               	bcf	status, 5	;RP0=0, select bank0
  3862  01AB  1303               	bcf	status, 6	;RP1=0, select bank0
  3863  01AC  00B5               	movwf	(?_DecToStr+1)
  3864  01AD  1683               	bsf	status, 5	;RP0=1, select bank1
  3865  01AE  1303               	bcf	status, 6	;RP1=0, select bank1
  3866  01AF  0857               	movf	0+(??_DeleteUserAfterAdminConfirm+0)^080h+0,w
  3867  01B0  1283               	bcf	status, 5	;RP0=0, select bank0
  3868  01B1  1303               	bcf	status, 6	;RP1=0, select bank0
  3869  01B2  00B4               	movwf	(?_DecToStr)
  3870                           
  3871  01B3  30C4               	movlw	(DeleteUserAfterAdminConfirm@buff_2234&0ffh)
  3872  01B4  00B8               	movwf	(0+?_DecToStr+04h)
  3873  01B5  3001               	movlw	(0x3/2)
  3874  01B6  00B9               	movwf	(1+?_DecToStr+04h)
  3875  01B7  3002               	movlw	(02h)
  3876  01B8  1683               	bsf	status, 5	;RP0=1, select bank1
  3877  01B9  1303               	bcf	status, 6	;RP1=0, select bank1
  3878  01BA  00DB               	movwf	(??_DeleteUserAfterAdminConfirm+4)^080h+0
  3879  01BB  085B               	movf	(??_DeleteUserAfterAdminConfirm+4)^080h+0,w
  3880  01BC  1283               	bcf	status, 5	;RP0=0, select bank0
  3881  01BD  1303               	bcf	status, 6	;RP1=0, select bank0
  3882  01BE  00BA               	movwf	0+(?_DecToStr)+06h
  3883  01BF  120A  158A  208F   	fcall	_DecToStr
              120A  118A         
  3884                           	line	286
  3885                           ;main.c: 286: LcdPrint(buff, 1, 9);
  3886  01C4  30C4               	movlw	(DeleteUserAfterAdminConfirm@buff_2234&0ffh)
  3887  01C5  1283               	bcf	status, 5	;RP0=0, select bank0
  3888  01C6  1303               	bcf	status, 6	;RP1=0, select bank0
  3889  01C7  00AB               	movwf	(?_LcdPrint)
  3890  01C8  3001               	movlw	(0x3/2)
  3891  01C9  00AC               	movwf	(?_LcdPrint+1)
  3892  01CA  01AD               	clrf	0+(?_LcdPrint)+02h
  3893  01CB  1403               	bsf	status,0
  3894  01CC  0DAD               	rlf	0+(?_LcdPrint)+02h,f
  3895  01CD  3009               	movlw	(09h)
  3896  01CE  1683               	bsf	status, 5	;RP0=1, select bank1
  3897  01CF  1303               	bcf	status, 6	;RP1=0, select bank1
  3898  01D0  00D7               	movwf	(??_DeleteUserAfterAdminConfirm+0)^080h+0
  3899  01D1  0857               	movf	(??_DeleteUserAfterAdminConfirm+0)^080h+0,w
  3900  01D2  1283               	bcf	status, 5	;RP0=0, select bank0
  3901  01D3  1303               	bcf	status, 6	;RP1=0, select bank0
  3902  01D4  00AE               	movwf	0+(?_LcdPrint)+03h
  3903  01D5  160A  118A  2723   	fcall	_LcdPrint
              120A  118A         
  3904                           	line	287
  3905                           	
  3906  01DA                     l14628:	
  3907                           ;main.c: 287: releaseEElocation(DelUserNo);
  3908  01DA  1683               	bsf	status, 5	;RP0=1, select bank3
  3909  01DB  1703               	bsf	status, 6	;RP1=1, select bank3
  3910  01DC  0857               	movf	(DeleteUserAfterAdminConfirm@DelUserNo)^0180h,w
  3911  01DD  160A  118A  213E   	fcall	_releaseEElocation
              120A  118A         
  3912                           	line	288
  3913                           	
  3914  01E2                     l14630:	
  3915                           ;main.c: 288: Delay(2);
  3916  01E2  3002               	movlw	low(02h)
  3917  01E3  1283               	bcf	status, 5	;RP0=0, select bank0
  3918  01E4  1303               	bcf	status, 6	;RP1=0, select bank0
  3919  01E5  00AD               	movwf	(?_Delay)
  3920  01E6  3000               	movlw	high(02h)
  3921  01E7  00AE               	movwf	((?_Delay))+1
  3922  01E8  160A  118A  253F   	fcall	_Delay
              120A  118A         
  3923                           	line	289
  3924                           ;main.c: 289: }
  3925  01ED  2A2E               	goto	l1508
  3926                           	line	290
  3927                           	
  3928  01EE                     l1524:	
  3929                           	line	292
  3930                           	
  3931  01EE                     l14632:	
  3932                           ;main.c: 290: else
  3933                           ;main.c: 291: {
  3934                           ;main.c: 292: LcdClear();
  3935  01EE  160A  118A  2032   	fcall	_LcdClear
              120A  118A         
  3936                           	line	293
  3937                           	
  3938  01F3                     l14634:	
  3939                           ;main.c: 293: LcdPrint("Cannot Delete",0,0);
  3940  01F3  30A2               	movlw	low(STR_28|8000h)
  3941  01F4  1283               	bcf	status, 5	;RP0=0, select bank0
  3942  01F5  1303               	bcf	status, 6	;RP1=0, select bank0
  3943  01F6  00AB               	movwf	(?_LcdPrint)
  3944  01F7  3086               	movlw	high(STR_28|8000h)
  3945  01F8  00AC               	movwf	((?_LcdPrint))+1
  3946  01F9  01AD               	clrf	0+(?_LcdPrint)+02h
  3947  01FA  01AE               	clrf	0+(?_LcdPrint)+03h
  3948  01FB  160A  118A  2723   	fcall	_LcdPrint
              120A  118A         
  3949                           	line	294
  3950                           	
  3951  0200                     l14636:	
  3952                           ;main.c: 294: Delay(2);
  3953  0200  3002               	movlw	low(02h)
  3954  0201  1283               	bcf	status, 5	;RP0=0, select bank0
  3955  0202  1303               	bcf	status, 6	;RP1=0, select bank0
  3956  0203  00AD               	movwf	(?_Delay)
  3957  0204  3000               	movlw	high(02h)
  3958  0205  00AE               	movwf	((?_Delay))+1
  3959  0206  160A  118A  253F   	fcall	_Delay
              120A  118A         
  3960  020B  2A2E               	goto	l1508
  3961                           	line	295
  3962                           	
  3963  020C                     l1525:	
  3964                           	line	296
  3965                           ;main.c: 295: }
  3966                           ;main.c: 296: }
  3967  020C  2A2E               	goto	l1508
  3968                           	line	297
  3969                           	
  3970  020D                     l1510:	
  3971                           	line	299
  3972                           	
  3973  020D                     l14638:	
  3974                           ;main.c: 297: else
  3975                           ;main.c: 298: {
  3976                           ;main.c: 299: LcdClear();
  3977  020D  160A  118A  2032   	fcall	_LcdClear
              120A  118A         
  3978                           	line	300
  3979                           	
  3980  0212                     l14640:	
  3981                           ;main.c: 300: LcdPrint("Admin Not\n  found",0,0);
  3982  0212  3082               	movlw	low(STR_29|8000h)
  3983  0213  1283               	bcf	status, 5	;RP0=0, select bank0
  3984  0214  1303               	bcf	status, 6	;RP1=0, select bank0
  3985  0215  00AB               	movwf	(?_LcdPrint)
  3986  0216  3086               	movlw	high(STR_29|8000h)
  3987  0217  00AC               	movwf	((?_LcdPrint))+1
  3988  0218  01AD               	clrf	0+(?_LcdPrint)+02h
  3989  0219  01AE               	clrf	0+(?_LcdPrint)+03h
  3990  021A  160A  118A  2723   	fcall	_LcdPrint
              120A  118A         
  3991                           	line	301
  3992                           	
  3993  021F                     l14642:	
  3994                           ;main.c: 301: Delay(2);
  3995  021F  3002               	movlw	low(02h)
  3996  0220  1283               	bcf	status, 5	;RP0=0, select bank0
  3997  0221  1303               	bcf	status, 6	;RP1=0, select bank0
  3998  0222  00AD               	movwf	(?_Delay)
  3999  0223  3000               	movlw	high(02h)
  4000  0224  00AE               	movwf	((?_Delay))+1
  4001  0225  160A  118A  253F   	fcall	_Delay
              120A  118A         
  4002  022A  2A2E               	goto	l1508
  4003                           	line	302
  4004                           	
  4005  022B                     l14644:	
  4006                           ;main.c: 302: return 0;
  4007                           ;	Return value of _DeleteUserAfterAdminConfirm is never used
  4008  022B  2A2E               	goto	l1508
  4009                           	line	303
  4010                           	
  4011  022C                     l1526:	
  4012  022C  2A2E               	goto	l1508
  4013                           	line	304
  4014                           	
  4015  022D                     l1509:	
  4016  022D  2A2E               	goto	l1508
  4017                           	line	305
  4018                           	
  4019  022E                     l1506:	
  4020                           	line	307
  4021                           ;main.c: 303: }
  4022                           ;main.c: 304: }
  4023                           ;main.c: 305: }
  4024                           ;main.c: 306: return 0;
  4025                           ;	Return value of _DeleteUserAfterAdminConfirm is never used
  4026                           	
  4027  022E                     l1508:	
  4028  022E  0008               	return
  4029                           	opt stack 0
  4030                           GLOBAL	__end_of_DeleteUserAfterAdminConfirm
  4031  022F                     	__end_of_DeleteUserAfterAdminConfirm:
  4032 ;; =============== function _DeleteUserAfterAdminConfirm ends ============
  4033                           
  4034                           	signat	_DeleteUserAfterAdminConfirm,89
  4035                           	global	_AddNewUserAfterAdminConfirm
  4036                           psect	text4237,local,class=CODE,delta=2
  4037                           global __ptext4237
  4038  0E84                     __ptext4237:
  4039                           
  4040 ;; *************** function _AddNewUserAfterAdminConfirm *****************
  4041 ;; Defined at:
  4042 ;;		line 171 in file "C:\Users\GauravLT\Desktop\Finger Print Sensor\R307\PIC16F877A_R307\main.c"
  4043 ;; Parameters:    Size  Location     Type
  4044 ;;		None
  4045 ;; Auto vars:     Size  Location     Type
  4046 ;;  buff           10    5[BANK1 ] unsigned char [10]
  4047 ;;  AddNewUserRe    1   19[BANK1 ] unsigned char 
  4048 ;;  availSpaceRe    1   18[BANK1 ] unsigned char 
  4049 ;;  _availSpaceR    1   17[BANK1 ] char 
  4050 ;;  UserNo          1   20[BANK1 ] unsigned char 
  4051 ;;  result          1   16[BANK1 ] unsigned char 
  4052 ;;  isAddNewUser    1   15[BANK1 ] unsigned char 
  4053 ;; Return value:  Size  Location     Type
  4054 ;;                  1    wreg      unsigned char 
  4055 ;; Registers used:
  4056 ;;		wreg, fsr0l, fsr0h, status,2, status,0, btemp+1, pclath, cstack
  4057 ;; Tracked objects:
  4058 ;;		On entry : 0/0
  4059 ;;		On exit  : 0/0
  4060 ;;		Unchanged: 0/0
  4061 ;; Data sizes:     COMMON   BANK0   BANK1   BANK3   BANK2
  4062 ;;      Params:         0       0       0       0       0
  4063 ;;      Locals:         0       0      16       0       0
  4064 ;;      Temps:          0       0       5       0       0
  4065 ;;      Totals:         0       0      21       0       0
  4066 ;;Total ram usage:       21 bytes
  4067 ;; Hardware stack levels used:    1
  4068 ;; Hardware stack levels required when called:    7
  4069 ;; This function calls:
  4070 ;;		_ee_read
  4071 ;;		_LcdClear
  4072 ;;		_LcdPrint
  4073 ;;		_HiSpeedScan0
  4074 ;;		_Delay
  4075 ;;		_getNextAvailLocation
  4076 ;;		_AddNewUser
  4077 ;;		_DecToStr
  4078 ;; This function is called by:
  4079 ;;		_main
  4080 ;; This function uses a non-reentrant model
  4081 ;;
  4082                           psect	text4237
  4083                           	file	"C:\Users\GauravLT\Desktop\Finger Print Sensor\R307\PIC16F877A_R307\main.c"
  4084                           	line	171
  4085                           	global	__size_of_AddNewUserAfterAdminConfirm
  4086  017C                     	__size_of_AddNewUserAfterAdminConfirm	equ	__end_of_AddNewUserAfterAdminConfirm-_AddNewU
                                 serAfterAdminConfirm
  4087                           	
  4088  0E84                     _AddNewUserAfterAdminConfirm:	
  4089                           	opt	stack 0
  4090                           ; Regs used in _AddNewUserAfterAdminConfirm: [wreg-fsr0h+status,2+status,0+btemp+1+pclat
                                 h+cstack]
  4091                           	line	172
  4092                           	
  4093  0E84                     l14468:	
  4094                           ;main.c: 172: unsigned char isAddNewUser=1;
  4095  0E84  1683               	bsf	status, 5	;RP0=1, select bank1
  4096  0E85  1303               	bcf	status, 6	;RP1=0, select bank1
  4097  0E86  01E6               	clrf	(AddNewUserAfterAdminConfirm@isAddNewUser)^080h
  4098  0E87  1403               	bsf	status,0
  4099  0E88  0DE6               	rlf	(AddNewUserAfterAdminConfirm@isAddNewUser)^080h,f
  4100                           	line	173
  4101                           	
  4102  0E89                     l14470:	
  4103                           ;main.c: 173: if(ee_read(0x00) == 0x01)
  4104  0E89  3000               	movlw	(0)
  4105  0E8A  160A  118A  206D   	fcall	_ee_read
              120A  158A         
  4106  0E8F  3A01               	xorlw	01h
  4107  0E90  1D03               	skipz
  4108  0E91  2E93               	goto	u14941
  4109  0E92  2E94               	goto	u14940
  4110  0E93                     u14941:
  4111  0E93  2F11               	goto	l14506
  4112  0E94                     u14940:
  4113                           	line	175
  4114                           	
  4115  0E94                     l14472:	
  4116                           ;main.c: 174: {
  4117                           ;main.c: 175: LcdClear();
  4118  0E94  160A  118A  2032   	fcall	_LcdClear
              120A  158A         
  4119                           	line	176
  4120                           	
  4121  0E99                     l14474:	
  4122                           ;main.c: 176: LcdPrint("Admin Required\nPlace Finger",0,0);
  4123  0E99  307A               	movlw	low(STR_17|8000h)
  4124  0E9A  1283               	bcf	status, 5	;RP0=0, select bank0
  4125  0E9B  1303               	bcf	status, 6	;RP1=0, select bank0
  4126  0E9C  00AB               	movwf	(?_LcdPrint)
  4127  0E9D  3085               	movlw	high(STR_17|8000h)
  4128  0E9E  00AC               	movwf	((?_LcdPrint))+1
  4129  0E9F  01AD               	clrf	0+(?_LcdPrint)+02h
  4130  0EA0  01AE               	clrf	0+(?_LcdPrint)+03h
  4131  0EA1  160A  118A  2723   	fcall	_LcdPrint
              120A  158A         
  4132                           	line	177
  4133                           	
  4134  0EA6                     l14476:	
  4135                           ;main.c: 177: isAddNewUser = 0;
  4136  0EA6  1683               	bsf	status, 5	;RP0=1, select bank1
  4137  0EA7  1303               	bcf	status, 6	;RP1=0, select bank1
  4138  0EA8  01E6               	clrf	(AddNewUserAfterAdminConfirm@isAddNewUser)^080h
  4139                           	line	180
  4140                           	
  4141  0EA9                     l14478:	
  4142                           ;main.c: 179: unsigned char UserNo;
  4143                           ;main.c: 180: unsigned char result = HiSpeedScan0(&UserNo);
  4144  0EA9  30EB               	movlw	(AddNewUserAfterAdminConfirm@UserNo&0ffh)
  4145  0EAA  1283               	bcf	status, 5	;RP0=0, select bank0
  4146  0EAB  1303               	bcf	status, 6	;RP1=0, select bank0
  4147  0EAC  00E9               	movwf	(?_HiSpeedScan0)
  4148  0EAD  3000               	movlw	(0x1/2)
  4149  0EAE  00EA               	movwf	(?_HiSpeedScan0+1)
  4150  0EAF  160A  118A  24EC   	fcall	_HiSpeedScan0
              120A  158A         
  4151  0EB4  1683               	bsf	status, 5	;RP0=1, select bank1
  4152  0EB5  1303               	bcf	status, 6	;RP1=0, select bank1
  4153  0EB6  00D7               	movwf	(??_AddNewUserAfterAdminConfirm+0)^080h+0
  4154  0EB7  0857               	movf	(??_AddNewUserAfterAdminConfirm+0)^080h+0,w
  4155  0EB8  00E7               	movwf	(AddNewUserAfterAdminConfirm@result)^080h
  4156                           	line	181
  4157                           	
  4158  0EB9                     l14480:	
  4159                           ;main.c: 181: if(result == 0xFF) return 0;
  4160  0EB9  0867               	movf	(AddNewUserAfterAdminConfirm@result)^080h,w
  4161  0EBA  3AFF               	xorlw	0FFh
  4162  0EBB  1D03               	skipz
  4163  0EBC  2EBE               	goto	u14951
  4164  0EBD  2EBF               	goto	u14950
  4165  0EBE                     u14951:
  4166  0EBE  2EC2               	goto	l14486
  4167  0EBF                     u14950:
  4168  0EBF  2FFF               	goto	l1493
  4169                           	
  4170  0EC0                     l14482:	
  4171                           ;	Return value of _AddNewUserAfterAdminConfirm is never used
  4172  0EC0  2FFF               	goto	l1493
  4173                           	
  4174  0EC1                     l14484:	
  4175  0EC1  2F11               	goto	l14506
  4176                           	line	182
  4177                           	
  4178  0EC2                     l1492:	
  4179                           	line	184
  4180                           	
  4181  0EC2                     l14486:	
  4182                           ;main.c: 182: else
  4183                           ;main.c: 183: {
  4184                           ;main.c: 184: if(result == 1 && UserNo == 0)
  4185  0EC2  0867               	movf	(AddNewUserAfterAdminConfirm@result)^080h,w
  4186  0EC3  3A01               	xorlw	01h
  4187  0EC4  1D03               	skipz
  4188  0EC5  2EC7               	goto	u14961
  4189  0EC6  2EC8               	goto	u14960
  4190  0EC7                     u14961:
  4191  0EC7  2EF0               	goto	l14498
  4192  0EC8                     u14960:
  4193                           	
  4194  0EC8                     l14488:	
  4195  0EC8  08EB               	movf	(AddNewUserAfterAdminConfirm@UserNo)^080h,f
  4196  0EC9  1D03               	skipz
  4197  0ECA  2ECC               	goto	u14971
  4198  0ECB  2ECD               	goto	u14970
  4199  0ECC                     u14971:
  4200  0ECC  2EF0               	goto	l14498
  4201  0ECD                     u14970:
  4202                           	line	186
  4203                           	
  4204  0ECD                     l14490:	
  4205                           ;main.c: 185: {
  4206                           ;main.c: 186: LcdClear();
  4207  0ECD  160A  118A  2032   	fcall	_LcdClear
              120A  158A         
  4208                           	line	187
  4209                           	
  4210  0ED2                     l14492:	
  4211                           ;main.c: 187: LcdPrint("Admin found",0,0);
  4212  0ED2  30BD               	movlw	low(STR_18|8000h)
  4213  0ED3  1283               	bcf	status, 5	;RP0=0, select bank0
  4214  0ED4  1303               	bcf	status, 6	;RP1=0, select bank0
  4215  0ED5  00AB               	movwf	(?_LcdPrint)
  4216  0ED6  3086               	movlw	high(STR_18|8000h)
  4217  0ED7  00AC               	movwf	((?_LcdPrint))+1
  4218  0ED8  01AD               	clrf	0+(?_LcdPrint)+02h
  4219  0ED9  01AE               	clrf	0+(?_LcdPrint)+03h
  4220  0EDA  160A  118A  2723   	fcall	_LcdPrint
              120A  158A         
  4221                           	line	188
  4222                           	
  4223  0EDF                     l14494:	
  4224                           ;main.c: 188: Delay(2);
  4225  0EDF  3002               	movlw	low(02h)
  4226  0EE0  1283               	bcf	status, 5	;RP0=0, select bank0
  4227  0EE1  1303               	bcf	status, 6	;RP1=0, select bank0
  4228  0EE2  00AD               	movwf	(?_Delay)
  4229  0EE3  3000               	movlw	high(02h)
  4230  0EE4  00AE               	movwf	((?_Delay))+1
  4231  0EE5  160A  118A  253F   	fcall	_Delay
              120A  158A         
  4232                           	line	189
  4233                           	
  4234  0EEA                     l14496:	
  4235                           ;main.c: 189: isAddNewUser = 1;
  4236  0EEA  1683               	bsf	status, 5	;RP0=1, select bank1
  4237  0EEB  1303               	bcf	status, 6	;RP1=0, select bank1
  4238  0EEC  01E6               	clrf	(AddNewUserAfterAdminConfirm@isAddNewUser)^080h
  4239  0EED  1403               	bsf	status,0
  4240  0EEE  0DE6               	rlf	(AddNewUserAfterAdminConfirm@isAddNewUser)^080h,f
  4241                           	line	190
  4242                           ;main.c: 190: }
  4243  0EEF  2F11               	goto	l14506
  4244                           	line	191
  4245                           	
  4246  0EF0                     l1495:	
  4247                           	line	193
  4248                           	
  4249  0EF0                     l14498:	
  4250                           ;main.c: 191: else
  4251                           ;main.c: 192: {
  4252                           ;main.c: 193: LcdClear();
  4253  0EF0  160A  118A  2032   	fcall	_LcdClear
              120A  158A         
  4254                           	line	194
  4255                           	
  4256  0EF5                     l14500:	
  4257                           ;main.c: 194: LcdPrint("Admin Not\n  found",0,0);
  4258  0EF5  3082               	movlw	low(STR_19|8000h)
  4259  0EF6  1283               	bcf	status, 5	;RP0=0, select bank0
  4260  0EF7  1303               	bcf	status, 6	;RP1=0, select bank0
  4261  0EF8  00AB               	movwf	(?_LcdPrint)
  4262  0EF9  3086               	movlw	high(STR_19|8000h)
  4263  0EFA  00AC               	movwf	((?_LcdPrint))+1
  4264  0EFB  01AD               	clrf	0+(?_LcdPrint)+02h
  4265  0EFC  01AE               	clrf	0+(?_LcdPrint)+03h
  4266  0EFD  160A  118A  2723   	fcall	_LcdPrint
              120A  158A         
  4267                           	line	195
  4268                           	
  4269  0F02                     l14502:	
  4270                           ;main.c: 195: Delay(2);
  4271  0F02  3002               	movlw	low(02h)
  4272  0F03  1283               	bcf	status, 5	;RP0=0, select bank0
  4273  0F04  1303               	bcf	status, 6	;RP1=0, select bank0
  4274  0F05  00AD               	movwf	(?_Delay)
  4275  0F06  3000               	movlw	high(02h)
  4276  0F07  00AE               	movwf	((?_Delay))+1
  4277  0F08  160A  118A  253F   	fcall	_Delay
              120A  158A         
  4278  0F0D  2FFF               	goto	l1493
  4279                           	line	196
  4280                           	
  4281  0F0E                     l14504:	
  4282                           ;main.c: 196: return 0;
  4283                           ;	Return value of _AddNewUserAfterAdminConfirm is never used
  4284  0F0E  2FFF               	goto	l1493
  4285                           	line	197
  4286                           	
  4287  0F0F                     l1496:	
  4288  0F0F  2F11               	goto	l14506
  4289                           	line	198
  4290                           	
  4291  0F10                     l1494:	
  4292  0F10  2F11               	goto	l14506
  4293                           	line	199
  4294                           	
  4295  0F11                     l1491:	
  4296                           	line	200
  4297                           	
  4298  0F11                     l14506:	
  4299                           ;main.c: 197: }
  4300                           ;main.c: 198: }
  4301                           ;main.c: 199: }
  4302                           ;main.c: 200: if(isAddNewUser == 1)
  4303  0F11  1683               	bsf	status, 5	;RP0=1, select bank1
  4304  0F12  1303               	bcf	status, 6	;RP1=0, select bank1
  4305  0F13  0866               	movf	(AddNewUserAfterAdminConfirm@isAddNewUser)^080h,w
  4306  0F14  3A01               	xorlw	01h
  4307  0F15  1D03               	skipz
  4308  0F16  2F18               	goto	u14981
  4309  0F17  2F19               	goto	u14980
  4310  0F18                     u14981:
  4311  0F18  2FFF               	goto	l1493
  4312  0F19                     u14980:
  4313                           	line	202
  4314                           	
  4315  0F19                     l14508:	
  4316                           ;main.c: 201: {
  4317                           ;main.c: 202: signed char _availSpaceResult = getNextAvailLocation();
  4318  0F19  160A  118A  2231   	fcall	_getNextAvailLocation
              120A  158A         
  4319  0F1E  1683               	bsf	status, 5	;RP0=1, select bank1
  4320  0F1F  1303               	bcf	status, 6	;RP1=0, select bank1
  4321  0F20  00D7               	movwf	(??_AddNewUserAfterAdminConfirm+0)^080h+0
  4322  0F21  0857               	movf	(??_AddNewUserAfterAdminConfirm+0)^080h+0,w
  4323  0F22  00E8               	movwf	(AddNewUserAfterAdminConfirm@_availSpaceResult)^080h
  4324                           	line	203
  4325                           	
  4326  0F23                     l14510:	
  4327                           ;main.c: 203: if(_availSpaceResult == -1)
  4328  0F23  0868               	movf	(AddNewUserAfterAdminConfirm@_availSpaceResult)^080h,w
  4329  0F24  3AFF               	xorlw	-1
  4330  0F25  1D03               	skipz
  4331  0F26  2F28               	goto	u14991
  4332  0F27  2F29               	goto	u14990
  4333  0F28                     u14991:
  4334  0F28  2F47               	goto	l14518
  4335  0F29                     u14990:
  4336                           	line	205
  4337                           	
  4338  0F29                     l14512:	
  4339                           ;main.c: 204: {
  4340                           ;main.c: 205: LcdClear();
  4341  0F29  160A  118A  2032   	fcall	_LcdClear
              120A  158A         
  4342                           	line	206
  4343                           	
  4344  0F2E                     l14514:	
  4345                           ;main.c: 206: LcdPrint("Not Enough\n Memory",0,0);
  4346  0F2E  306F               	movlw	low(STR_20|8000h)
  4347  0F2F  1283               	bcf	status, 5	;RP0=0, select bank0
  4348  0F30  1303               	bcf	status, 6	;RP1=0, select bank0
  4349  0F31  00AB               	movwf	(?_LcdPrint)
  4350  0F32  3086               	movlw	high(STR_20|8000h)
  4351  0F33  00AC               	movwf	((?_LcdPrint))+1
  4352  0F34  01AD               	clrf	0+(?_LcdPrint)+02h
  4353  0F35  01AE               	clrf	0+(?_LcdPrint)+03h
  4354  0F36  160A  118A  2723   	fcall	_LcdPrint
              120A  158A         
  4355                           	line	207
  4356                           	
  4357  0F3B                     l14516:	
  4358                           ;main.c: 207: Delay(2);
  4359  0F3B  3002               	movlw	low(02h)
  4360  0F3C  1283               	bcf	status, 5	;RP0=0, select bank0
  4361  0F3D  1303               	bcf	status, 6	;RP1=0, select bank0
  4362  0F3E  00AD               	movwf	(?_Delay)
  4363  0F3F  3000               	movlw	high(02h)
  4364  0F40  00AE               	movwf	((?_Delay))+1
  4365  0F41  160A  118A  253F   	fcall	_Delay
              120A  158A         
  4366                           	line	208
  4367                           ;main.c: 208: }
  4368  0F46  2FFF               	goto	l1493
  4369                           	line	209
  4370                           	
  4371  0F47                     l1498:	
  4372                           	line	211
  4373                           	
  4374  0F47                     l14518:	
  4375                           ;main.c: 209: else
  4376                           ;main.c: 210: {
  4377                           ;main.c: 211: LcdClear();
  4378  0F47  160A  118A  2032   	fcall	_LcdClear
              120A  158A         
  4379                           	line	212
  4380                           	
  4381  0F4C                     l14520:	
  4382                           ;main.c: 212: LcdPrint("New User\nPlace Finger",0,0);
  4383  0F4C  30F5               	movlw	low(STR_21|8000h)
  4384  0F4D  1283               	bcf	status, 5	;RP0=0, select bank0
  4385  0F4E  1303               	bcf	status, 6	;RP1=0, select bank0
  4386  0F4F  00AB               	movwf	(?_LcdPrint)
  4387  0F50  3085               	movlw	high(STR_21|8000h)
  4388  0F51  00AC               	movwf	((?_LcdPrint))+1
  4389  0F52  01AD               	clrf	0+(?_LcdPrint)+02h
  4390  0F53  01AE               	clrf	0+(?_LcdPrint)+03h
  4391  0F54  160A  118A  2723   	fcall	_LcdPrint
              120A  158A         
  4392                           	line	213
  4393                           	
  4394  0F59                     l14522:	
  4395                           ;main.c: 213: unsigned char availSpaceResult = _availSpaceResult;
  4396  0F59  1683               	bsf	status, 5	;RP0=1, select bank1
  4397  0F5A  1303               	bcf	status, 6	;RP1=0, select bank1
  4398  0F5B  0868               	movf	(AddNewUserAfterAdminConfirm@_availSpaceResult)^080h,w
  4399  0F5C  00D7               	movwf	(??_AddNewUserAfterAdminConfirm+0)^080h+0
  4400  0F5D  0857               	movf	(??_AddNewUserAfterAdminConfirm+0)^080h+0,w
  4401  0F5E  00E9               	movwf	(AddNewUserAfterAdminConfirm@availSpaceResult)^080h
  4402                           	line	214
  4403                           	
  4404  0F5F                     l14524:	
  4405                           ;main.c: 214: unsigned char AddNewUserResult = AddNewUser(availSpaceResult);
  4406  0F5F  0869               	movf	(AddNewUserAfterAdminConfirm@availSpaceResult)^080h,w
  4407  0F60  120A  158A  2191   	fcall	_AddNewUser
              120A  158A         
  4408  0F65  1683               	bsf	status, 5	;RP0=1, select bank1
  4409  0F66  1303               	bcf	status, 6	;RP1=0, select bank1
  4410  0F67  00D7               	movwf	(??_AddNewUserAfterAdminConfirm+0)^080h+0
  4411  0F68  0857               	movf	(??_AddNewUserAfterAdminConfirm+0)^080h+0,w
  4412  0F69  00EA               	movwf	(AddNewUserAfterAdminConfirm@AddNewUserResult)^080h
  4413                           	line	215
  4414                           	
  4415  0F6A                     l14526:	
  4416                           ;main.c: 215: if(AddNewUserResult == 1)
  4417  0F6A  086A               	movf	(AddNewUserAfterAdminConfirm@AddNewUserResult)^080h,w
  4418  0F6B  3A01               	xorlw	01h
  4419  0F6C  1D03               	skipz
  4420  0F6D  2F6F               	goto	u15001
  4421  0F6E  2F70               	goto	u15000
  4422  0F6F                     u15001:
  4423  0F6F  2FD2               	goto	l14536
  4424  0F70                     u15000:
  4425                           	line	218
  4426                           	
  4427  0F70                     l14528:	
  4428                           ;main.c: 216: {
  4429                           ;main.c: 217: unsigned char buff[10];
  4430                           ;main.c: 218: LcdClear();
  4431  0F70  160A  118A  2032   	fcall	_LcdClear
              120A  158A         
  4432                           	line	219
  4433                           	
  4434  0F75                     l14530:	
  4435                           ;main.c: 219: LcdPrint("New User\n Created @:",0,0);
  4436  0F75  300B               	movlw	low(STR_22|8000h)
  4437  0F76  1283               	bcf	status, 5	;RP0=0, select bank0
  4438  0F77  1303               	bcf	status, 6	;RP1=0, select bank0
  4439  0F78  00AB               	movwf	(?_LcdPrint)
  4440  0F79  3086               	movlw	high(STR_22|8000h)
  4441  0F7A  00AC               	movwf	((?_LcdPrint))+1
  4442  0F7B  01AD               	clrf	0+(?_LcdPrint)+02h
  4443  0F7C  01AE               	clrf	0+(?_LcdPrint)+03h
  4444  0F7D  160A  118A  2723   	fcall	_LcdPrint
              120A  158A         
  4445                           	line	220
  4446                           	
  4447  0F82                     l14532:	
  4448                           ;main.c: 220: DecToStr(availSpaceResult, buff, 2);
  4449  0F82  1683               	bsf	status, 5	;RP0=1, select bank1
  4450  0F83  1303               	bcf	status, 6	;RP1=0, select bank1
  4451  0F84  0869               	movf	(AddNewUserAfterAdminConfirm@availSpaceResult)^080h,w
  4452  0F85  00D7               	movwf	(??_AddNewUserAfterAdminConfirm+0)^080h+0
  4453  0F86  01D8               	clrf	((??_AddNewUserAfterAdminConfirm+0)^080h+0+1)
  4454  0F87  01D9               	clrf	((??_AddNewUserAfterAdminConfirm+0)^080h+0+2)
  4455  0F88  01DA               	clrf	((??_AddNewUserAfterAdminConfirm+0)^080h+0+3)
  4456  0F89  085A               	movf	3+(??_AddNewUserAfterAdminConfirm+0)^080h+0,w
  4457  0F8A  1283               	bcf	status, 5	;RP0=0, select bank0
  4458  0F8B  1303               	bcf	status, 6	;RP1=0, select bank0
  4459  0F8C  00B7               	movwf	(?_DecToStr+3)
  4460  0F8D  1683               	bsf	status, 5	;RP0=1, select bank1
  4461  0F8E  1303               	bcf	status, 6	;RP1=0, select bank1
  4462  0F8F  0859               	movf	2+(??_AddNewUserAfterAdminConfirm+0)^080h+0,w
  4463  0F90  1283               	bcf	status, 5	;RP0=0, select bank0
  4464  0F91  1303               	bcf	status, 6	;RP1=0, select bank0
  4465  0F92  00B6               	movwf	(?_DecToStr+2)
  4466  0F93  1683               	bsf	status, 5	;RP0=1, select bank1
  4467  0F94  1303               	bcf	status, 6	;RP1=0, select bank1
  4468  0F95  0858               	movf	1+(??_AddNewUserAfterAdminConfirm+0)^080h+0,w
  4469  0F96  1283               	bcf	status, 5	;RP0=0, select bank0
  4470  0F97  1303               	bcf	status, 6	;RP1=0, select bank0
  4471  0F98  00B5               	movwf	(?_DecToStr+1)
  4472  0F99  1683               	bsf	status, 5	;RP0=1, select bank1
  4473  0F9A  1303               	bcf	status, 6	;RP1=0, select bank1
  4474  0F9B  0857               	movf	0+(??_AddNewUserAfterAdminConfirm+0)^080h+0,w
  4475  0F9C  1283               	bcf	status, 5	;RP0=0, select bank0
  4476  0F9D  1303               	bcf	status, 6	;RP1=0, select bank0
  4477  0F9E  00B4               	movwf	(?_DecToStr)
  4478                           
  4479  0F9F  30DC               	movlw	(AddNewUserAfterAdminConfirm@buff&0ffh)
  4480  0FA0  00B8               	movwf	(0+?_DecToStr+04h)
  4481  0FA1  3000               	movlw	(0x1/2)
  4482  0FA2  00B9               	movwf	(1+?_DecToStr+04h)
  4483  0FA3  3002               	movlw	(02h)
  4484  0FA4  1683               	bsf	status, 5	;RP0=1, select bank1
  4485  0FA5  1303               	bcf	status, 6	;RP1=0, select bank1
  4486  0FA6  00DB               	movwf	(??_AddNewUserAfterAdminConfirm+4)^080h+0
  4487  0FA7  085B               	movf	(??_AddNewUserAfterAdminConfirm+4)^080h+0,w
  4488  0FA8  1283               	bcf	status, 5	;RP0=0, select bank0
  4489  0FA9  1303               	bcf	status, 6	;RP1=0, select bank0
  4490  0FAA  00BA               	movwf	0+(?_DecToStr)+06h
  4491  0FAB  120A  158A  208F   	fcall	_DecToStr
              120A  158A         
  4492                           	line	221
  4493                           ;main.c: 221: LcdPrint(buff, 1, 12);
  4494  0FB0  30DC               	movlw	(AddNewUserAfterAdminConfirm@buff&0ffh)
  4495  0FB1  1283               	bcf	status, 5	;RP0=0, select bank0
  4496  0FB2  1303               	bcf	status, 6	;RP1=0, select bank0
  4497  0FB3  00AB               	movwf	(?_LcdPrint)
  4498  0FB4  3000               	movlw	(0x1/2)
  4499  0FB5  00AC               	movwf	(?_LcdPrint+1)
  4500  0FB6  01AD               	clrf	0+(?_LcdPrint)+02h
  4501  0FB7  1403               	bsf	status,0
  4502  0FB8  0DAD               	rlf	0+(?_LcdPrint)+02h,f
  4503  0FB9  300C               	movlw	(0Ch)
  4504  0FBA  1683               	bsf	status, 5	;RP0=1, select bank1
  4505  0FBB  1303               	bcf	status, 6	;RP1=0, select bank1
  4506  0FBC  00D7               	movwf	(??_AddNewUserAfterAdminConfirm+0)^080h+0
  4507  0FBD  0857               	movf	(??_AddNewUserAfterAdminConfirm+0)^080h+0,w
  4508  0FBE  1283               	bcf	status, 5	;RP0=0, select bank0
  4509  0FBF  1303               	bcf	status, 6	;RP1=0, select bank0
  4510  0FC0  00AE               	movwf	0+(?_LcdPrint)+03h
  4511  0FC1  160A  118A  2723   	fcall	_LcdPrint
              120A  158A         
  4512                           	line	222
  4513                           	
  4514  0FC6                     l14534:	
  4515                           ;main.c: 222: Delay(2);
  4516  0FC6  3002               	movlw	low(02h)
  4517  0FC7  1283               	bcf	status, 5	;RP0=0, select bank0
  4518  0FC8  1303               	bcf	status, 6	;RP1=0, select bank0
  4519  0FC9  00AD               	movwf	(?_Delay)
  4520  0FCA  3000               	movlw	high(02h)
  4521  0FCB  00AE               	movwf	((?_Delay))+1
  4522  0FCC  160A  118A  253F   	fcall	_Delay
              120A  158A         
  4523                           	line	223
  4524                           ;main.c: 223: }
  4525  0FD1  2FFF               	goto	l1493
  4526                           	line	224
  4527                           	
  4528  0FD2                     l1500:	
  4529                           	
  4530  0FD2                     l14536:	
  4531                           ;main.c: 224: else if(AddNewUserResult == 0xFF) return 0;
  4532  0FD2  1683               	bsf	status, 5	;RP0=1, select bank1
  4533  0FD3  1303               	bcf	status, 6	;RP1=0, select bank1
  4534  0FD4  086A               	movf	(AddNewUserAfterAdminConfirm@AddNewUserResult)^080h,w
  4535  0FD5  3AFF               	xorlw	0FFh
  4536  0FD6  1D03               	skipz
  4537  0FD7  2FD9               	goto	u15011
  4538  0FD8  2FDA               	goto	u15010
  4539  0FD9                     u15011:
  4540  0FD9  2FDD               	goto	l14542
  4541  0FDA                     u15010:
  4542  0FDA  2FFF               	goto	l1493
  4543                           	
  4544  0FDB                     l14538:	
  4545                           ;	Return value of _AddNewUserAfterAdminConfirm is never used
  4546  0FDB  2FFF               	goto	l1493
  4547                           	
  4548  0FDC                     l14540:	
  4549  0FDC  2FFF               	goto	l1493
  4550                           	line	225
  4551                           	
  4552  0FDD                     l1502:	
  4553                           	line	227
  4554                           	
  4555  0FDD                     l14542:	
  4556                           ;main.c: 225: else
  4557                           ;main.c: 226: {
  4558                           ;main.c: 227: LcdClear();
  4559  0FDD  160A  118A  2032   	fcall	_LcdClear
              120A  158A         
  4560                           	line	228
  4561                           	
  4562  0FE2                     l14544:	
  4563                           ;main.c: 228: LcdPrint("Error In\n User Creation",0,0);
  4564  0FE2  30C7               	movlw	low(STR_23|8000h)
  4565  0FE3  1283               	bcf	status, 5	;RP0=0, select bank0
  4566  0FE4  1303               	bcf	status, 6	;RP1=0, select bank0
  4567  0FE5  00AB               	movwf	(?_LcdPrint)
  4568  0FE6  3085               	movlw	high(STR_23|8000h)
  4569  0FE7  00AC               	movwf	((?_LcdPrint))+1
  4570  0FE8  01AD               	clrf	0+(?_LcdPrint)+02h
  4571  0FE9  01AE               	clrf	0+(?_LcdPrint)+03h
  4572  0FEA  160A  118A  2723   	fcall	_LcdPrint
              120A  158A         
  4573                           	line	229
  4574                           	
  4575  0FEF                     l14546:	
  4576                           ;main.c: 229: Delay(2);
  4577  0FEF  3002               	movlw	low(02h)
  4578  0FF0  1283               	bcf	status, 5	;RP0=0, select bank0
  4579  0FF1  1303               	bcf	status, 6	;RP1=0, select bank0
  4580  0FF2  00AD               	movwf	(?_Delay)
  4581  0FF3  3000               	movlw	high(02h)
  4582  0FF4  00AE               	movwf	((?_Delay))+1
  4583  0FF5  160A  118A  253F   	fcall	_Delay
              120A  158A         
  4584  0FFA  2FFF               	goto	l1493
  4585                           	line	230
  4586                           	
  4587  0FFB                     l1503:	
  4588  0FFB  2FFF               	goto	l1493
  4589                           	
  4590  0FFC                     l1501:	
  4591  0FFC  2FFF               	goto	l1493
  4592                           	line	231
  4593                           	
  4594  0FFD                     l1499:	
  4595  0FFD  2FFF               	goto	l1493
  4596                           	line	232
  4597                           	
  4598  0FFE                     l1497:	
  4599  0FFE  2FFF               	goto	l1493
  4600                           	line	233
  4601                           	
  4602  0FFF                     l14548:	
  4603                           	line	234
  4604                           ;main.c: 230: }
  4605                           ;main.c: 231: }
  4606                           ;main.c: 232: }
  4607                           ;main.c: 233: return 0;
  4608                           ;	Return value of _AddNewUserAfterAdminConfirm is never used
  4609                           	
  4610  0FFF                     l1493:	
  4611  0FFF  0008               	return
  4612                           	opt stack 0
  4613                           GLOBAL	__end_of_AddNewUserAfterAdminConfirm
  4614  1000                     	__end_of_AddNewUserAfterAdminConfirm:
  4615 ;; =============== function _AddNewUserAfterAdminConfirm ends ============
  4616                           
  4617                           	signat	_AddNewUserAfterAdminConfirm,89
  4618                           	global	_AlterAdminUser
  4619                           psect	text4238,local,class=CODE,delta=2
  4620                           global __ptext4238
  4621  0D0D                     __ptext4238:
  4622                           
  4623 ;; *************** function _AlterAdminUser *****************
  4624 ;; Defined at:
  4625 ;;		line 99 in file "C:\Users\GauravLT\Desktop\Finger Print Sensor\R307\PIC16F877A_R307\main.c"
  4626 ;; Parameters:    Size  Location     Type
  4627 ;;		None
  4628 ;; Auto vars:     Size  Location     Type
  4629 ;;  NewUserResul    1    2[BANK1 ] unsigned char 
  4630 ;;  UserNo          1    3[BANK1 ] unsigned char 
  4631 ;;  result          1    1[BANK1 ] unsigned char 
  4632 ;;  Create0thPos    1    0[BANK1 ] unsigned char 
  4633 ;; Return value:  Size  Location     Type
  4634 ;;                  1    wreg      unsigned char 
  4635 ;; Registers used:
  4636 ;;		wreg, fsr0l, fsr0h, status,2, status,0, btemp+1, pclath, cstack
  4637 ;; Tracked objects:
  4638 ;;		On entry : 0/0
  4639 ;;		On exit  : 0/0
  4640 ;;		Unchanged: 0/0
  4641 ;; Data sizes:     COMMON   BANK0   BANK1   BANK3   BANK2
  4642 ;;      Params:         0       0       0       0       0
  4643 ;;      Locals:         0       0       4       0       0
  4644 ;;      Temps:          0       1       0       0       0
  4645 ;;      Totals:         0       1       4       0       0
  4646 ;;Total ram usage:        5 bytes
  4647 ;; Hardware stack levels used:    1
  4648 ;; Hardware stack levels required when called:    7
  4649 ;; This function calls:
  4650 ;;		_ee_read
  4651 ;;		_LcdClear
  4652 ;;		_LcdPrint
  4653 ;;		_HiSpeedScan0
  4654 ;;		_Delay
  4655 ;;		_DeleteUser
  4656 ;;		_AddNewUser
  4657 ;; This function is called by:
  4658 ;;		_main
  4659 ;; This function uses a non-reentrant model
  4660 ;;
  4661                           psect	text4238
  4662                           	file	"C:\Users\GauravLT\Desktop\Finger Print Sensor\R307\PIC16F877A_R307\main.c"
  4663                           	line	99
  4664                           	global	__size_of_AlterAdminUser
  4665  0177                     	__size_of_AlterAdminUser	equ	__end_of_AlterAdminUser-_AlterAdminUser
  4666                           	
  4667  0D0D                     _AlterAdminUser:	
  4668                           	opt	stack 0
  4669                           ; Regs used in _AlterAdminUser: [wreg-fsr0h+status,2+status,0+btemp+1+pclath+cstack]
  4670                           	line	100
  4671                           	
  4672  0D0D                     l14378:	
  4673                           ;main.c: 100: unsigned char Create0thPositionUser=1;
  4674  0D0D  1683               	bsf	status, 5	;RP0=1, select bank1
  4675  0D0E  1303               	bcf	status, 6	;RP1=0, select bank1
  4676  0D0F  01D7               	clrf	(AlterAdminUser@Create0thPositionUser)^080h
  4677  0D10  1403               	bsf	status,0
  4678  0D11  0DD7               	rlf	(AlterAdminUser@Create0thPositionUser)^080h,f
  4679                           	line	102
  4680                           	
  4681  0D12                     l14380:	
  4682                           ;main.c: 102: if(ee_read(0x00) == 0x01)
  4683  0D12  3000               	movlw	(0)
  4684  0D13  160A  118A  206D   	fcall	_ee_read
              120A  158A         
  4685  0D18  3A01               	xorlw	01h
  4686  0D19  1D03               	skipz
  4687  0D1A  2D1C               	goto	u14861
  4688  0D1B  2D1D               	goto	u14860
  4689  0D1C                     u14861:
  4690  0D1C  2DE4               	goto	l14432
  4691  0D1D                     u14860:
  4692                           	line	104
  4693                           	
  4694  0D1D                     l14382:	
  4695                           ;main.c: 103: {
  4696                           ;main.c: 104: LcdClear();
  4697  0D1D  160A  118A  2032   	fcall	_LcdClear
              120A  158A         
  4698                           	line	105
  4699                           	
  4700  0D22                     l14384:	
  4701                           ;main.c: 105: LcdPrint("Admin Required\nPlace Finger",0,0);
  4702  0D22  307A               	movlw	low(STR_8|8000h)
  4703  0D23  1283               	bcf	status, 5	;RP0=0, select bank0
  4704  0D24  1303               	bcf	status, 6	;RP1=0, select bank0
  4705  0D25  00AB               	movwf	(?_LcdPrint)
  4706  0D26  3085               	movlw	high(STR_8|8000h)
  4707  0D27  00AC               	movwf	((?_LcdPrint))+1
  4708  0D28  01AD               	clrf	0+(?_LcdPrint)+02h
  4709  0D29  01AE               	clrf	0+(?_LcdPrint)+03h
  4710  0D2A  160A  118A  2723   	fcall	_LcdPrint
              120A  158A         
  4711                           	line	106
  4712                           	
  4713  0D2F                     l14386:	
  4714                           ;main.c: 106: Create0thPositionUser = 0;
  4715  0D2F  1683               	bsf	status, 5	;RP0=1, select bank1
  4716  0D30  1303               	bcf	status, 6	;RP1=0, select bank1
  4717  0D31  01D7               	clrf	(AlterAdminUser@Create0thPositionUser)^080h
  4718                           	line	109
  4719                           	
  4720  0D32                     l14388:	
  4721                           ;main.c: 108: unsigned char UserNo;
  4722                           ;main.c: 109: unsigned char result = HiSpeedScan0(&UserNo);
  4723  0D32  30DA               	movlw	(AlterAdminUser@UserNo&0ffh)
  4724  0D33  1283               	bcf	status, 5	;RP0=0, select bank0
  4725  0D34  1303               	bcf	status, 6	;RP1=0, select bank0
  4726  0D35  00E9               	movwf	(?_HiSpeedScan0)
  4727  0D36  3000               	movlw	(0x1/2)
  4728  0D37  00EA               	movwf	(?_HiSpeedScan0+1)
  4729  0D38  160A  118A  24EC   	fcall	_HiSpeedScan0
              120A  158A         
  4730  0D3D  1283               	bcf	status, 5	;RP0=0, select bank0
  4731  0D3E  1303               	bcf	status, 6	;RP1=0, select bank0
  4732  0D3F  00ED               	movwf	(??_AlterAdminUser+0)+0
  4733  0D40  086D               	movf	(??_AlterAdminUser+0)+0,w
  4734  0D41  1683               	bsf	status, 5	;RP0=1, select bank1
  4735  0D42  1303               	bcf	status, 6	;RP1=0, select bank1
  4736  0D43  00D8               	movwf	(AlterAdminUser@result)^080h
  4737                           	line	110
  4738                           	
  4739  0D44                     l14390:	
  4740                           ;main.c: 110: if(result == 0xFF) return 0;
  4741  0D44  0858               	movf	(AlterAdminUser@result)^080h,w
  4742  0D45  3AFF               	xorlw	0FFh
  4743  0D46  1D03               	skipz
  4744  0D47  2D49               	goto	u14871
  4745  0D48  2D4A               	goto	u14870
  4746  0D49                     u14871:
  4747  0D49  2D4D               	goto	l14396
  4748  0D4A                     u14870:
  4749  0D4A  2E83               	goto	l1478
  4750                           	
  4751  0D4B                     l14392:	
  4752                           ;	Return value of _AlterAdminUser is never used
  4753  0D4B  2E83               	goto	l1478
  4754                           	
  4755  0D4C                     l14394:	
  4756  0D4C  2DE4               	goto	l14432
  4757                           	line	111
  4758                           	
  4759  0D4D                     l1477:	
  4760                           	line	113
  4761                           	
  4762  0D4D                     l14396:	
  4763                           ;main.c: 111: else
  4764                           ;main.c: 112: {
  4765                           ;main.c: 113: if(result == 1 && UserNo == 0)
  4766  0D4D  0858               	movf	(AlterAdminUser@result)^080h,w
  4767  0D4E  3A01               	xorlw	01h
  4768  0D4F  1D03               	skipz
  4769  0D50  2D52               	goto	u14881
  4770  0D51  2D53               	goto	u14880
  4771  0D52                     u14881:
  4772  0D52  2DC3               	goto	l14424
  4773  0D53                     u14880:
  4774                           	
  4775  0D53                     l14398:	
  4776  0D53  08DA               	movf	(AlterAdminUser@UserNo)^080h,f
  4777  0D54  1D03               	skipz
  4778  0D55  2D57               	goto	u14891
  4779  0D56  2D58               	goto	u14890
  4780  0D57                     u14891:
  4781  0D57  2DC3               	goto	l14424
  4782  0D58                     u14890:
  4783                           	line	115
  4784                           	
  4785  0D58                     l14400:	
  4786                           ;main.c: 114: {
  4787                           ;main.c: 115: LcdClear();
  4788  0D58  160A  118A  2032   	fcall	_LcdClear
              120A  158A         
  4789                           	line	116
  4790                           	
  4791  0D5D                     l14402:	
  4792                           ;main.c: 116: LcdPrint("Admin found",0,0);
  4793  0D5D  30BD               	movlw	low(STR_9|8000h)
  4794  0D5E  1283               	bcf	status, 5	;RP0=0, select bank0
  4795  0D5F  1303               	bcf	status, 6	;RP1=0, select bank0
  4796  0D60  00AB               	movwf	(?_LcdPrint)
  4797  0D61  3086               	movlw	high(STR_9|8000h)
  4798  0D62  00AC               	movwf	((?_LcdPrint))+1
  4799  0D63  01AD               	clrf	0+(?_LcdPrint)+02h
  4800  0D64  01AE               	clrf	0+(?_LcdPrint)+03h
  4801  0D65  160A  118A  2723   	fcall	_LcdPrint
              120A  158A         
  4802                           	line	117
  4803                           	
  4804  0D6A                     l14404:	
  4805                           ;main.c: 117: Delay(2);
  4806  0D6A  3002               	movlw	low(02h)
  4807  0D6B  1283               	bcf	status, 5	;RP0=0, select bank0
  4808  0D6C  1303               	bcf	status, 6	;RP1=0, select bank0
  4809  0D6D  00AD               	movwf	(?_Delay)
  4810  0D6E  3000               	movlw	high(02h)
  4811  0D6F  00AE               	movwf	((?_Delay))+1
  4812  0D70  160A  118A  253F   	fcall	_Delay
              120A  158A         
  4813                           	line	118
  4814                           	
  4815  0D75                     l14406:	
  4816                           ;main.c: 118: if(DeleteUser(0x00) == 1)
  4817  0D75  3000               	movlw	(0)
  4818  0D76  160A  118A  25F6   	fcall	_DeleteUser
              120A  158A         
  4819  0D7B  3A01               	xorlw	01h
  4820  0D7C  1D03               	skipz
  4821  0D7D  2D7F               	goto	u14901
  4822  0D7E  2D80               	goto	u14900
  4823  0D7F                     u14901:
  4824  0D7F  2DA3               	goto	l14416
  4825  0D80                     u14900:
  4826                           	line	120
  4827                           	
  4828  0D80                     l14408:	
  4829                           ;main.c: 119: {
  4830                           ;main.c: 120: LcdClear();
  4831  0D80  160A  118A  2032   	fcall	_LcdClear
              120A  158A         
  4832                           	line	121
  4833                           	
  4834  0D85                     l14410:	
  4835                           ;main.c: 121: LcdPrint("Admin Deleted",0,0);
  4836  0D85  3094               	movlw	low(STR_10|8000h)
  4837  0D86  1283               	bcf	status, 5	;RP0=0, select bank0
  4838  0D87  1303               	bcf	status, 6	;RP1=0, select bank0
  4839  0D88  00AB               	movwf	(?_LcdPrint)
  4840  0D89  3086               	movlw	high(STR_10|8000h)
  4841  0D8A  00AC               	movwf	((?_LcdPrint))+1
  4842  0D8B  01AD               	clrf	0+(?_LcdPrint)+02h
  4843  0D8C  01AE               	clrf	0+(?_LcdPrint)+03h
  4844  0D8D  160A  118A  2723   	fcall	_LcdPrint
              120A  158A         
  4845                           	line	122
  4846                           	
  4847  0D92                     l14412:	
  4848                           ;main.c: 122: Delay(1);
  4849  0D92  3001               	movlw	low(01h)
  4850  0D93  1283               	bcf	status, 5	;RP0=0, select bank0
  4851  0D94  1303               	bcf	status, 6	;RP1=0, select bank0
  4852  0D95  00AD               	movwf	(?_Delay)
  4853  0D96  3000               	movlw	high(01h)
  4854  0D97  00AE               	movwf	((?_Delay))+1
  4855  0D98  160A  118A  253F   	fcall	_Delay
              120A  158A         
  4856                           	line	123
  4857                           	
  4858  0D9D                     l14414:	
  4859                           ;main.c: 123: Create0thPositionUser = 1;
  4860  0D9D  1683               	bsf	status, 5	;RP0=1, select bank1
  4861  0D9E  1303               	bcf	status, 6	;RP1=0, select bank1
  4862  0D9F  01D7               	clrf	(AlterAdminUser@Create0thPositionUser)^080h
  4863  0DA0  1403               	bsf	status,0
  4864  0DA1  0DD7               	rlf	(AlterAdminUser@Create0thPositionUser)^080h,f
  4865                           	line	124
  4866                           ;main.c: 124: }
  4867  0DA2  2DE4               	goto	l14432
  4868                           	line	125
  4869                           	
  4870  0DA3                     l1481:	
  4871                           	line	127
  4872                           	
  4873  0DA3                     l14416:	
  4874                           ;main.c: 125: else
  4875                           ;main.c: 126: {
  4876                           ;main.c: 127: LcdClear();
  4877  0DA3  160A  118A  2032   	fcall	_LcdClear
              120A  158A         
  4878                           	line	128
  4879                           	
  4880  0DA8                     l14418:	
  4881                           ;main.c: 128: LcdPrint("Can't Delete\n Admin",0,0);
  4882  0DA8  3048               	movlw	low(STR_11|8000h)
  4883  0DA9  1283               	bcf	status, 5	;RP0=0, select bank0
  4884  0DAA  1303               	bcf	status, 6	;RP1=0, select bank0
  4885  0DAB  00AB               	movwf	(?_LcdPrint)
  4886  0DAC  3086               	movlw	high(STR_11|8000h)
  4887  0DAD  00AC               	movwf	((?_LcdPrint))+1
  4888  0DAE  01AD               	clrf	0+(?_LcdPrint)+02h
  4889  0DAF  01AE               	clrf	0+(?_LcdPrint)+03h
  4890  0DB0  160A  118A  2723   	fcall	_LcdPrint
              120A  158A         
  4891                           	line	129
  4892                           	
  4893  0DB5                     l14420:	
  4894                           ;main.c: 129: Delay(2);
  4895  0DB5  3002               	movlw	low(02h)
  4896  0DB6  1283               	bcf	status, 5	;RP0=0, select bank0
  4897  0DB7  1303               	bcf	status, 6	;RP1=0, select bank0
  4898  0DB8  00AD               	movwf	(?_Delay)
  4899  0DB9  3000               	movlw	high(02h)
  4900  0DBA  00AE               	movwf	((?_Delay))+1
  4901  0DBB  160A  118A  253F   	fcall	_Delay
              120A  158A         
  4902  0DC0  2E83               	goto	l1478
  4903                           	line	130
  4904                           	
  4905  0DC1                     l14422:	
  4906                           ;main.c: 130: return 0;
  4907                           ;	Return value of _AlterAdminUser is never used
  4908  0DC1  2E83               	goto	l1478
  4909                           	line	131
  4910                           	
  4911  0DC2                     l1482:	
  4912                           	line	132
  4913                           ;main.c: 131: }
  4914                           ;main.c: 132: }
  4915  0DC2  2DE4               	goto	l14432
  4916                           	line	133
  4917                           	
  4918  0DC3                     l1480:	
  4919                           	line	135
  4920                           	
  4921  0DC3                     l14424:	
  4922                           ;main.c: 133: else
  4923                           ;main.c: 134: {
  4924                           ;main.c: 135: LcdClear();
  4925  0DC3  160A  118A  2032   	fcall	_LcdClear
              120A  158A         
  4926                           	line	136
  4927                           	
  4928  0DC8                     l14426:	
  4929                           ;main.c: 136: LcdPrint("Admin Not\n  found",0,0);
  4930  0DC8  3082               	movlw	low(STR_12|8000h)
  4931  0DC9  1283               	bcf	status, 5	;RP0=0, select bank0
  4932  0DCA  1303               	bcf	status, 6	;RP1=0, select bank0
  4933  0DCB  00AB               	movwf	(?_LcdPrint)
  4934  0DCC  3086               	movlw	high(STR_12|8000h)
  4935  0DCD  00AC               	movwf	((?_LcdPrint))+1
  4936  0DCE  01AD               	clrf	0+(?_LcdPrint)+02h
  4937  0DCF  01AE               	clrf	0+(?_LcdPrint)+03h
  4938  0DD0  160A  118A  2723   	fcall	_LcdPrint
              120A  158A         
  4939                           	line	137
  4940                           	
  4941  0DD5                     l14428:	
  4942                           ;main.c: 137: Delay(2);
  4943  0DD5  3002               	movlw	low(02h)
  4944  0DD6  1283               	bcf	status, 5	;RP0=0, select bank0
  4945  0DD7  1303               	bcf	status, 6	;RP1=0, select bank0
  4946  0DD8  00AD               	movwf	(?_Delay)
  4947  0DD9  3000               	movlw	high(02h)
  4948  0DDA  00AE               	movwf	((?_Delay))+1
  4949  0DDB  160A  118A  253F   	fcall	_Delay
              120A  158A         
  4950  0DE0  2E83               	goto	l1478
  4951                           	line	138
  4952                           	
  4953  0DE1                     l14430:	
  4954                           ;main.c: 138: return 0;
  4955                           ;	Return value of _AlterAdminUser is never used
  4956  0DE1  2E83               	goto	l1478
  4957                           	line	139
  4958                           	
  4959  0DE2                     l1483:	
  4960  0DE2  2DE4               	goto	l14432
  4961                           	line	140
  4962                           	
  4963  0DE3                     l1479:	
  4964  0DE3  2DE4               	goto	l14432
  4965                           	line	141
  4966                           	
  4967  0DE4                     l1476:	
  4968                           	line	142
  4969                           	
  4970  0DE4                     l14432:	
  4971                           ;main.c: 139: }
  4972                           ;main.c: 140: }
  4973                           ;main.c: 141: }
  4974                           ;main.c: 142: if(Create0thPositionUser == 1)
  4975  0DE4  1683               	bsf	status, 5	;RP0=1, select bank1
  4976  0DE5  1303               	bcf	status, 6	;RP1=0, select bank1
  4977  0DE6  0857               	movf	(AlterAdminUser@Create0thPositionUser)^080h,w
  4978  0DE7  3A01               	xorlw	01h
  4979  0DE8  1D03               	skipz
  4980  0DE9  2DEB               	goto	u14911
  4981  0DEA  2DEC               	goto	u14910
  4982  0DEB                     u14911:
  4983  0DEB  2E83               	goto	l1478
  4984  0DEC                     u14910:
  4985                           	line	144
  4986                           	
  4987  0DEC                     l14434:	
  4988                           ;main.c: 143: {
  4989                           ;main.c: 144: LcdClear();
  4990  0DEC  160A  118A  2032   	fcall	_LcdClear
              120A  158A         
  4991                           	line	145
  4992                           	
  4993  0DF1                     l14436:	
  4994                           ;main.c: 145: LcdPrint("Plz Register\n new Admin",0,0);
  4995  0DF1  30AF               	movlw	low(STR_13|8000h)
  4996  0DF2  1283               	bcf	status, 5	;RP0=0, select bank0
  4997  0DF3  1303               	bcf	status, 6	;RP1=0, select bank0
  4998  0DF4  00AB               	movwf	(?_LcdPrint)
  4999  0DF5  3085               	movlw	high(STR_13|8000h)
  5000  0DF6  00AC               	movwf	((?_LcdPrint))+1
  5001  0DF7  01AD               	clrf	0+(?_LcdPrint)+02h
  5002  0DF8  01AE               	clrf	0+(?_LcdPrint)+03h
  5003  0DF9  160A  118A  2723   	fcall	_LcdPrint
              120A  158A         
  5004                           	line	146
  5005                           	
  5006  0DFE                     l14438:	
  5007                           ;main.c: 146: Delay(2);
  5008  0DFE  3002               	movlw	low(02h)
  5009  0DFF  1283               	bcf	status, 5	;RP0=0, select bank0
  5010  0E00  1303               	bcf	status, 6	;RP1=0, select bank0
  5011  0E01  00AD               	movwf	(?_Delay)
  5012  0E02  3000               	movlw	high(02h)
  5013  0E03  00AE               	movwf	((?_Delay))+1
  5014  0E04  160A  118A  253F   	fcall	_Delay
              120A  158A         
  5015                           	line	147
  5016                           	
  5017  0E09                     l14440:	
  5018                           ;main.c: 147: LcdClear();
  5019  0E09  160A  118A  2032   	fcall	_LcdClear
              120A  158A         
  5020                           	line	148
  5021                           	
  5022  0E0E                     l14442:	
  5023                           ;main.c: 148: LcdPrint("Place Finger",0,0);
  5024  0E0E  3089               	movlw	low(STR_14|8000h)
  5025  0E0F  1283               	bcf	status, 5	;RP0=0, select bank0
  5026  0E10  1303               	bcf	status, 6	;RP1=0, select bank0
  5027  0E11  00AB               	movwf	(?_LcdPrint)
  5028  0E12  3085               	movlw	high(STR_14|8000h)
  5029  0E13  00AC               	movwf	((?_LcdPrint))+1
  5030  0E14  01AD               	clrf	0+(?_LcdPrint)+02h
  5031  0E15  01AE               	clrf	0+(?_LcdPrint)+03h
  5032  0E16  160A  118A  2723   	fcall	_LcdPrint
              120A  158A         
  5033                           	line	149
  5034                           ;main.c: 149: Delay(2);
  5035  0E1B  3002               	movlw	low(02h)
  5036  0E1C  1283               	bcf	status, 5	;RP0=0, select bank0
  5037  0E1D  1303               	bcf	status, 6	;RP1=0, select bank0
  5038  0E1E  00AD               	movwf	(?_Delay)
  5039  0E1F  3000               	movlw	high(02h)
  5040  0E20  00AE               	movwf	((?_Delay))+1
  5041  0E21  160A  118A  253F   	fcall	_Delay
              120A  158A         
  5042                           	line	150
  5043                           	
  5044  0E26                     l14444:	
  5045                           ;main.c: 150: unsigned char NewUserResult = AddNewUser(0x00);
  5046  0E26  3000               	movlw	(0)
  5047  0E27  120A  158A  2191   	fcall	_AddNewUser
              120A  158A         
  5048  0E2C  1283               	bcf	status, 5	;RP0=0, select bank0
  5049  0E2D  1303               	bcf	status, 6	;RP1=0, select bank0
  5050  0E2E  00ED               	movwf	(??_AlterAdminUser+0)+0
  5051  0E2F  086D               	movf	(??_AlterAdminUser+0)+0,w
  5052  0E30  1683               	bsf	status, 5	;RP0=1, select bank1
  5053  0E31  1303               	bcf	status, 6	;RP1=0, select bank1
  5054  0E32  00D9               	movwf	(AlterAdminUser@NewUserResult)^080h
  5055                           	line	151
  5056                           	
  5057  0E33                     l14446:	
  5058                           ;main.c: 151: if(NewUserResult == 1)
  5059  0E33  0859               	movf	(AlterAdminUser@NewUserResult)^080h,w
  5060  0E34  3A01               	xorlw	01h
  5061  0E35  1D03               	skipz
  5062  0E36  2E38               	goto	u14921
  5063  0E37  2E39               	goto	u14920
  5064  0E38                     u14921:
  5065  0E38  2E57               	goto	l14454
  5066  0E39                     u14920:
  5067                           	line	153
  5068                           	
  5069  0E39                     l14448:	
  5070                           ;main.c: 152: {
  5071                           ;main.c: 153: LcdClear();
  5072  0E39  160A  118A  2032   	fcall	_LcdClear
              120A  158A         
  5073                           	line	154
  5074                           	
  5075  0E3E                     l14450:	
  5076                           ;main.c: 154: LcdPrint("Admin \n  Registered",0,0);
  5077  0E3E  3034               	movlw	low(STR_15|8000h)
  5078  0E3F  1283               	bcf	status, 5	;RP0=0, select bank0
  5079  0E40  1303               	bcf	status, 6	;RP1=0, select bank0
  5080  0E41  00AB               	movwf	(?_LcdPrint)
  5081  0E42  3086               	movlw	high(STR_15|8000h)
  5082  0E43  00AC               	movwf	((?_LcdPrint))+1
  5083  0E44  01AD               	clrf	0+(?_LcdPrint)+02h
  5084  0E45  01AE               	clrf	0+(?_LcdPrint)+03h
  5085  0E46  160A  118A  2723   	fcall	_LcdPrint
              120A  158A         
  5086                           	line	155
  5087                           	
  5088  0E4B                     l14452:	
  5089                           ;main.c: 155: Delay(2);
  5090  0E4B  3002               	movlw	low(02h)
  5091  0E4C  1283               	bcf	status, 5	;RP0=0, select bank0
  5092  0E4D  1303               	bcf	status, 6	;RP1=0, select bank0
  5093  0E4E  00AD               	movwf	(?_Delay)
  5094  0E4F  3000               	movlw	high(02h)
  5095  0E50  00AE               	movwf	((?_Delay))+1
  5096  0E51  160A  118A  253F   	fcall	_Delay
              120A  158A         
  5097                           	line	156
  5098                           ;main.c: 156: }
  5099  0E56  2E83               	goto	l1478
  5100                           	line	157
  5101                           	
  5102  0E57                     l1485:	
  5103                           	
  5104  0E57                     l14454:	
  5105                           ;main.c: 157: else if(NewUserResult == 0xFF) return 0;
  5106  0E57  1683               	bsf	status, 5	;RP0=1, select bank1
  5107  0E58  1303               	bcf	status, 6	;RP1=0, select bank1
  5108  0E59  0859               	movf	(AlterAdminUser@NewUserResult)^080h,w
  5109  0E5A  3AFF               	xorlw	0FFh
  5110  0E5B  1D03               	skipz
  5111  0E5C  2E5E               	goto	u14931
  5112  0E5D  2E5F               	goto	u14930
  5113  0E5E                     u14931:
  5114  0E5E  2E62               	goto	l14460
  5115  0E5F                     u14930:
  5116  0E5F  2E83               	goto	l1478
  5117                           	
  5118  0E60                     l14456:	
  5119                           ;	Return value of _AlterAdminUser is never used
  5120  0E60  2E83               	goto	l1478
  5121                           	
  5122  0E61                     l14458:	
  5123  0E61  2E83               	goto	l1478
  5124                           	line	158
  5125                           	
  5126  0E62                     l1487:	
  5127                           	line	160
  5128                           	
  5129  0E62                     l14460:	
  5130                           ;main.c: 158: else
  5131                           ;main.c: 159: {
  5132                           ;main.c: 160: LcdClear();
  5133  0E62  160A  118A  2032   	fcall	_LcdClear
              120A  158A         
  5134                           	line	161
  5135                           	
  5136  0E67                     l14462:	
  5137                           ;main.c: 161: LcdPrint("Error In\n  Registeration",0,0);
  5138  0E67  3096               	movlw	low(STR_16|8000h)
  5139  0E68  1283               	bcf	status, 5	;RP0=0, select bank0
  5140  0E69  1303               	bcf	status, 6	;RP1=0, select bank0
  5141  0E6A  00AB               	movwf	(?_LcdPrint)
  5142  0E6B  3085               	movlw	high(STR_16|8000h)
  5143  0E6C  00AC               	movwf	((?_LcdPrint))+1
  5144  0E6D  01AD               	clrf	0+(?_LcdPrint)+02h
  5145  0E6E  01AE               	clrf	0+(?_LcdPrint)+03h
  5146  0E6F  160A  118A  2723   	fcall	_LcdPrint
              120A  158A         
  5147                           	line	162
  5148                           	
  5149  0E74                     l14464:	
  5150                           ;main.c: 162: Delay(2);
  5151  0E74  3002               	movlw	low(02h)
  5152  0E75  1283               	bcf	status, 5	;RP0=0, select bank0
  5153  0E76  1303               	bcf	status, 6	;RP1=0, select bank0
  5154  0E77  00AD               	movwf	(?_Delay)
  5155  0E78  3000               	movlw	high(02h)
  5156  0E79  00AE               	movwf	((?_Delay))+1
  5157  0E7A  160A  118A  253F   	fcall	_Delay
              120A  158A         
  5158  0E7F  2E83               	goto	l1478
  5159                           	line	163
  5160                           	
  5161  0E80                     l1488:	
  5162  0E80  2E83               	goto	l1478
  5163                           	
  5164  0E81                     l1486:	
  5165  0E81  2E83               	goto	l1478
  5166                           	line	165
  5167                           	
  5168  0E82                     l1484:	
  5169  0E82  2E83               	goto	l1478
  5170                           	line	166
  5171                           	
  5172  0E83                     l14466:	
  5173                           	line	167
  5174                           ;main.c: 163: }
  5175                           ;main.c: 165: }
  5176                           ;main.c: 166: return 0;
  5177                           ;	Return value of _AlterAdminUser is never used
  5178                           	
  5179  0E83                     l1478:	
  5180  0E83  0008               	return
  5181                           	opt stack 0
  5182                           GLOBAL	__end_of_AlterAdminUser
  5183  0E84                     	__end_of_AlterAdminUser:
  5184 ;; =============== function _AlterAdminUser ends ============
  5185                           
  5186                           	signat	_AlterAdminUser,89
  5187                           	global	_ControlAccess
  5188                           psect	text4239,local,class=CODE,delta=2
  5189                           global __ptext4239
  5190  0AD6                     __ptext4239:
  5191                           
  5192 ;; *************** function _ControlAccess *****************
  5193 ;; Defined at:
  5194 ;;		line 55 in file "C:\Users\GauravLT\Desktop\Finger Print Sensor\R307\PIC16F877A_R307\main.c"
  5195 ;; Parameters:    Size  Location     Type
  5196 ;;		None
  5197 ;; Auto vars:     Size  Location     Type
  5198 ;;  buff           10    5[BANK1 ] unsigned char [10]
  5199 ;;  UserNo          1   16[BANK1 ] unsigned char 
  5200 ;;  result          1   15[BANK1 ] unsigned char 
  5201 ;; Return value:  Size  Location     Type
  5202 ;;                  1    wreg      unsigned char 
  5203 ;; Registers used:
  5204 ;;		wreg, fsr0l, fsr0h, status,2, status,0, btemp+1, pclath, cstack
  5205 ;; Tracked objects:
  5206 ;;		On entry : 0/0
  5207 ;;		On exit  : 0/0
  5208 ;;		Unchanged: 0/0
  5209 ;; Data sizes:     COMMON   BANK0   BANK1   BANK3   BANK2
  5210 ;;      Params:         0       0       0       0       0
  5211 ;;      Locals:         0       0      12       0       0
  5212 ;;      Temps:          0       0       5       0       0
  5213 ;;      Totals:         0       0      17       0       0
  5214 ;;Total ram usage:       17 bytes
  5215 ;; Hardware stack levels used:    1
  5216 ;; Hardware stack levels required when called:    7
  5217 ;; This function calls:
  5218 ;;		_LcdClear
  5219 ;;		_LcdPrint
  5220 ;;		_HiSpeedScan0
  5221 ;;		_memset1
  5222 ;;		_DecToStr
  5223 ;;		_Delay
  5224 ;; This function is called by:
  5225 ;;		_main
  5226 ;; This function uses a non-reentrant model
  5227 ;;
  5228                           psect	text4239
  5229                           	file	"C:\Users\GauravLT\Desktop\Finger Print Sensor\R307\PIC16F877A_R307\main.c"
  5230                           	line	55
  5231                           	global	__size_of_ControlAccess
  5232  00DE                     	__size_of_ControlAccess	equ	__end_of_ControlAccess-_ControlAccess
  5233                           	
  5234  0AD6                     _ControlAccess:	
  5235                           	opt	stack 0
  5236                           ; Regs used in _ControlAccess: [wreg-fsr0h+status,2+status,0+btemp+1+pclath+cstack]
  5237                           	line	56
  5238                           	
  5239  0AD6                     l14336:	
  5240                           ;main.c: 56: unsigned char UserNo=0;
  5241  0AD6  1683               	bsf	status, 5	;RP0=1, select bank1
  5242  0AD7  1303               	bcf	status, 6	;RP1=0, select bank1
  5243  0AD8  01E7               	clrf	(ControlAccess@UserNo)^080h
  5244                           	line	57
  5245                           ;main.c: 57: unsigned char result=0;
  5246  0AD9  01E6               	clrf	(ControlAccess@result)^080h
  5247                           	line	58
  5248                           ;main.c: 58: RB5=0;
  5249  0ADA  1283               	bcf	status, 5	;RP0=0, select bank0
  5250  0ADB  1303               	bcf	status, 6	;RP1=0, select bank0
  5251  0ADC  1286               	bcf	(53/8),(53)&7
  5252  0ADD  2ADE               	goto	l14338
  5253                           	line	60
  5254                           ;main.c: 60: while(1)
  5255                           	
  5256  0ADE                     l1465:	
  5257                           	line	62
  5258                           	
  5259  0ADE                     l14338:	
  5260                           ;main.c: 61: {
  5261                           ;main.c: 62: LcdClear();
  5262  0ADE  160A  118A  2032   	fcall	_LcdClear
              120A  158A         
  5263                           	line	63
  5264                           	
  5265  0AE3                     l14340:	
  5266                           ;main.c: 63: LcdPrint("Place Finger", 0,0);
  5267  0AE3  3089               	movlw	low(STR_5|8000h)
  5268  0AE4  1283               	bcf	status, 5	;RP0=0, select bank0
  5269  0AE5  1303               	bcf	status, 6	;RP1=0, select bank0
  5270  0AE6  00AB               	movwf	(?_LcdPrint)
  5271  0AE7  3085               	movlw	high(STR_5|8000h)
  5272  0AE8  00AC               	movwf	((?_LcdPrint))+1
  5273  0AE9  01AD               	clrf	0+(?_LcdPrint)+02h
  5274  0AEA  01AE               	clrf	0+(?_LcdPrint)+03h
  5275  0AEB  160A  118A  2723   	fcall	_LcdPrint
              120A  158A         
  5276                           	line	64
  5277                           	
  5278  0AF0                     l14342:	
  5279                           ;main.c: 64: result=HiSpeedScan0(&UserNo);
  5280  0AF0  30E7               	movlw	(ControlAccess@UserNo&0ffh)
  5281  0AF1  1283               	bcf	status, 5	;RP0=0, select bank0
  5282  0AF2  1303               	bcf	status, 6	;RP1=0, select bank0
  5283  0AF3  00E9               	movwf	(?_HiSpeedScan0)
  5284  0AF4  3000               	movlw	(0x1/2)
  5285  0AF5  00EA               	movwf	(?_HiSpeedScan0+1)
  5286  0AF6  160A  118A  24EC   	fcall	_HiSpeedScan0
              120A  158A         
  5287  0AFB  1683               	bsf	status, 5	;RP0=1, select bank1
  5288  0AFC  1303               	bcf	status, 6	;RP1=0, select bank1
  5289  0AFD  00D7               	movwf	(??_ControlAccess+0)^080h+0
  5290  0AFE  0857               	movf	(??_ControlAccess+0)^080h+0,w
  5291  0AFF  00E6               	movwf	(ControlAccess@result)^080h
  5292                           	line	66
  5293                           	
  5294  0B00                     l14344:	
  5295                           ;main.c: 66: if(result == 0xFF) break;
  5296  0B00  0866               	movf	(ControlAccess@result)^080h,w
  5297  0B01  3AFF               	xorlw	0FFh
  5298  0B02  1D03               	skipz
  5299  0B03  2B05               	goto	u14831
  5300  0B04  2B06               	goto	u14830
  5301  0B05                     u14831:
  5302  0B05  2B09               	goto	l14350
  5303  0B06                     u14830:
  5304  0B06  2BB3               	goto	l1473
  5305                           	
  5306  0B07                     l14346:	
  5307  0B07  2BB3               	goto	l1473
  5308                           	
  5309  0B08                     l14348:	
  5310  0B08  2ADE               	goto	l14338
  5311                           	line	67
  5312                           	
  5313  0B09                     l1466:	
  5314                           	
  5315  0B09                     l14350:	
  5316                           ;main.c: 67: else if(result == 0x01)
  5317  0B09  0866               	movf	(ControlAccess@result)^080h,w
  5318  0B0A  3A01               	xorlw	01h
  5319  0B0B  1D03               	skipz
  5320  0B0C  2B0E               	goto	u14841
  5321  0B0D  2B0F               	goto	u14840
  5322  0B0E                     u14841:
  5323  0B0E  2B86               	goto	l14366
  5324  0B0F                     u14840:
  5325                           	line	70
  5326                           	
  5327  0B0F                     l14352:	
  5328                           ;main.c: 68: {
  5329                           ;main.c: 69: unsigned char buff[10];
  5330                           ;main.c: 70: memset1(buff, 0, sizeof(buff));
  5331  0B0F  30DC               	movlw	(ControlAccess@buff&0ffh)
  5332  0B10  1283               	bcf	status, 5	;RP0=0, select bank0
  5333  0B11  1303               	bcf	status, 6	;RP1=0, select bank0
  5334  0B12  00A0               	movwf	(?_memset1)
  5335  0B13  3000               	movlw	(0x1/2)
  5336  0B14  00A1               	movwf	(?_memset1+1)
  5337  0B15  01A2               	clrf	0+(?_memset1)+02h
  5338  0B16  300A               	movlw	low(0Ah)
  5339  0B17  00A3               	movwf	0+(?_memset1)+03h
  5340  0B18  3000               	movlw	high(0Ah)
  5341  0B19  00A4               	movwf	(0+(?_memset1)+03h)+1
  5342  0B1A  160A  118A  20D0   	fcall	_memset1
              120A  158A         
  5343                           	line	72
  5344                           ;main.c: 72: LcdClear();
  5345  0B1F  160A  118A  2032   	fcall	_LcdClear
              120A  158A         
  5346                           	line	73
  5347                           	
  5348  0B24                     l14354:	
  5349                           ;main.c: 73: LcdPrint("User Valid\nUser No:", 0,0);
  5350  0B24  3020               	movlw	low(STR_6|8000h)
  5351  0B25  1283               	bcf	status, 5	;RP0=0, select bank0
  5352  0B26  1303               	bcf	status, 6	;RP1=0, select bank0
  5353  0B27  00AB               	movwf	(?_LcdPrint)
  5354  0B28  3086               	movlw	high(STR_6|8000h)
  5355  0B29  00AC               	movwf	((?_LcdPrint))+1
  5356  0B2A  01AD               	clrf	0+(?_LcdPrint)+02h
  5357  0B2B  01AE               	clrf	0+(?_LcdPrint)+03h
  5358  0B2C  160A  118A  2723   	fcall	_LcdPrint
              120A  158A         
  5359                           	line	74
  5360                           	
  5361  0B31                     l14356:	
  5362                           ;main.c: 74: DecToStr(UserNo, buff, 2);
  5363  0B31  1683               	bsf	status, 5	;RP0=1, select bank1
  5364  0B32  1303               	bcf	status, 6	;RP1=0, select bank1
  5365  0B33  0867               	movf	(ControlAccess@UserNo)^080h,w
  5366  0B34  00D7               	movwf	(??_ControlAccess+0)^080h+0
  5367  0B35  01D8               	clrf	((??_ControlAccess+0)^080h+0+1)
  5368  0B36  01D9               	clrf	((??_ControlAccess+0)^080h+0+2)
  5369  0B37  01DA               	clrf	((??_ControlAccess+0)^080h+0+3)
  5370  0B38  085A               	movf	3+(??_ControlAccess+0)^080h+0,w
  5371  0B39  1283               	bcf	status, 5	;RP0=0, select bank0
  5372  0B3A  1303               	bcf	status, 6	;RP1=0, select bank0
  5373  0B3B  00B7               	movwf	(?_DecToStr+3)
  5374  0B3C  1683               	bsf	status, 5	;RP0=1, select bank1
  5375  0B3D  1303               	bcf	status, 6	;RP1=0, select bank1
  5376  0B3E  0859               	movf	2+(??_ControlAccess+0)^080h+0,w
  5377  0B3F  1283               	bcf	status, 5	;RP0=0, select bank0
  5378  0B40  1303               	bcf	status, 6	;RP1=0, select bank0
  5379  0B41  00B6               	movwf	(?_DecToStr+2)
  5380  0B42  1683               	bsf	status, 5	;RP0=1, select bank1
  5381  0B43  1303               	bcf	status, 6	;RP1=0, select bank1
  5382  0B44  0858               	movf	1+(??_ControlAccess+0)^080h+0,w
  5383  0B45  1283               	bcf	status, 5	;RP0=0, select bank0
  5384  0B46  1303               	bcf	status, 6	;RP1=0, select bank0
  5385  0B47  00B5               	movwf	(?_DecToStr+1)
  5386  0B48  1683               	bsf	status, 5	;RP0=1, select bank1
  5387  0B49  1303               	bcf	status, 6	;RP1=0, select bank1
  5388  0B4A  0857               	movf	0+(??_ControlAccess+0)^080h+0,w
  5389  0B4B  1283               	bcf	status, 5	;RP0=0, select bank0
  5390  0B4C  1303               	bcf	status, 6	;RP1=0, select bank0
  5391  0B4D  00B4               	movwf	(?_DecToStr)
  5392                           
  5393  0B4E  30DC               	movlw	(ControlAccess@buff&0ffh)
  5394  0B4F  00B8               	movwf	(0+?_DecToStr+04h)
  5395  0B50  3000               	movlw	(0x1/2)
  5396  0B51  00B9               	movwf	(1+?_DecToStr+04h)
  5397  0B52  3002               	movlw	(02h)
  5398  0B53  1683               	bsf	status, 5	;RP0=1, select bank1
  5399  0B54  1303               	bcf	status, 6	;RP1=0, select bank1
  5400  0B55  00DB               	movwf	(??_ControlAccess+4)^080h+0
  5401  0B56  085B               	movf	(??_ControlAccess+4)^080h+0,w
  5402  0B57  1283               	bcf	status, 5	;RP0=0, select bank0
  5403  0B58  1303               	bcf	status, 6	;RP1=0, select bank0
  5404  0B59  00BA               	movwf	0+(?_DecToStr)+06h
  5405  0B5A  120A  158A  208F   	fcall	_DecToStr
              120A  158A         
  5406                           	line	75
  5407                           ;main.c: 75: LcdPrint(buff, 1, 9);
  5408  0B5F  30DC               	movlw	(ControlAccess@buff&0ffh)
  5409  0B60  1283               	bcf	status, 5	;RP0=0, select bank0
  5410  0B61  1303               	bcf	status, 6	;RP1=0, select bank0
  5411  0B62  00AB               	movwf	(?_LcdPrint)
  5412  0B63  3000               	movlw	(0x1/2)
  5413  0B64  00AC               	movwf	(?_LcdPrint+1)
  5414  0B65  01AD               	clrf	0+(?_LcdPrint)+02h
  5415  0B66  1403               	bsf	status,0
  5416  0B67  0DAD               	rlf	0+(?_LcdPrint)+02h,f
  5417  0B68  3009               	movlw	(09h)
  5418  0B69  1683               	bsf	status, 5	;RP0=1, select bank1
  5419  0B6A  1303               	bcf	status, 6	;RP1=0, select bank1
  5420  0B6B  00D7               	movwf	(??_ControlAccess+0)^080h+0
  5421  0B6C  0857               	movf	(??_ControlAccess+0)^080h+0,w
  5422  0B6D  1283               	bcf	status, 5	;RP0=0, select bank0
  5423  0B6E  1303               	bcf	status, 6	;RP1=0, select bank0
  5424  0B6F  00AE               	movwf	0+(?_LcdPrint)+03h
  5425  0B70  160A  118A  2723   	fcall	_LcdPrint
              120A  158A         
  5426                           	line	76
  5427                           	
  5428  0B75                     l14358:	
  5429                           ;main.c: 76: RB1 = 1;
  5430  0B75  1283               	bcf	status, 5	;RP0=0, select bank0
  5431  0B76  1303               	bcf	status, 6	;RP1=0, select bank0
  5432  0B77  1486               	bsf	(49/8),(49)&7
  5433                           	line	79
  5434                           	
  5435  0B78                     l14360:	
  5436                           ;main.c: 79: Delay(3);
  5437  0B78  3003               	movlw	low(03h)
  5438  0B79  00AD               	movwf	(?_Delay)
  5439  0B7A  3000               	movlw	high(03h)
  5440  0B7B  00AE               	movwf	((?_Delay))+1
  5441  0B7C  160A  118A  253F   	fcall	_Delay
              120A  158A         
  5442                           	line	80
  5443                           	
  5444  0B81                     l14362:	
  5445                           ;main.c: 80: RB1 = 0;
  5446  0B81  1283               	bcf	status, 5	;RP0=0, select bank0
  5447  0B82  1303               	bcf	status, 6	;RP1=0, select bank0
  5448  0B83  1086               	bcf	(49/8),(49)&7
  5449                           	line	81
  5450                           ;main.c: 81: break;
  5451  0B84  2BB3               	goto	l1473
  5452                           	line	82
  5453                           	
  5454  0B85                     l14364:	
  5455                           ;main.c: 82: }
  5456  0B85  2ADE               	goto	l14338
  5457                           	line	83
  5458                           	
  5459  0B86                     l1469:	
  5460                           	
  5461  0B86                     l14366:	
  5462                           ;main.c: 83: else if(result == 0x00)
  5463  0B86  1683               	bsf	status, 5	;RP0=1, select bank1
  5464  0B87  1303               	bcf	status, 6	;RP1=0, select bank1
  5465  0B88  08E6               	movf	(ControlAccess@result)^080h,f
  5466  0B89  1D03               	skipz
  5467  0B8A  2B8C               	goto	u14851
  5468  0B8B  2B8D               	goto	u14850
  5469  0B8C                     u14851:
  5470  0B8C  2ADE               	goto	l14338
  5471  0B8D                     u14850:
  5472                           	line	85
  5473                           	
  5474  0B8D                     l14368:	
  5475                           ;main.c: 84: {
  5476                           ;main.c: 85: LcdClear();
  5477  0B8D  160A  118A  2032   	fcall	_LcdClear
              120A  158A         
  5478                           	line	86
  5479                           	
  5480  0B92                     l14370:	
  5481                           ;main.c: 86: LcdPrint("Invalid User", 0,0);
  5482  0B92  30B0               	movlw	low(STR_7|8000h)
  5483  0B93  1283               	bcf	status, 5	;RP0=0, select bank0
  5484  0B94  1303               	bcf	status, 6	;RP1=0, select bank0
  5485  0B95  00AB               	movwf	(?_LcdPrint)
  5486  0B96  3086               	movlw	high(STR_7|8000h)
  5487  0B97  00AC               	movwf	((?_LcdPrint))+1
  5488  0B98  01AD               	clrf	0+(?_LcdPrint)+02h
  5489  0B99  01AE               	clrf	0+(?_LcdPrint)+03h
  5490  0B9A  160A  118A  2723   	fcall	_LcdPrint
              120A  158A         
  5491                           	line	87
  5492                           	
  5493  0B9F                     l14372:	
  5494                           ;main.c: 87: RB5=1;
  5495  0B9F  1283               	bcf	status, 5	;RP0=0, select bank0
  5496  0BA0  1303               	bcf	status, 6	;RP1=0, select bank0
  5497  0BA1  1686               	bsf	(53/8),(53)&7
  5498                           	line	88
  5499                           	
  5500  0BA2                     l14374:	
  5501                           ;main.c: 88: Delay(2);
  5502  0BA2  3002               	movlw	low(02h)
  5503  0BA3  00AD               	movwf	(?_Delay)
  5504  0BA4  3000               	movlw	high(02h)
  5505  0BA5  00AE               	movwf	((?_Delay))+1
  5506  0BA6  160A  118A  253F   	fcall	_Delay
              120A  158A         
  5507                           	line	90
  5508                           	
  5509  0BAB                     l14376:	
  5510                           ;main.c: 90: RB5=0;
  5511  0BAB  1283               	bcf	status, 5	;RP0=0, select bank0
  5512  0BAC  1303               	bcf	status, 6	;RP1=0, select bank0
  5513  0BAD  1286               	bcf	(53/8),(53)&7
  5514                           	line	91
  5515                           ;main.c: 91: break;
  5516  0BAE  2BB3               	goto	l1473
  5517                           	line	92
  5518                           	
  5519  0BAF                     l1471:	
  5520  0BAF  2ADE               	goto	l14338
  5521                           	line	93
  5522                           	
  5523  0BB0                     l1470:	
  5524  0BB0  2ADE               	goto	l14338
  5525                           	
  5526  0BB1                     l1468:	
  5527  0BB1  2ADE               	goto	l14338
  5528                           	
  5529  0BB2                     l1472:	
  5530                           	line	60
  5531  0BB2  2ADE               	goto	l14338
  5532                           	
  5533  0BB3                     l1467:	
  5534                           	line	95
  5535                           ;main.c: 92: }
  5536                           ;main.c: 93: }
  5537                           ;main.c: 94: return 0;
  5538                           ;	Return value of _ControlAccess is never used
  5539                           	
  5540  0BB3                     l1473:	
  5541  0BB3  0008               	return
  5542                           	opt stack 0
  5543                           GLOBAL	__end_of_ControlAccess
  5544  0BB4                     	__end_of_ControlAccess:
  5545 ;; =============== function _ControlAccess ends ============
  5546                           
  5547                           	signat	_ControlAccess,89
  5548                           	global	_EraseAllUsersAfterAdminConfirm
  5549                           psect	text4240,local,class=CODE,delta=2
  5550                           global __ptext4240
  5551  042A                     __ptext4240:
  5552                           
  5553 ;; *************** function _EraseAllUsersAfterAdminConfirm *****************
  5554 ;; Defined at:
  5555 ;;		line 12 in file "C:\Users\GauravLT\Desktop\Finger Print Sensor\R307\PIC16F877A_R307\main.c"
  5556 ;; Parameters:    Size  Location     Type
  5557 ;;		None
  5558 ;; Auto vars:     Size  Location     Type
  5559 ;;  UserNo          1    2[BANK1 ] unsigned char 
  5560 ;;  result          1    1[BANK1 ] unsigned char 
  5561 ;;  isEraseAllUs    1    0[BANK1 ] unsigned char 
  5562 ;; Return value:  Size  Location     Type
  5563 ;;                  1    wreg      unsigned char 
  5564 ;; Registers used:
  5565 ;;		wreg, fsr0l, fsr0h, status,2, status,0, btemp+1, pclath, cstack
  5566 ;; Tracked objects:
  5567 ;;		On entry : 0/0
  5568 ;;		On exit  : 0/0
  5569 ;;		Unchanged: 0/0
  5570 ;; Data sizes:     COMMON   BANK0   BANK1   BANK3   BANK2
  5571 ;;      Params:         0       0       0       0       0
  5572 ;;      Locals:         0       0       3       0       0
  5573 ;;      Temps:          0       1       0       0       0
  5574 ;;      Totals:         0       1       3       0       0
  5575 ;;Total ram usage:        4 bytes
  5576 ;; Hardware stack levels used:    1
  5577 ;; Hardware stack levels required when called:    7
  5578 ;; This function calls:
  5579 ;;		_ee_read
  5580 ;;		_LcdClear
  5581 ;;		_LcdPrint
  5582 ;;		_HiSpeedScan0
  5583 ;;		_Delay
  5584 ;;		_EraseAllUsers
  5585 ;;		_ee_eraseNPos
  5586 ;;		_ee_write
  5587 ;; This function is called by:
  5588 ;;		_main
  5589 ;; This function uses a non-reentrant model
  5590 ;;
  5591                           psect	text4240
  5592                           	file	"C:\Users\GauravLT\Desktop\Finger Print Sensor\R307\PIC16F877A_R307\main.c"
  5593                           	line	12
  5594                           	global	__size_of_EraseAllUsersAfterAdminConfirm
  5595  00CB                     	__size_of_EraseAllUsersAfterAdminConfirm	equ	__end_of_EraseAllUsersAfterAdminConfirm-_E
                                 raseAllUsersAfterAdminConfirm
  5596                           	
  5597  042A                     _EraseAllUsersAfterAdminConfirm:	
  5598                           	opt	stack 0
  5599                           ; Regs used in _EraseAllUsersAfterAdminConfirm: [wreg-fsr0h+status,2+status,0+btemp+1+pc
                                 lath+cstack]
  5600                           	line	13
  5601                           	
  5602  042A                     l14284:	
  5603                           ;main.c: 13: unsigned char isEraseAllUsers=1;
  5604  042A  1683               	bsf	status, 5	;RP0=1, select bank1
  5605  042B  1303               	bcf	status, 6	;RP1=0, select bank1
  5606  042C  01D7               	clrf	(EraseAllUsersAfterAdminConfirm@isEraseAllUsers)^080h
  5607  042D  1403               	bsf	status,0
  5608  042E  0DD7               	rlf	(EraseAllUsersAfterAdminConfirm@isEraseAllUsers)^080h,f
  5609                           	line	14
  5610                           	
  5611  042F                     l14286:	
  5612                           ;main.c: 14: if(ee_read(0x00) == 0x01)
  5613  042F  3000               	movlw	(0)
  5614  0430  160A  118A  206D   	fcall	_ee_read
              120A  118A         
  5615  0435  3A01               	xorlw	01h
  5616  0436  1D03               	skipz
  5617  0437  2C39               	goto	u14781
  5618  0438  2C3A               	goto	u14780
  5619  0439                     u14781:
  5620  0439  2CB9               	goto	l14322
  5621  043A                     u14780:
  5622                           	line	16
  5623                           	
  5624  043A                     l14288:	
  5625                           ;main.c: 15: {
  5626                           ;main.c: 16: LcdClear();
  5627  043A  160A  118A  2032   	fcall	_LcdClear
              120A  118A         
  5628                           	line	17
  5629                           	
  5630  043F                     l14290:	
  5631                           ;main.c: 17: LcdPrint("Admin Required\nPlace Finger",0,0);
  5632  043F  307A               	movlw	low(STR_1|8000h)
  5633  0440  1283               	bcf	status, 5	;RP0=0, select bank0
  5634  0441  1303               	bcf	status, 6	;RP1=0, select bank0
  5635  0442  00AB               	movwf	(?_LcdPrint)
  5636  0443  3085               	movlw	high(STR_1|8000h)
  5637  0444  00AC               	movwf	((?_LcdPrint))+1
  5638  0445  01AD               	clrf	0+(?_LcdPrint)+02h
  5639  0446  01AE               	clrf	0+(?_LcdPrint)+03h
  5640  0447  160A  118A  2723   	fcall	_LcdPrint
              120A  118A         
  5641                           	line	18
  5642                           	
  5643  044C                     l14292:	
  5644                           ;main.c: 18: isEraseAllUsers = 0;
  5645  044C  1683               	bsf	status, 5	;RP0=1, select bank1
  5646  044D  1303               	bcf	status, 6	;RP1=0, select bank1
  5647  044E  01D7               	clrf	(EraseAllUsersAfterAdminConfirm@isEraseAllUsers)^080h
  5648                           	line	21
  5649                           	
  5650  044F                     l14294:	
  5651                           ;main.c: 20: unsigned char UserNo;
  5652                           ;main.c: 21: unsigned char result = HiSpeedScan0(&UserNo);
  5653  044F  30D9               	movlw	(EraseAllUsersAfterAdminConfirm@UserNo&0ffh)
  5654  0450  1283               	bcf	status, 5	;RP0=0, select bank0
  5655  0451  1303               	bcf	status, 6	;RP1=0, select bank0
  5656  0452  00E9               	movwf	(?_HiSpeedScan0)
  5657  0453  3000               	movlw	(0x1/2)
  5658  0454  00EA               	movwf	(?_HiSpeedScan0+1)
  5659  0455  160A  118A  24EC   	fcall	_HiSpeedScan0
              120A  118A         
  5660  045A  1283               	bcf	status, 5	;RP0=0, select bank0
  5661  045B  1303               	bcf	status, 6	;RP1=0, select bank0
  5662  045C  00ED               	movwf	(??_EraseAllUsersAfterAdminConfirm+0)+0
  5663  045D  086D               	movf	(??_EraseAllUsersAfterAdminConfirm+0)+0,w
  5664  045E  1683               	bsf	status, 5	;RP0=1, select bank1
  5665  045F  1303               	bcf	status, 6	;RP1=0, select bank1
  5666  0460  00D8               	movwf	(EraseAllUsersAfterAdminConfirm@result)^080h
  5667                           	line	22
  5668                           	
  5669  0461                     l14296:	
  5670                           ;main.c: 22: if(result == 0xFF) return 0;
  5671  0461  0858               	movf	(EraseAllUsersAfterAdminConfirm@result)^080h,w
  5672  0462  3AFF               	xorlw	0FFh
  5673  0463  1D03               	skipz
  5674  0464  2C66               	goto	u14791
  5675  0465  2C67               	goto	u14790
  5676  0466                     u14791:
  5677  0466  2C6A               	goto	l14302
  5678  0467                     u14790:
  5679  0467  2CF4               	goto	l1458
  5680                           	
  5681  0468                     l14298:	
  5682                           ;	Return value of _EraseAllUsersAfterAdminConfirm is never used
  5683  0468  2CF4               	goto	l1458
  5684                           	
  5685  0469                     l14300:	
  5686  0469  2CB9               	goto	l14322
  5687                           	line	23
  5688                           	
  5689  046A                     l1457:	
  5690                           	line	25
  5691                           	
  5692  046A                     l14302:	
  5693                           ;main.c: 23: else
  5694                           ;main.c: 24: {
  5695                           ;main.c: 25: if(result == 1 && UserNo == 0)
  5696  046A  0858               	movf	(EraseAllUsersAfterAdminConfirm@result)^080h,w
  5697  046B  3A01               	xorlw	01h
  5698  046C  1D03               	skipz
  5699  046D  2C6F               	goto	u14801
  5700  046E  2C70               	goto	u14800
  5701  046F                     u14801:
  5702  046F  2C98               	goto	l14314
  5703  0470                     u14800:
  5704                           	
  5705  0470                     l14304:	
  5706  0470  08D9               	movf	(EraseAllUsersAfterAdminConfirm@UserNo)^080h,f
  5707  0471  1D03               	skipz
  5708  0472  2C74               	goto	u14811
  5709  0473  2C75               	goto	u14810
  5710  0474                     u14811:
  5711  0474  2C98               	goto	l14314
  5712  0475                     u14810:
  5713                           	line	27
  5714                           	
  5715  0475                     l14306:	
  5716                           ;main.c: 26: {
  5717                           ;main.c: 27: LcdClear();
  5718  0475  160A  118A  2032   	fcall	_LcdClear
              120A  118A         
  5719                           	line	28
  5720                           	
  5721  047A                     l14308:	
  5722                           ;main.c: 28: LcdPrint("Admin found",0,0);
  5723  047A  30BD               	movlw	low(STR_2|8000h)
  5724  047B  1283               	bcf	status, 5	;RP0=0, select bank0
  5725  047C  1303               	bcf	status, 6	;RP1=0, select bank0
  5726  047D  00AB               	movwf	(?_LcdPrint)
  5727  047E  3086               	movlw	high(STR_2|8000h)
  5728  047F  00AC               	movwf	((?_LcdPrint))+1
  5729  0480  01AD               	clrf	0+(?_LcdPrint)+02h
  5730  0481  01AE               	clrf	0+(?_LcdPrint)+03h
  5731  0482  160A  118A  2723   	fcall	_LcdPrint
              120A  118A         
  5732                           	line	29
  5733                           	
  5734  0487                     l14310:	
  5735                           ;main.c: 29: Delay(2);
  5736  0487  3002               	movlw	low(02h)
  5737  0488  1283               	bcf	status, 5	;RP0=0, select bank0
  5738  0489  1303               	bcf	status, 6	;RP1=0, select bank0
  5739  048A  00AD               	movwf	(?_Delay)
  5740  048B  3000               	movlw	high(02h)
  5741  048C  00AE               	movwf	((?_Delay))+1
  5742  048D  160A  118A  253F   	fcall	_Delay
              120A  118A         
  5743                           	line	30
  5744                           	
  5745  0492                     l14312:	
  5746                           ;main.c: 30: isEraseAllUsers = 1;
  5747  0492  1683               	bsf	status, 5	;RP0=1, select bank1
  5748  0493  1303               	bcf	status, 6	;RP1=0, select bank1
  5749  0494  01D7               	clrf	(EraseAllUsersAfterAdminConfirm@isEraseAllUsers)^080h
  5750  0495  1403               	bsf	status,0
  5751  0496  0DD7               	rlf	(EraseAllUsersAfterAdminConfirm@isEraseAllUsers)^080h,f
  5752                           	line	31
  5753                           ;main.c: 31: }
  5754  0497  2CB9               	goto	l14322
  5755                           	line	32
  5756                           	
  5757  0498                     l1460:	
  5758                           	line	34
  5759                           	
  5760  0498                     l14314:	
  5761                           ;main.c: 32: else
  5762                           ;main.c: 33: {
  5763                           ;main.c: 34: LcdClear();
  5764  0498  160A  118A  2032   	fcall	_LcdClear
              120A  118A         
  5765                           	line	35
  5766                           	
  5767  049D                     l14316:	
  5768                           ;main.c: 35: LcdPrint("Admin Not\n  found",0,0);
  5769  049D  3082               	movlw	low(STR_3|8000h)
  5770  049E  1283               	bcf	status, 5	;RP0=0, select bank0
  5771  049F  1303               	bcf	status, 6	;RP1=0, select bank0
  5772  04A0  00AB               	movwf	(?_LcdPrint)
  5773  04A1  3086               	movlw	high(STR_3|8000h)
  5774  04A2  00AC               	movwf	((?_LcdPrint))+1
  5775  04A3  01AD               	clrf	0+(?_LcdPrint)+02h
  5776  04A4  01AE               	clrf	0+(?_LcdPrint)+03h
  5777  04A5  160A  118A  2723   	fcall	_LcdPrint
              120A  118A         
  5778                           	line	36
  5779                           	
  5780  04AA                     l14318:	
  5781                           ;main.c: 36: Delay(2);
  5782  04AA  3002               	movlw	low(02h)
  5783  04AB  1283               	bcf	status, 5	;RP0=0, select bank0
  5784  04AC  1303               	bcf	status, 6	;RP1=0, select bank0
  5785  04AD  00AD               	movwf	(?_Delay)
  5786  04AE  3000               	movlw	high(02h)
  5787  04AF  00AE               	movwf	((?_Delay))+1
  5788  04B0  160A  118A  253F   	fcall	_Delay
              120A  118A         
  5789  04B5  2CF4               	goto	l1458
  5790                           	line	37
  5791                           	
  5792  04B6                     l14320:	
  5793                           ;main.c: 37: return 0;
  5794                           ;	Return value of _EraseAllUsersAfterAdminConfirm is never used
  5795  04B6  2CF4               	goto	l1458
  5796                           	line	38
  5797                           	
  5798  04B7                     l1461:	
  5799  04B7  2CB9               	goto	l14322
  5800                           	line	39
  5801                           	
  5802  04B8                     l1459:	
  5803  04B8  2CB9               	goto	l14322
  5804                           	line	40
  5805                           	
  5806  04B9                     l1456:	
  5807                           	line	41
  5808                           	
  5809  04B9                     l14322:	
  5810                           ;main.c: 38: }
  5811                           ;main.c: 39: }
  5812                           ;main.c: 40: }
  5813                           ;main.c: 41: if(isEraseAllUsers == 1)
  5814  04B9  1683               	bsf	status, 5	;RP0=1, select bank1
  5815  04BA  1303               	bcf	status, 6	;RP1=0, select bank1
  5816  04BB  0857               	movf	(EraseAllUsersAfterAdminConfirm@isEraseAllUsers)^080h,w
  5817  04BC  3A01               	xorlw	01h
  5818  04BD  1D03               	skipz
  5819  04BE  2CC0               	goto	u14821
  5820  04BF  2CC1               	goto	u14820
  5821  04C0                     u14821:
  5822  04C0  2CF4               	goto	l1458
  5823  04C1                     u14820:
  5824                           	line	43
  5825                           	
  5826  04C1                     l14324:	
  5827                           ;main.c: 42: {
  5828                           ;main.c: 43: EraseAllUsers();
  5829  04C1  160A  118A  2268   	fcall	_EraseAllUsers
              120A  118A         
  5830                           	line	44
  5831                           	
  5832  04C6                     l14326:	
  5833                           ;main.c: 44: ee_eraseNPos(24);
  5834  04C6  3018               	movlw	(018h)
  5835  04C7  160A  118A  204E   	fcall	_ee_eraseNPos
              120A  118A         
  5836                           	line	45
  5837                           	
  5838  04CC                     l14328:	
  5839                           ;main.c: 45: ee_write(30,0x00);
  5840  04CC  1283               	bcf	status, 5	;RP0=0, select bank0
  5841  04CD  1303               	bcf	status, 6	;RP1=0, select bank0
  5842  04CE  01A3               	clrf	(?_ee_write)
  5843  04CF  301E               	movlw	(01Eh)
  5844  04D0  120A  118A  27D8   	fcall	_ee_write
              120A  118A         
  5845                           	line	47
  5846                           ;main.c: 47: LcdClear();
  5847  04D5  160A  118A  2032   	fcall	_LcdClear
              120A  118A         
  5848                           	line	48
  5849                           	
  5850  04DA                     l14330:	
  5851                           ;main.c: 48: LcdPrint("All Users\n Deleted",0,0);
  5852  04DA  305C               	movlw	low(STR_4|8000h)
  5853  04DB  1283               	bcf	status, 5	;RP0=0, select bank0
  5854  04DC  1303               	bcf	status, 6	;RP1=0, select bank0
  5855  04DD  00AB               	movwf	(?_LcdPrint)
  5856  04DE  3086               	movlw	high(STR_4|8000h)
  5857  04DF  00AC               	movwf	((?_LcdPrint))+1
  5858  04E0  01AD               	clrf	0+(?_LcdPrint)+02h
  5859  04E1  01AE               	clrf	0+(?_LcdPrint)+03h
  5860  04E2  160A  118A  2723   	fcall	_LcdPrint
              120A  118A         
  5861                           	line	49
  5862                           	
  5863  04E7                     l14332:	
  5864                           ;main.c: 49: Delay(2);
  5865  04E7  3002               	movlw	low(02h)
  5866  04E8  1283               	bcf	status, 5	;RP0=0, select bank0
  5867  04E9  1303               	bcf	status, 6	;RP1=0, select bank0
  5868  04EA  00AD               	movwf	(?_Delay)
  5869  04EB  3000               	movlw	high(02h)
  5870  04EC  00AE               	movwf	((?_Delay))+1
  5871  04ED  160A  118A  253F   	fcall	_Delay
              120A  118A         
  5872  04F2  2CF4               	goto	l1458
  5873                           	line	50
  5874                           	
  5875  04F3                     l1462:	
  5876  04F3  2CF4               	goto	l1458
  5877                           	line	51
  5878                           	
  5879  04F4                     l14334:	
  5880                           	line	52
  5881                           ;main.c: 50: }
  5882                           ;main.c: 51: return 0;
  5883                           ;	Return value of _EraseAllUsersAfterAdminConfirm is never used
  5884                           	
  5885  04F4                     l1458:	
  5886  04F4  0008               	return
  5887                           	opt stack 0
  5888                           GLOBAL	__end_of_EraseAllUsersAfterAdminConfirm
  5889  04F5                     	__end_of_EraseAllUsersAfterAdminConfirm:
  5890 ;; =============== function _EraseAllUsersAfterAdminConfirm ends ============
  5891                           
  5892                           	signat	_EraseAllUsersAfterAdminConfirm,89
  5893                           	global	_menu
  5894                           psect	text4241,local,class=CODE,delta=2
  5895                           global __ptext4241
  5896  149C                     __ptext4241:
  5897                           
  5898 ;; *************** function _menu *****************
  5899 ;; Defined at:
  5900 ;;		line 310 in file "C:\Users\GauravLT\Desktop\Finger Print Sensor\R307\PIC16F877A_R307\main.c"
  5901 ;; Parameters:    Size  Location     Type
  5902 ;;  s               2   19[BANK0 ] PTR const unsigned char 
  5903 ;;		 -> STR_34(29), STR_33(33), STR_32(30), STR_31(30), 
  5904 ;; Auto vars:     Size  Location     Type
  5905 ;;  keyHit          1   22[BANK0 ] unsigned char 
  5906 ;; Return value:  Size  Location     Type
  5907 ;;                  1    wreg      unsigned char 
  5908 ;; Registers used:
  5909 ;;		wreg, fsr0l, fsr0h, status,2, status,0, btemp+1, pclath, cstack
  5910 ;; Tracked objects:
  5911 ;;		On entry : 0/0
  5912 ;;		On exit  : 0/0
  5913 ;;		Unchanged: 0/0
  5914 ;; Data sizes:     COMMON   BANK0   BANK1   BANK3   BANK2
  5915 ;;      Params:         0       2       0       0       0
  5916 ;;      Locals:         0       1       0       0       0
  5917 ;;      Temps:          0       1       0       0       0
  5918 ;;      Totals:         0       4       0       0       0
  5919 ;;Total ram usage:        4 bytes
  5920 ;; Hardware stack levels used:    1
  5921 ;; Hardware stack levels required when called:    6
  5922 ;; This function calls:
  5923 ;;		_LcdClear
  5924 ;;		_LcdPrint
  5925 ;;		_KeyScan
  5926 ;;		_IsKeyPending
  5927 ;;		_GetKey
  5928 ;; This function is called by:
  5929 ;;		_main
  5930 ;; This function uses a non-reentrant model
  5931 ;;
  5932                           psect	text4241
  5933                           	file	"C:\Users\GauravLT\Desktop\Finger Print Sensor\R307\PIC16F877A_R307\main.c"
  5934                           	line	310
  5935                           	global	__size_of_menu
  5936  0050                     	__size_of_menu	equ	__end_of_menu-_menu
  5937                           	
  5938  149C                     _menu:	
  5939                           	opt	stack 1
  5940                           ; Regs used in _menu: [wreg-fsr0h+status,2+status,0+btemp+1+pclath+cstack]
  5941                           	line	311
  5942                           	
  5943  149C                     l14258:	
  5944                           ;main.c: 311: unsigned char keyHit=0xFF;
  5945  149C  30FF               	movlw	(0FFh)
  5946  149D  1283               	bcf	status, 5	;RP0=0, select bank0
  5947  149E  1303               	bcf	status, 6	;RP1=0, select bank0
  5948  149F  00B5               	movwf	(??_menu+0)+0
  5949  14A0  0835               	movf	(??_menu+0)+0,w
  5950  14A1  00B6               	movwf	(menu@keyHit)
  5951                           	line	312
  5952                           	
  5953  14A2                     l14260:	
  5954                           ;main.c: 312: LcdClear();
  5955  14A2  160A  118A  2032   	fcall	_LcdClear
              160A  118A         
  5956                           	line	313
  5957                           	
  5958  14A7                     l14262:	
  5959                           ;main.c: 313: LcdPrint(s, 0,0);
  5960  14A7  1283               	bcf	status, 5	;RP0=0, select bank0
  5961  14A8  1303               	bcf	status, 6	;RP1=0, select bank0
  5962  14A9  0834               	movf	(menu@s+1),w
  5963  14AA  01AC               	clrf	(?_LcdPrint+1)
  5964  14AB  07AC               	addwf	(?_LcdPrint+1)
  5965  14AC  0833               	movf	(menu@s),w
  5966  14AD  01AB               	clrf	(?_LcdPrint)
  5967  14AE  07AB               	addwf	(?_LcdPrint)
  5968                           
  5969  14AF  01AD               	clrf	0+(?_LcdPrint)+02h
  5970  14B0  01AE               	clrf	0+(?_LcdPrint)+03h
  5971  14B1  160A  118A  2723   	fcall	_LcdPrint
              160A  118A         
  5972  14B6  2CB7               	goto	l14264
  5973                           	line	314
  5974                           ;main.c: 314: while(1)
  5975                           	
  5976  14B7                     l1529:	
  5977                           	line	316
  5978                           	
  5979  14B7                     l14264:	
  5980                           ;main.c: 315: {
  5981                           ;main.c: 316: KeyScan();
  5982  14B7  120A  158A  2110   	fcall	_KeyScan
              160A  118A         
  5983                           	line	317
  5984                           	
  5985  14BC                     l14266:	
  5986                           ;main.c: 317: if(IsKeyPending())
  5987  14BC  160A  158A  2798   	fcall	_IsKeyPending
              160A  118A         
  5988  14C1  3A00               	xorlw	0
  5989  14C2  1903               	skipnz
  5990  14C3  2CC5               	goto	u14741
  5991  14C4  2CC6               	goto	u14740
  5992  14C5                     u14741:
  5993  14C5  2CB7               	goto	l14264
  5994  14C6                     u14740:
  5995                           	line	319
  5996                           	
  5997  14C6                     l14268:	
  5998                           ;main.c: 318: {
  5999                           ;main.c: 319: keyHit = GetKey();
  6000  14C6  160A  118A  2019   	fcall	_GetKey
              160A  118A         
  6001  14CB  1283               	bcf	status, 5	;RP0=0, select bank0
  6002  14CC  1303               	bcf	status, 6	;RP1=0, select bank0
  6003  14CD  00B5               	movwf	(??_menu+0)+0
  6004  14CE  0835               	movf	(??_menu+0)+0,w
  6005  14CF  00B6               	movwf	(menu@keyHit)
  6006                           	line	320
  6007                           	
  6008  14D0                     l14270:	
  6009                           ;main.c: 320: if(keyHit == '1' || keyHit == '2' || keyHit == '3')
  6010  14D0  0836               	movf	(menu@keyHit),w
  6011  14D1  3A31               	xorlw	031h
  6012  14D2  1903               	skipnz
  6013  14D3  2CD5               	goto	u14751
  6014  14D4  2CD6               	goto	u14750
  6015  14D5                     u14751:
  6016  14D5  2CE3               	goto	l14276
  6017  14D6                     u14750:
  6018                           	
  6019  14D6                     l14272:	
  6020  14D6  0836               	movf	(menu@keyHit),w
  6021  14D7  3A32               	xorlw	032h
  6022  14D8  1903               	skipnz
  6023  14D9  2CDB               	goto	u14761
  6024  14DA  2CDC               	goto	u14760
  6025  14DB                     u14761:
  6026  14DB  2CE3               	goto	l14276
  6027  14DC                     u14760:
  6028                           	
  6029  14DC                     l14274:	
  6030  14DC  0836               	movf	(menu@keyHit),w
  6031  14DD  3A33               	xorlw	033h
  6032  14DE  1D03               	skipz
  6033  14DF  2CE1               	goto	u14771
  6034  14E0  2CE2               	goto	u14770
  6035  14E1                     u14771:
  6036  14E1  2CB7               	goto	l14264
  6037  14E2                     u14770:
  6038  14E2  2CE3               	goto	l14276
  6039                           	
  6040  14E3                     l1533:	
  6041                           	line	321
  6042                           	
  6043  14E3                     l14276:	
  6044                           ;main.c: 321: return keyHit;
  6045  14E3  0836               	movf	(menu@keyHit),w
  6046  14E4  2CEB               	goto	l1534
  6047                           	
  6048  14E5                     l14278:	
  6049  14E5  2CEB               	goto	l1534
  6050                           	
  6051  14E6                     l1531:	
  6052  14E6  2CB7               	goto	l14264
  6053                           	line	322
  6054                           	
  6055  14E7                     l1530:	
  6056  14E7  2CB7               	goto	l14264
  6057                           	line	323
  6058                           	
  6059  14E8                     l1535:	
  6060                           	line	314
  6061  14E8  2CB7               	goto	l14264
  6062                           	
  6063  14E9                     l1536:	
  6064                           	line	324
  6065                           	
  6066  14E9                     l14280:	
  6067                           ;main.c: 322: }
  6068                           ;main.c: 323: }
  6069                           ;main.c: 324: return 0;
  6070  14E9  3000               	movlw	(0)
  6071  14EA  2CEB               	goto	l1534
  6072                           	
  6073  14EB                     l14282:	
  6074                           	line	325
  6075                           	
  6076  14EB                     l1534:	
  6077  14EB  0008               	return
  6078                           	opt stack 0
  6079                           GLOBAL	__end_of_menu
  6080  14EC                     	__end_of_menu:
  6081 ;; =============== function _menu ends ============
  6082                           
  6083                           	signat	_menu,4217
  6084                           	global	_AddNewUser
  6085                           psect	text4242,local,class=CODE,delta=2
  6086                           global __ptext4242
  6087  0991                     __ptext4242:
  6088                           
  6089 ;; *************** function _AddNewUser *****************
  6090 ;; Defined at:
  6091 ;;		line 450 in file "C:\Users\GauravLT\Desktop\Finger Print Sensor\R307\PIC16F877A_R307\FingerPrintSensor_R307.c"
  6092 ;; Parameters:    Size  Location     Type
  6093 ;;  position        1    wreg     unsigned char 
  6094 ;; Auto vars:     Size  Location     Type
  6095 ;;  position        1   68[BANK0 ] unsigned char 
  6096 ;;  scanResult      1   69[BANK0 ] unsigned char 
  6097 ;; Return value:  Size  Location     Type
  6098 ;;                  1    wreg      unsigned char 
  6099 ;; Registers used:
  6100 ;;		wreg, fsr0l, fsr0h, status,2, status,0, pclath, cstack
  6101 ;; Tracked objects:
  6102 ;;		On entry : 0/0
  6103 ;;		On exit  : 0/0
  6104 ;;		Unchanged: 0/0
  6105 ;; Data sizes:     COMMON   BANK0   BANK1   BANK3   BANK2
  6106 ;;      Params:         0       0       0       0       0
  6107 ;;      Locals:         0       2       0       0       0
  6108 ;;      Temps:          0       1       0       0       0
  6109 ;;      Totals:         0       3       0       0       0
  6110 ;;Total ram usage:        3 bytes
  6111 ;; Hardware stack levels used:    1
  6112 ;; Hardware stack levels required when called:    6
  6113 ;; This function calls:
  6114 ;;		_KeyScan
  6115 ;;		_IsKeyPending
  6116 ;;		_GetKey
  6117 ;;		_ScanForImage
  6118 ;;		_GenCharacterFileFromImage
  6119 ;;		_AddUserA
  6120 ;;		_AddUserB
  6121 ;;		_AddUserC
  6122 ;;		_reserveEElocation
  6123 ;; This function is called by:
  6124 ;;		_AlterAdminUser
  6125 ;;		_AddNewUserAfterAdminConfirm
  6126 ;; This function uses a non-reentrant model
  6127 ;;
  6128                           psect	text4242
  6129                           	file	"C:\Users\GauravLT\Desktop\Finger Print Sensor\R307\PIC16F877A_R307\FingerPrintSen
                                 sor_R307.c"
  6130                           	line	450
  6131                           	global	__size_of_AddNewUser
  6132  0096                     	__size_of_AddNewUser	equ	__end_of_AddNewUser-_AddNewUser
  6133                           	
  6134  0991                     _AddNewUser:	
  6135                           	opt	stack 0
  6136                           ; Regs used in _AddNewUser: [wreg-fsr0h+status,2+status,0+pclath+cstack]
  6137                           ;AddNewUser@position stored from wreg
  6138                           	line	474
  6139  0991  1283               	bcf	status, 5	;RP0=0, select bank0
  6140  0992  1303               	bcf	status, 6	;RP1=0, select bank0
  6141  0993  00E4               	movwf	(AddNewUser@position)
  6142                           	
  6143  0994                     l14210:	
  6144                           ;FingerPrintSensor_R307.c: 474: unsigned char scanResult=0xFF;
  6145  0994  30FF               	movlw	(0FFh)
  6146  0995  00E3               	movwf	(??_AddNewUser+0)+0
  6147  0996  0863               	movf	(??_AddNewUser+0)+0,w
  6148  0997  00E5               	movwf	(AddNewUser@scanResult)
  6149  0998  2999               	goto	l14212
  6150                           	line	476
  6151                           ;FingerPrintSensor_R307.c: 476: while(1)
  6152                           	
  6153  0999                     l3198:	
  6154                           	line	478
  6155                           	
  6156  0999                     l14212:	
  6157                           ;FingerPrintSensor_R307.c: 477: {
  6158                           ;FingerPrintSensor_R307.c: 478: KeyScan();
  6159  0999  120A  158A  2110   	fcall	_KeyScan
              120A  158A         
  6160                           	line	479
  6161                           	
  6162  099E                     l14214:	
  6163                           ;FingerPrintSensor_R307.c: 479: if(IsKeyPending())
  6164  099E  160A  158A  2798   	fcall	_IsKeyPending
              120A  158A         
  6165  09A3  3A00               	xorlw	0
  6166  09A4  1903               	skipnz
  6167  09A5  29A7               	goto	u14671
  6168  09A6  29A8               	goto	u14670
  6169  09A7                     u14671:
  6170  09A7  29B6               	goto	l14222
  6171  09A8                     u14670:
  6172                           	line	481
  6173                           	
  6174  09A8                     l14216:	
  6175                           ;FingerPrintSensor_R307.c: 480: {
  6176                           ;FingerPrintSensor_R307.c: 481: if(GetKey() == '3') return 0xFF;
  6177  09A8  160A  118A  2019   	fcall	_GetKey
              120A  158A         
  6178  09AD  3A33               	xorlw	033h
  6179  09AE  1D03               	skipz
  6180  09AF  29B1               	goto	u14681
  6181  09B0  29B2               	goto	u14680
  6182  09B1                     u14681:
  6183  09B1  29B6               	goto	l14222
  6184  09B2                     u14680:
  6185                           	
  6186  09B2                     l14218:	
  6187  09B2  30FF               	movlw	(0FFh)
  6188  09B3  2A26               	goto	l3201
  6189                           	
  6190  09B4                     l14220:	
  6191  09B4  2A26               	goto	l3201
  6192                           	
  6193  09B5                     l3200:	
  6194  09B5  29B6               	goto	l14222
  6195                           	line	482
  6196                           	
  6197  09B6                     l3199:	
  6198                           	line	483
  6199                           	
  6200  09B6                     l14222:	
  6201                           ;FingerPrintSensor_R307.c: 482: }
  6202                           ;FingerPrintSensor_R307.c: 483: scanResult = ScanForImage();
  6203  09B6  160A  118A  236B   	fcall	_ScanForImage
              120A  158A         
  6204  09BB  1283               	bcf	status, 5	;RP0=0, select bank0
  6205  09BC  1303               	bcf	status, 6	;RP1=0, select bank0
  6206  09BD  00E3               	movwf	(??_AddNewUser+0)+0
  6207  09BE  0863               	movf	(??_AddNewUser+0)+0,w
  6208  09BF  00E5               	movwf	(AddNewUser@scanResult)
  6209                           	line	484
  6210                           	
  6211  09C0                     l14224:	
  6212                           ;FingerPrintSensor_R307.c: 484: if(scanResult == 1)
  6213  09C0  0865               	movf	(AddNewUser@scanResult),w
  6214  09C1  3A01               	xorlw	01h
  6215  09C2  1D03               	skipz
  6216  09C3  29C5               	goto	u14691
  6217  09C4  29C6               	goto	u14690
  6218  09C5                     u14691:
  6219  09C5  2999               	goto	l14212
  6220  09C6                     u14690:
  6221                           	line	486
  6222                           	
  6223  09C6                     l14226:	
  6224                           ;FingerPrintSensor_R307.c: 485: {
  6225                           ;FingerPrintSensor_R307.c: 486: GenCharacterFileFromImage();
  6226  09C6  160A  118A  2402   	fcall	_GenCharacterFileFromImage
              120A  158A         
  6227                           	line	487
  6228                           ;FingerPrintSensor_R307.c: 487: while(1)
  6229                           	
  6230  09CB                     l3203:	
  6231                           	line	489
  6232                           ;FingerPrintSensor_R307.c: 488: {
  6233                           ;FingerPrintSensor_R307.c: 489: KeyScan();
  6234  09CB  120A  158A  2110   	fcall	_KeyScan
              120A  158A         
  6235                           	line	490
  6236                           	
  6237  09D0                     l14228:	
  6238                           ;FingerPrintSensor_R307.c: 490: if(IsKeyPending())
  6239  09D0  160A  158A  2798   	fcall	_IsKeyPending
              120A  158A         
  6240  09D5  3A00               	xorlw	0
  6241  09D6  1903               	skipnz
  6242  09D7  29D9               	goto	u14701
  6243  09D8  29DA               	goto	u14700
  6244  09D9                     u14701:
  6245  09D9  29E8               	goto	l14236
  6246  09DA                     u14700:
  6247                           	line	492
  6248                           	
  6249  09DA                     l14230:	
  6250                           ;FingerPrintSensor_R307.c: 491: {
  6251                           ;FingerPrintSensor_R307.c: 492: if(GetKey() == '3') return 0xFF;
  6252  09DA  160A  118A  2019   	fcall	_GetKey
              120A  158A         
  6253  09DF  3A33               	xorlw	033h
  6254  09E0  1D03               	skipz
  6255  09E1  29E3               	goto	u14711
  6256  09E2  29E4               	goto	u14710
  6257  09E3                     u14711:
  6258  09E3  29E8               	goto	l14236
  6259  09E4                     u14710:
  6260                           	
  6261  09E4                     l14232:	
  6262  09E4  30FF               	movlw	(0FFh)
  6263  09E5  2A26               	goto	l3201
  6264                           	
  6265  09E6                     l14234:	
  6266  09E6  2A26               	goto	l3201
  6267                           	
  6268  09E7                     l3205:	
  6269  09E7  29E8               	goto	l14236
  6270                           	line	493
  6271                           	
  6272  09E8                     l3204:	
  6273                           	line	494
  6274                           	
  6275  09E8                     l14236:	
  6276                           ;FingerPrintSensor_R307.c: 493: }
  6277                           ;FingerPrintSensor_R307.c: 494: scanResult = ScanForImage();
  6278  09E8  160A  118A  236B   	fcall	_ScanForImage
              120A  158A         
  6279  09ED  1283               	bcf	status, 5	;RP0=0, select bank0
  6280  09EE  1303               	bcf	status, 6	;RP1=0, select bank0
  6281  09EF  00E3               	movwf	(??_AddNewUser+0)+0
  6282  09F0  0863               	movf	(??_AddNewUser+0)+0,w
  6283  09F1  00E5               	movwf	(AddNewUser@scanResult)
  6284                           	line	495
  6285                           	
  6286  09F2                     l14238:	
  6287                           ;FingerPrintSensor_R307.c: 495: if(scanResult == 1)
  6288  09F2  0865               	movf	(AddNewUser@scanResult),w
  6289  09F3  3A01               	xorlw	01h
  6290  09F4  1D03               	skipz
  6291  09F5  29F7               	goto	u14721
  6292  09F6  29F8               	goto	u14720
  6293  09F7                     u14721:
  6294  09F7  29CB               	goto	l3203
  6295  09F8                     u14720:
  6296                           	line	497
  6297                           	
  6298  09F8                     l14240:	
  6299                           ;FingerPrintSensor_R307.c: 496: {
  6300                           ;FingerPrintSensor_R307.c: 497: AddUserA();
  6301  09F8  160A  118A  22A6   	fcall	_AddUserA
              120A  158A         
  6302                           	line	498
  6303                           ;FingerPrintSensor_R307.c: 498: AddUserB();
  6304  09FD  160A  118A  22E4   	fcall	_AddUserB
              120A  158A         
  6305                           	line	499
  6306                           ;FingerPrintSensor_R307.c: 499: if(AddUserC(position) == 1)
  6307  0A02  1283               	bcf	status, 5	;RP0=0, select bank0
  6308  0A03  1303               	bcf	status, 6	;RP1=0, select bank0
  6309  0A04  0864               	movf	(AddNewUser@position),w
  6310  0A05  160A  118A  2655   	fcall	_AddUserC
              120A  158A         
  6311  0A0A  3A01               	xorlw	01h
  6312  0A0B  1D03               	skipz
  6313  0A0C  2A0E               	goto	u14731
  6314  0A0D  2A0F               	goto	u14730
  6315  0A0E                     u14731:
  6316  0A0E  2A1B               	goto	l14250
  6317  0A0F                     u14730:
  6318                           	line	501
  6319                           	
  6320  0A0F                     l14242:	
  6321                           ;FingerPrintSensor_R307.c: 500: {
  6322                           ;FingerPrintSensor_R307.c: 501: reserveEElocation(position);
  6323  0A0F  1283               	bcf	status, 5	;RP0=0, select bank0
  6324  0A10  1303               	bcf	status, 6	;RP1=0, select bank0
  6325  0A11  0864               	movf	(AddNewUser@position),w
  6326  0A12  160A  118A  2118   	fcall	_reserveEElocation
              120A  158A         
  6327                           	line	502
  6328                           	
  6329  0A17                     l14244:	
  6330                           ;FingerPrintSensor_R307.c: 502: return 1;
  6331  0A17  3001               	movlw	(01h)
  6332  0A18  2A26               	goto	l3201
  6333                           	
  6334  0A19                     l14246:	
  6335  0A19  2A26               	goto	l3201
  6336                           	line	503
  6337                           	
  6338  0A1A                     l14248:	
  6339                           ;FingerPrintSensor_R307.c: 503: }
  6340  0A1A  29CB               	goto	l3203
  6341                           	line	504
  6342                           	
  6343  0A1B                     l3207:	
  6344                           	
  6345  0A1B                     l14250:	
  6346                           ;FingerPrintSensor_R307.c: 504: else return 0;
  6347  0A1B  3000               	movlw	(0)
  6348  0A1C  2A26               	goto	l3201
  6349                           	
  6350  0A1D                     l14252:	
  6351  0A1D  2A26               	goto	l3201
  6352                           	
  6353  0A1E                     l3208:	
  6354  0A1E  29CB               	goto	l3203
  6355                           	line	505
  6356                           	
  6357  0A1F                     l3206:	
  6358  0A1F  29CB               	goto	l3203
  6359                           	line	506
  6360                           	
  6361  0A20                     l3209:	
  6362                           	line	487
  6363  0A20  29CB               	goto	l3203
  6364                           	
  6365  0A21                     l3210:	
  6366  0A21  2999               	goto	l14212
  6367                           	line	507
  6368                           	
  6369  0A22                     l3202:	
  6370  0A22  2999               	goto	l14212
  6371                           	line	508
  6372                           	
  6373  0A23                     l3211:	
  6374                           	line	476
  6375  0A23  2999               	goto	l14212
  6376                           	
  6377  0A24                     l3212:	
  6378                           	line	509
  6379                           	
  6380  0A24                     l14254:	
  6381                           ;FingerPrintSensor_R307.c: 505: }
  6382                           ;FingerPrintSensor_R307.c: 506: }
  6383                           ;FingerPrintSensor_R307.c: 507: }
  6384                           ;FingerPrintSensor_R307.c: 508: }
  6385                           ;FingerPrintSensor_R307.c: 509: return 0;
  6386  0A24  3000               	movlw	(0)
  6387  0A25  2A26               	goto	l3201
  6388                           	
  6389  0A26                     l14256:	
  6390                           	line	510
  6391                           	
  6392  0A26                     l3201:	
  6393  0A26  0008               	return
  6394                           	opt stack 0
  6395                           GLOBAL	__end_of_AddNewUser
  6396  0A27                     	__end_of_AddNewUser:
  6397 ;; =============== function _AddNewUser ends ============
  6398                           
  6399                           	signat	_AddNewUser,4217
  6400                           	global	_HiSpeedScan0
  6401                           psect	text4243,local,class=CODE,delta=2
  6402                           global __ptext4243
  6403  14EC                     __ptext4243:
  6404                           
  6405 ;; *************** function _HiSpeedScan0 *****************
  6406 ;; Defined at:
  6407 ;;		line 298 in file "C:\Users\GauravLT\Desktop\Finger Print Sensor\R307\PIC16F877A_R307\FingerPrintSensor_R307.c"
  6408 ;; Parameters:    Size  Location     Type
  6409 ;;  UserNo          2   73[BANK0 ] PTR unsigned char 
  6410 ;;		 -> DeleteUserAfterAdminConfirm@UserNo(1), AddNewUserAfterAdminConfirm@UserNo(1), AlterAdminUser@UserNo(1), ControlA
       ccess@UserNo(1), 
  6411 ;;		 -> EraseAllUsersAfterAdminConfirm@UserNo(1), 
  6412 ;; Auto vars:     Size  Location     Type
  6413 ;;  scanResult      1   76[BANK0 ] unsigned char 
  6414 ;; Return value:  Size  Location     Type
  6415 ;;                  1    wreg      unsigned char 
  6416 ;; Registers used:
  6417 ;;		wreg, fsr0l, fsr0h, status,2, status,0, pclath, cstack
  6418 ;; Tracked objects:
  6419 ;;		On entry : 0/0
  6420 ;;		On exit  : 0/0
  6421 ;;		Unchanged: 0/0
  6422 ;; Data sizes:     COMMON   BANK0   BANK1   BANK3   BANK2
  6423 ;;      Params:         0       2       0       0       0
  6424 ;;      Locals:         0       1       0       0       0
  6425 ;;      Temps:          0       1       0       0       0
  6426 ;;      Totals:         0       4       0       0       0
  6427 ;;Total ram usage:        4 bytes
  6428 ;; Hardware stack levels used:    1
  6429 ;; Hardware stack levels required when called:    6
  6430 ;; This function calls:
  6431 ;;		_KeyScan
  6432 ;;		_IsKeyPending
  6433 ;;		_GetKey
  6434 ;;		_ScanForImage
  6435 ;;		_GenCharacterFileFromImage
  6436 ;;		_HiSpeedScan
  6437 ;; This function is called by:
  6438 ;;		_EraseAllUsersAfterAdminConfirm
  6439 ;;		_ControlAccess
  6440 ;;		_AlterAdminUser
  6441 ;;		_AddNewUserAfterAdminConfirm
  6442 ;;		_DeleteUserAfterAdminConfirm
  6443 ;; This function uses a non-reentrant model
  6444 ;;
  6445                           psect	text4243
  6446                           	file	"C:\Users\GauravLT\Desktop\Finger Print Sensor\R307\PIC16F877A_R307\FingerPrintSen
                                 sor_R307.c"
  6447                           	line	298
  6448                           	global	__size_of_HiSpeedScan0
  6449  0053                     	__size_of_HiSpeedScan0	equ	__end_of_HiSpeedScan0-_HiSpeedScan0
  6450                           	
  6451  14EC                     _HiSpeedScan0:	
  6452                           	opt	stack 0
  6453                           ; Regs used in _HiSpeedScan0: [wreg-fsr0h+status,2+status,0+pclath+cstack]
  6454                           	line	299
  6455                           	
  6456  14EC                     l14184:	
  6457                           ;FingerPrintSensor_R307.c: 299: unsigned char scanResult=0xFF;
  6458  14EC  30FF               	movlw	(0FFh)
  6459  14ED  1283               	bcf	status, 5	;RP0=0, select bank0
  6460  14EE  1303               	bcf	status, 6	;RP1=0, select bank0
  6461  14EF  00EB               	movwf	(??_HiSpeedScan0+0)+0
  6462  14F0  086B               	movf	(??_HiSpeedScan0+0)+0,w
  6463  14F1  00EC               	movwf	(HiSpeedScan0@scanResult)
  6464  14F2  2CF3               	goto	l14186
  6465                           	line	301
  6466                           ;FingerPrintSensor_R307.c: 301: while(1)
  6467                           	
  6468  14F3                     l3132:	
  6469                           	line	303
  6470                           	
  6471  14F3                     l14186:	
  6472                           ;FingerPrintSensor_R307.c: 302: {
  6473                           ;FingerPrintSensor_R307.c: 303: KeyScan();
  6474  14F3  120A  158A  2110   	fcall	_KeyScan
              160A  118A         
  6475                           	line	304
  6476                           	
  6477  14F8                     l14188:	
  6478                           ;FingerPrintSensor_R307.c: 304: if(IsKeyPending())
  6479  14F8  160A  158A  2798   	fcall	_IsKeyPending
              160A  118A         
  6480  14FD  3A00               	xorlw	0
  6481  14FE  1903               	skipnz
  6482  14FF  2D01               	goto	u14631
  6483  1500  2D02               	goto	u14630
  6484  1501                     u14631:
  6485  1501  2D10               	goto	l14196
  6486  1502                     u14630:
  6487                           	line	306
  6488                           	
  6489  1502                     l14190:	
  6490                           ;FingerPrintSensor_R307.c: 305: {
  6491                           ;FingerPrintSensor_R307.c: 306: if(GetKey() == '3') return 0xFF;
  6492  1502  160A  118A  2019   	fcall	_GetKey
              160A  118A         
  6493  1507  3A33               	xorlw	033h
  6494  1508  1D03               	skipz
  6495  1509  2D0B               	goto	u14641
  6496  150A  2D0C               	goto	u14640
  6497  150B                     u14641:
  6498  150B  2D10               	goto	l14196
  6499  150C                     u14640:
  6500                           	
  6501  150C                     l14192:	
  6502  150C  30FF               	movlw	(0FFh)
  6503  150D  2D3E               	goto	l3135
  6504                           	
  6505  150E                     l14194:	
  6506  150E  2D3E               	goto	l3135
  6507                           	
  6508  150F                     l3134:	
  6509  150F  2D10               	goto	l14196
  6510                           	line	307
  6511                           	
  6512  1510                     l3133:	
  6513                           	line	308
  6514                           	
  6515  1510                     l14196:	
  6516                           ;FingerPrintSensor_R307.c: 307: }
  6517                           ;FingerPrintSensor_R307.c: 308: scanResult = ScanForImage();
  6518  1510  160A  118A  236B   	fcall	_ScanForImage
              160A  118A         
  6519  1515  1283               	bcf	status, 5	;RP0=0, select bank0
  6520  1516  1303               	bcf	status, 6	;RP1=0, select bank0
  6521  1517  00EB               	movwf	(??_HiSpeedScan0+0)+0
  6522  1518  086B               	movf	(??_HiSpeedScan0+0)+0,w
  6523  1519  00EC               	movwf	(HiSpeedScan0@scanResult)
  6524                           	line	309
  6525                           	
  6526  151A                     l14198:	
  6527                           ;FingerPrintSensor_R307.c: 309: if(scanResult == 1)
  6528  151A  086C               	movf	(HiSpeedScan0@scanResult),w
  6529  151B  3A01               	xorlw	01h
  6530  151C  1D03               	skipz
  6531  151D  2D1F               	goto	u14651
  6532  151E  2D20               	goto	u14650
  6533  151F                     u14651:
  6534  151F  2CF3               	goto	l14186
  6535  1520                     u14650:
  6536                           	line	311
  6537                           	
  6538  1520                     l14200:	
  6539                           ;FingerPrintSensor_R307.c: 310: {
  6540                           ;FingerPrintSensor_R307.c: 311: if(GenCharacterFileFromImage())
  6541  1520  160A  118A  2402   	fcall	_GenCharacterFileFromImage
              160A  118A         
  6542  1525  3A00               	xorlw	0
  6543  1526  1903               	skipnz
  6544  1527  2D29               	goto	u14661
  6545  1528  2D2A               	goto	u14660
  6546  1529                     u14661:
  6547  1529  2CF3               	goto	l14186
  6548  152A                     u14660:
  6549                           	line	313
  6550                           	
  6551  152A                     l14202:	
  6552                           ;FingerPrintSensor_R307.c: 312: {
  6553                           ;FingerPrintSensor_R307.c: 313: return HiSpeedScan(UserNo);
  6554  152A  1283               	bcf	status, 5	;RP0=0, select bank0
  6555  152B  1303               	bcf	status, 6	;RP1=0, select bank0
  6556  152C  086A               	movf	(HiSpeedScan0@UserNo+1),w
  6557  152D  01DA               	clrf	(?_HiSpeedScan+1)
  6558  152E  07DA               	addwf	(?_HiSpeedScan+1)
  6559  152F  0869               	movf	(HiSpeedScan0@UserNo),w
  6560  1530  01D9               	clrf	(?_HiSpeedScan)
  6561  1531  07D9               	addwf	(?_HiSpeedScan)
  6562                           
  6563  1532  120A  158A  201B   	fcall	_HiSpeedScan
              160A  118A         
  6564  1537  2D3E               	goto	l3135
  6565                           	
  6566  1538                     l14204:	
  6567  1538  2D3E               	goto	l3135
  6568                           	line	326
  6569                           	
  6570  1539                     l3137:	
  6571  1539  2CF3               	goto	l14186
  6572                           	line	327
  6573                           	
  6574  153A                     l3136:	
  6575  153A  2CF3               	goto	l14186
  6576                           	line	328
  6577                           	
  6578  153B                     l3138:	
  6579                           	line	301
  6580  153B  2CF3               	goto	l14186
  6581                           	
  6582  153C                     l3139:	
  6583                           	line	329
  6584                           	
  6585  153C                     l14206:	
  6586                           ;FingerPrintSensor_R307.c: 326: }
  6587                           ;FingerPrintSensor_R307.c: 327: }
  6588                           ;FingerPrintSensor_R307.c: 328: }
  6589                           ;FingerPrintSensor_R307.c: 329: return 0;
  6590  153C  3000               	movlw	(0)
  6591  153D  2D3E               	goto	l3135
  6592                           	
  6593  153E                     l14208:	
  6594                           	line	330
  6595                           	
  6596  153E                     l3135:	
  6597  153E  0008               	return
  6598                           	opt stack 0
  6599                           GLOBAL	__end_of_HiSpeedScan0
  6600  153F                     	__end_of_HiSpeedScan0:
  6601 ;; =============== function _HiSpeedScan0 ends ============
  6602                           
  6603                           	signat	_HiSpeedScan0,4217
  6604                           	global	_AddUserC
  6605                           psect	text4244,local,class=CODE,delta=2
  6606                           global __ptext4244
  6607  1655                     __ptext4244:
  6608                           
  6609 ;; *************** function _AddUserC *****************
  6610 ;; Defined at:
  6611 ;;		line 435 in file "C:\Users\GauravLT\Desktop\Finger Print Sensor\R307\PIC16F877A_R307\FingerPrintSensor_R307.c"
  6612 ;; Parameters:    Size  Location     Type
  6613 ;;  position        1    wreg     unsigned char 
  6614 ;; Auto vars:     Size  Location     Type
  6615 ;;  position        1   64[BANK0 ] unsigned char 
  6616 ;;  contentData     4   60[BANK0 ] unsigned char [4]
  6617 ;;  confirmation    1   66[BANK0 ] unsigned char 
  6618 ;;  dataOut         1   65[BANK0 ] unsigned char 
  6619 ;; Return value:  Size  Location     Type
  6620 ;;                  1    wreg      unsigned char 
  6621 ;; Registers used:
  6622 ;;		wreg, fsr0l, fsr0h, status,2, status,0, pclath, cstack
  6623 ;; Tracked objects:
  6624 ;;		On entry : 0/0
  6625 ;;		On exit  : 0/0
  6626 ;;		Unchanged: 0/0
  6627 ;; Data sizes:     COMMON   BANK0   BANK1   BANK3   BANK2
  6628 ;;      Params:         0       0       0       0       0
  6629 ;;      Locals:         0       7       0       0       0
  6630 ;;      Temps:          0       3       0       0       0
  6631 ;;      Totals:         0      10       0       0       0
  6632 ;;Total ram usage:       10 bytes
  6633 ;; Hardware stack levels used:    1
  6634 ;; Hardware stack levels required when called:    5
  6635 ;; This function calls:
  6636 ;;		_ClearUartBuffer
  6637 ;;		_sendPackage
  6638 ;;		_FillUpResponse
  6639 ;; This function is called by:
  6640 ;;		_AddNewUser
  6641 ;; This function uses a non-reentrant model
  6642 ;;
  6643                           psect	text4244
  6644                           	file	"C:\Users\GauravLT\Desktop\Finger Print Sensor\R307\PIC16F877A_R307\FingerPrintSen
                                 sor_R307.c"
  6645                           	line	435
  6646                           	global	__size_of_AddUserC
  6647  0063                     	__size_of_AddUserC	equ	__end_of_AddUserC-_AddUserC
  6648                           	
  6649  1655                     _AddUserC:	
  6650                           	opt	stack 0
  6651                           ; Regs used in _AddUserC: [wreg-fsr0h+status,2+status,0+pclath+cstack]
  6652                           ;AddUserC@position stored from wreg
  6653                           	line	436
  6654  1655  1283               	bcf	status, 5	;RP0=0, select bank0
  6655  1656  1303               	bcf	status, 6	;RP1=0, select bank0
  6656  1657  00E0               	movwf	(AddUserC@position)
  6657                           	
  6658  1658                     l14166:	
  6659                           ;FingerPrintSensor_R307.c: 436: unsigned char dataOut[]={0xFF};
  6660  1658  1683               	bsf	status, 5	;RP0=1, select bank1
  6661  1659  1303               	bcf	status, 6	;RP1=0, select bank1
  6662  165A  083A               	movf	(AddUserC@F1346)^080h,w
  6663  165B  1283               	bcf	status, 5	;RP0=0, select bank0
  6664  165C  1303               	bcf	status, 6	;RP1=0, select bank0
  6665  165D  00D9               	movwf	(??_AddUserC+0)+0
  6666  165E  0859               	movf	(??_AddUserC+0)+0,w
  6667  165F  00E1               	movwf	(AddUserC@dataOut)
  6668                           	line	437
  6669                           ;FingerPrintSensor_R307.c: 437: unsigned char confirmationCode=0xFF;
  6670  1660  30FF               	movlw	(0FFh)
  6671  1661  00D9               	movwf	(??_AddUserC+0)+0
  6672  1662  0859               	movf	(??_AddUserC+0)+0,w
  6673  1663  00E2               	movwf	(AddUserC@confirmationCode)
  6674                           	line	438
  6675                           ;FingerPrintSensor_R307.c: 438: unsigned char contentData[]={0x02, 0x00, 0x00, 0x00};
  6676  1664  1683               	bsf	status, 5	;RP0=1, select bank1
  6677  1665  1303               	bcf	status, 6	;RP1=0, select bank1
  6678  1666  0828               	movf	(AddUserC@F1349+3)^080h,w
  6679  1667  1283               	bcf	status, 5	;RP0=0, select bank0
  6680  1668  1303               	bcf	status, 6	;RP1=0, select bank0
  6681  1669  00DF               	movwf	(AddUserC@contentData+3)
  6682  166A  1683               	bsf	status, 5	;RP0=1, select bank1
  6683  166B  1303               	bcf	status, 6	;RP1=0, select bank1
  6684  166C  0827               	movf	(AddUserC@F1349+2)^080h,w
  6685  166D  1283               	bcf	status, 5	;RP0=0, select bank0
  6686  166E  1303               	bcf	status, 6	;RP1=0, select bank0
  6687  166F  00DE               	movwf	(AddUserC@contentData+2)
  6688  1670  1683               	bsf	status, 5	;RP0=1, select bank1
  6689  1671  1303               	bcf	status, 6	;RP1=0, select bank1
  6690  1672  0826               	movf	(AddUserC@F1349+1)^080h,w
  6691  1673  1283               	bcf	status, 5	;RP0=0, select bank0
  6692  1674  1303               	bcf	status, 6	;RP1=0, select bank0
  6693  1675  00DD               	movwf	(AddUserC@contentData+1)
  6694  1676  1683               	bsf	status, 5	;RP0=1, select bank1
  6695  1677  1303               	bcf	status, 6	;RP1=0, select bank1
  6696  1678  0825               	movf	(AddUserC@F1349)^080h,w
  6697  1679  1283               	bcf	status, 5	;RP0=0, select bank0
  6698  167A  1303               	bcf	status, 6	;RP1=0, select bank0
  6699  167B  00DC               	movwf	(AddUserC@contentData)
  6700                           
  6701                           	line	439
  6702                           ;FingerPrintSensor_R307.c: 439: contentData[2] = position;
  6703  167C  0860               	movf	(AddUserC@position),w
  6704  167D  00D9               	movwf	(??_AddUserC+0)+0
  6705  167E  0859               	movf	(??_AddUserC+0)+0,w
  6706  167F  00DE               	movwf	0+(AddUserC@contentData)+02h
  6707                           	line	441
  6708                           	
  6709  1680                     l14168:	
  6710                           ;FingerPrintSensor_R307.c: 441: ClearUartBuffer();
  6711  1680  160A  118A  208E   	fcall	_ClearUartBuffer
              160A  118A         
  6712                           	line	442
  6713                           	
  6714  1685                     l14170:	
  6715                           ;FingerPrintSensor_R307.c: 442: sendPackage(pCmd, 0x06, 0x06, contentData);
  6716  1685  3006               	movlw	(06h)
  6717  1686  1283               	bcf	status, 5	;RP0=0, select bank0
  6718  1687  1303               	bcf	status, 6	;RP1=0, select bank0
  6719  1688  00D9               	movwf	(??_AddUserC+0)+0
  6720  1689  0859               	movf	(??_AddUserC+0)+0,w
  6721  168A  00AB               	movwf	(?_sendPackage)
  6722  168B  3006               	movlw	(06h)
  6723  168C  00DA               	movwf	(??_AddUserC+1)+0
  6724  168D  085A               	movf	(??_AddUserC+1)+0,w
  6725  168E  00AC               	movwf	0+(?_sendPackage)+01h
  6726  168F  305C               	movlw	(AddUserC@contentData)&0ffh
  6727  1690  00DB               	movwf	(??_AddUserC+2)+0
  6728  1691  085B               	movf	(??_AddUserC+2)+0,w
  6729  1692  00AD               	movwf	(0+?_sendPackage+02h)
  6730  1693  3001               	movlw	(01h)
  6731  1694  120A  158A  23B4   	fcall	_sendPackage
              160A  118A         
  6732                           	line	443
  6733                           	
  6734  1699                     l14172:	
  6735                           ;FingerPrintSensor_R307.c: 443: if(FillUpResponse(dataOut, &confirmationCode) )
  6736  1699  3062               	movlw	(AddUserC@confirmationCode)&0ffh
  6737  169A  1283               	bcf	status, 5	;RP0=0, select bank0
  6738  169B  1303               	bcf	status, 6	;RP1=0, select bank0
  6739  169C  00D9               	movwf	(??_AddUserC+0)+0
  6740  169D  0859               	movf	(??_AddUserC+0)+0,w
  6741  169E  00B7               	movwf	(?_FillUpResponse)
  6742  169F  3061               	movlw	(AddUserC@dataOut)&0ffh
  6743  16A0  120A  118A  222F   	fcall	_FillUpResponse
              160A  118A         
  6744  16A5  3A00               	xorlw	0
  6745  16A6  1903               	skipnz
  6746  16A7  2EA9               	goto	u14611
  6747  16A8  2EAA               	goto	u14610
  6748  16A9                     u14611:
  6749  16A9  2EB5               	goto	l14180
  6750  16AA                     u14610:
  6751                           	line	445
  6752                           	
  6753  16AA                     l14174:	
  6754                           ;FingerPrintSensor_R307.c: 444: {
  6755                           ;FingerPrintSensor_R307.c: 445: if(confirmationCode == 0x00) return 1;
  6756  16AA  1283               	bcf	status, 5	;RP0=0, select bank0
  6757  16AB  1303               	bcf	status, 6	;RP1=0, select bank0
  6758  16AC  08E2               	movf	(AddUserC@confirmationCode),f
  6759  16AD  1D03               	skipz
  6760  16AE  2EB0               	goto	u14621
  6761  16AF  2EB1               	goto	u14620
  6762  16B0                     u14621:
  6763  16B0  2EB5               	goto	l14180
  6764  16B1                     u14620:
  6765                           	
  6766  16B1                     l14176:	
  6767  16B1  3001               	movlw	(01h)
  6768  16B2  2EB7               	goto	l3195
  6769                           	
  6770  16B3                     l14178:	
  6771  16B3  2EB7               	goto	l3195
  6772                           	
  6773  16B4                     l3194:	
  6774  16B4  2EB5               	goto	l14180
  6775                           	line	446
  6776                           	
  6777  16B5                     l3193:	
  6778                           	line	447
  6779                           	
  6780  16B5                     l14180:	
  6781                           ;FingerPrintSensor_R307.c: 446: }
  6782                           ;FingerPrintSensor_R307.c: 447: return 0;
  6783  16B5  3000               	movlw	(0)
  6784  16B6  2EB7               	goto	l3195
  6785                           	
  6786  16B7                     l14182:	
  6787                           	line	448
  6788                           	
  6789  16B7                     l3195:	
  6790  16B7  0008               	return
  6791                           	opt stack 0
  6792                           GLOBAL	__end_of_AddUserC
  6793  16B8                     	__end_of_AddUserC:
  6794 ;; =============== function _AddUserC ends ============
  6795                           
  6796                           	signat	_AddUserC,4217
  6797                           	global	_AddUserB
  6798                           psect	text4245,local,class=CODE,delta=2
  6799                           global __ptext4245
  6800  12E4                     __ptext4245:
  6801                           
  6802 ;; *************** function _AddUserB *****************
  6803 ;; Defined at:
  6804 ;;		line 421 in file "C:\Users\GauravLT\Desktop\Finger Print Sensor\R307\PIC16F877A_R307\FingerPrintSensor_R307.c"
  6805 ;; Parameters:    Size  Location     Type
  6806 ;;		None
  6807 ;; Auto vars:     Size  Location     Type
  6808 ;;  confirmation    1   62[BANK0 ] unsigned char 
  6809 ;;  contentData     1   61[BANK0 ] unsigned char 
  6810 ;;  dataOut         1   60[BANK0 ] unsigned char 
  6811 ;; Return value:  Size  Location     Type
  6812 ;;                  1    wreg      unsigned char 
  6813 ;; Registers used:
  6814 ;;		wreg, fsr0l, fsr0h, status,2, status,0, pclath, cstack
  6815 ;; Tracked objects:
  6816 ;;		On entry : 0/0
  6817 ;;		On exit  : 0/0
  6818 ;;		Unchanged: 0/0
  6819 ;; Data sizes:     COMMON   BANK0   BANK1   BANK3   BANK2
  6820 ;;      Params:         0       0       0       0       0
  6821 ;;      Locals:         0       3       0       0       0
  6822 ;;      Temps:          0       3       0       0       0
  6823 ;;      Totals:         0       6       0       0       0
  6824 ;;Total ram usage:        6 bytes
  6825 ;; Hardware stack levels used:    1
  6826 ;; Hardware stack levels required when called:    5
  6827 ;; This function calls:
  6828 ;;		_ClearUartBuffer
  6829 ;;		_sendPackage
  6830 ;;		_FillUpResponse
  6831 ;; This function is called by:
  6832 ;;		_AddNewUser
  6833 ;; This function uses a non-reentrant model
  6834 ;;
  6835                           psect	text4245
  6836                           	file	"C:\Users\GauravLT\Desktop\Finger Print Sensor\R307\PIC16F877A_R307\FingerPrintSen
                                 sor_R307.c"
  6837                           	line	421
  6838                           	global	__size_of_AddUserB
  6839  003E                     	__size_of_AddUserB	equ	__end_of_AddUserB-_AddUserB
  6840                           	
  6841  12E4                     _AddUserB:	
  6842                           	opt	stack 0
  6843                           ; Regs used in _AddUserB: [wreg-fsr0h+status,2+status,0+pclath+cstack]
  6844                           	line	422
  6845                           	
  6846  12E4                     l14154:	
  6847                           ;FingerPrintSensor_R307.c: 422: unsigned char dataOut[]={0xFF};
  6848  12E4  1683               	bsf	status, 5	;RP0=1, select bank1
  6849  12E5  1303               	bcf	status, 6	;RP1=0, select bank1
  6850  12E6  0838               	movf	(AddUserB@F1340)^080h,w
  6851  12E7  1283               	bcf	status, 5	;RP0=0, select bank0
  6852  12E8  1303               	bcf	status, 6	;RP1=0, select bank0
  6853  12E9  00D9               	movwf	(??_AddUserB+0)+0
  6854  12EA  0859               	movf	(??_AddUserB+0)+0,w
  6855  12EB  00DC               	movwf	(AddUserB@dataOut)
  6856                           	line	423
  6857                           ;FingerPrintSensor_R307.c: 423: unsigned char confirmationCode=0xFF;
  6858  12EC  30FF               	movlw	(0FFh)
  6859  12ED  00D9               	movwf	(??_AddUserB+0)+0
  6860  12EE  0859               	movf	(??_AddUserB+0)+0,w
  6861  12EF  00DE               	movwf	(AddUserB@confirmationCode)
  6862                           	line	424
  6863                           ;FingerPrintSensor_R307.c: 424: unsigned char contentData[]={0x05};
  6864  12F0  1683               	bsf	status, 5	;RP0=1, select bank1
  6865  12F1  1303               	bcf	status, 6	;RP1=0, select bank1
  6866  12F2  0839               	movf	(AddUserB@F1343)^080h,w
  6867  12F3  1283               	bcf	status, 5	;RP0=0, select bank0
  6868  12F4  1303               	bcf	status, 6	;RP1=0, select bank0
  6869  12F5  00D9               	movwf	(??_AddUserB+0)+0
  6870  12F6  0859               	movf	(??_AddUserB+0)+0,w
  6871  12F7  00DD               	movwf	(AddUserB@contentData)
  6872                           	line	426
  6873                           	
  6874  12F8                     l14156:	
  6875                           ;FingerPrintSensor_R307.c: 426: ClearUartBuffer();
  6876  12F8  160A  118A  208E   	fcall	_ClearUartBuffer
              160A  118A         
  6877                           	line	427
  6878                           	
  6879  12FD                     l14158:	
  6880                           ;FingerPrintSensor_R307.c: 427: sendPackage(pCmd, 0x03, 0x05, contentData);
  6881  12FD  3003               	movlw	(03h)
  6882  12FE  1283               	bcf	status, 5	;RP0=0, select bank0
  6883  12FF  1303               	bcf	status, 6	;RP1=0, select bank0
  6884  1300  00D9               	movwf	(??_AddUserB+0)+0
  6885  1301  0859               	movf	(??_AddUserB+0)+0,w
  6886  1302  00AB               	movwf	(?_sendPackage)
  6887  1303  3005               	movlw	(05h)
  6888  1304  00DA               	movwf	(??_AddUserB+1)+0
  6889  1305  085A               	movf	(??_AddUserB+1)+0,w
  6890  1306  00AC               	movwf	0+(?_sendPackage)+01h
  6891  1307  305D               	movlw	(AddUserB@contentData)&0ffh
  6892  1308  00DB               	movwf	(??_AddUserB+2)+0
  6893  1309  085B               	movf	(??_AddUserB+2)+0,w
  6894  130A  00AD               	movwf	(0+?_sendPackage+02h)
  6895  130B  3001               	movlw	(01h)
  6896  130C  120A  158A  23B4   	fcall	_sendPackage
              160A  118A         
  6897                           	line	428
  6898                           	
  6899  1311                     l14160:	
  6900                           ;FingerPrintSensor_R307.c: 428: if(FillUpResponse(dataOut, &confirmationCode) )
  6901  1311  305E               	movlw	(AddUserB@confirmationCode)&0ffh
  6902  1312  1283               	bcf	status, 5	;RP0=0, select bank0
  6903  1313  1303               	bcf	status, 6	;RP1=0, select bank0
  6904  1314  00D9               	movwf	(??_AddUserB+0)+0
  6905  1315  0859               	movf	(??_AddUserB+0)+0,w
  6906  1316  00B7               	movwf	(?_FillUpResponse)
  6907  1317  305C               	movlw	(AddUserB@dataOut)&0ffh
  6908  1318  120A  118A  222F   	fcall	_FillUpResponse
              160A  118A         
  6909  131D  2B21               	goto	l3186
  6910                           	line	430
  6911                           	
  6912  131E                     l14162:	
  6913  131E  2B21               	goto	l3186
  6914                           	
  6915  131F                     l14164:	
  6916                           ;	Return value of _AddUserB is never used
  6917  131F  2B21               	goto	l3186
  6918                           	
  6919  1320                     l3185:	
  6920  1320  2B21               	goto	l3186
  6921                           	line	431
  6922                           	
  6923  1321                     l3184:	
  6924                           	line	433
  6925                           ;FingerPrintSensor_R307.c: 431: }
  6926                           ;FingerPrintSensor_R307.c: 432: return 0;
  6927                           ;	Return value of _AddUserB is never used
  6928                           	
  6929  1321                     l3186:	
  6930  1321  0008               	return
  6931                           	opt stack 0
  6932                           GLOBAL	__end_of_AddUserB
  6933  1322                     	__end_of_AddUserB:
  6934 ;; =============== function _AddUserB ends ============
  6935                           
  6936                           	signat	_AddUserB,89
  6937                           	global	_AddUserA
  6938                           psect	text4246,local,class=CODE,delta=2
  6939                           global __ptext4246
  6940  12A6                     __ptext4246:
  6941                           
  6942 ;; *************** function _AddUserA *****************
  6943 ;; Defined at:
  6944 ;;		line 407 in file "C:\Users\GauravLT\Desktop\Finger Print Sensor\R307\PIC16F877A_R307\FingerPrintSensor_R307.c"
  6945 ;; Parameters:    Size  Location     Type
  6946 ;;		None
  6947 ;; Auto vars:     Size  Location     Type
  6948 ;;  confirmation    1   62[BANK0 ] unsigned char 
  6949 ;;  contentData     1   61[BANK0 ] unsigned char 
  6950 ;;  dataOut         1   60[BANK0 ] unsigned char 
  6951 ;; Return value:  Size  Location     Type
  6952 ;;                  1    wreg      unsigned char 
  6953 ;; Registers used:
  6954 ;;		wreg, fsr0l, fsr0h, status,2, status,0, pclath, cstack
  6955 ;; Tracked objects:
  6956 ;;		On entry : 0/0
  6957 ;;		On exit  : 0/0
  6958 ;;		Unchanged: 0/0
  6959 ;; Data sizes:     COMMON   BANK0   BANK1   BANK3   BANK2
  6960 ;;      Params:         0       0       0       0       0
  6961 ;;      Locals:         0       3       0       0       0
  6962 ;;      Temps:          0       3       0       0       0
  6963 ;;      Totals:         0       6       0       0       0
  6964 ;;Total ram usage:        6 bytes
  6965 ;; Hardware stack levels used:    1
  6966 ;; Hardware stack levels required when called:    5
  6967 ;; This function calls:
  6968 ;;		_ClearUartBuffer
  6969 ;;		_sendPackage
  6970 ;;		_FillUpResponse
  6971 ;; This function is called by:
  6972 ;;		_AddNewUser
  6973 ;; This function uses a non-reentrant model
  6974 ;;
  6975                           psect	text4246
  6976                           	file	"C:\Users\GauravLT\Desktop\Finger Print Sensor\R307\PIC16F877A_R307\FingerPrintSen
                                 sor_R307.c"
  6977                           	line	407
  6978                           	global	__size_of_AddUserA
  6979  003E                     	__size_of_AddUserA	equ	__end_of_AddUserA-_AddUserA
  6980                           	
  6981  12A6                     _AddUserA:	
  6982                           	opt	stack 0
  6983                           ; Regs used in _AddUserA: [wreg-fsr0h+status,2+status,0+pclath+cstack]
  6984                           	line	408
  6985                           	
  6986  12A6                     l14142:	
  6987                           ;FingerPrintSensor_R307.c: 408: unsigned char dataOut[]={0xFF};
  6988  12A6  1683               	bsf	status, 5	;RP0=1, select bank1
  6989  12A7  1303               	bcf	status, 6	;RP1=0, select bank1
  6990  12A8  0836               	movf	(AddUserA@F1335)^080h,w
  6991  12A9  1283               	bcf	status, 5	;RP0=0, select bank0
  6992  12AA  1303               	bcf	status, 6	;RP1=0, select bank0
  6993  12AB  00D9               	movwf	(??_AddUserA+0)+0
  6994  12AC  0859               	movf	(??_AddUserA+0)+0,w
  6995  12AD  00DC               	movwf	(AddUserA@dataOut)
  6996                           	line	409
  6997                           ;FingerPrintSensor_R307.c: 409: unsigned char confirmationCode=0xFF;
  6998  12AE  30FF               	movlw	(0FFh)
  6999  12AF  00D9               	movwf	(??_AddUserA+0)+0
  7000  12B0  0859               	movf	(??_AddUserA+0)+0,w
  7001  12B1  00DE               	movwf	(AddUserA@confirmationCode)
  7002                           	line	410
  7003                           ;FingerPrintSensor_R307.c: 410: unsigned char contentData[]={0x02};
  7004  12B2  1683               	bsf	status, 5	;RP0=1, select bank1
  7005  12B3  1303               	bcf	status, 6	;RP1=0, select bank1
  7006  12B4  0837               	movf	(AddUserA@F1338)^080h,w
  7007  12B5  1283               	bcf	status, 5	;RP0=0, select bank0
  7008  12B6  1303               	bcf	status, 6	;RP1=0, select bank0
  7009  12B7  00D9               	movwf	(??_AddUserA+0)+0
  7010  12B8  0859               	movf	(??_AddUserA+0)+0,w
  7011  12B9  00DD               	movwf	(AddUserA@contentData)
  7012                           	line	412
  7013                           	
  7014  12BA                     l14144:	
  7015                           ;FingerPrintSensor_R307.c: 412: ClearUartBuffer();
  7016  12BA  160A  118A  208E   	fcall	_ClearUartBuffer
              160A  118A         
  7017                           	line	413
  7018                           	
  7019  12BF                     l14146:	
  7020                           ;FingerPrintSensor_R307.c: 413: sendPackage(pCmd, 0x04, 0x02, contentData);
  7021  12BF  3004               	movlw	(04h)
  7022  12C0  1283               	bcf	status, 5	;RP0=0, select bank0
  7023  12C1  1303               	bcf	status, 6	;RP1=0, select bank0
  7024  12C2  00D9               	movwf	(??_AddUserA+0)+0
  7025  12C3  0859               	movf	(??_AddUserA+0)+0,w
  7026  12C4  00AB               	movwf	(?_sendPackage)
  7027  12C5  3002               	movlw	(02h)
  7028  12C6  00DA               	movwf	(??_AddUserA+1)+0
  7029  12C7  085A               	movf	(??_AddUserA+1)+0,w
  7030  12C8  00AC               	movwf	0+(?_sendPackage)+01h
  7031  12C9  305D               	movlw	(AddUserA@contentData)&0ffh
  7032  12CA  00DB               	movwf	(??_AddUserA+2)+0
  7033  12CB  085B               	movf	(??_AddUserA+2)+0,w
  7034  12CC  00AD               	movwf	(0+?_sendPackage+02h)
  7035  12CD  3001               	movlw	(01h)
  7036  12CE  120A  158A  23B4   	fcall	_sendPackage
              160A  118A         
  7037                           	line	414
  7038                           	
  7039  12D3                     l14148:	
  7040                           ;FingerPrintSensor_R307.c: 414: if(FillUpResponse(dataOut, &confirmationCode) )
  7041  12D3  305E               	movlw	(AddUserA@confirmationCode)&0ffh
  7042  12D4  1283               	bcf	status, 5	;RP0=0, select bank0
  7043  12D5  1303               	bcf	status, 6	;RP1=0, select bank0
  7044  12D6  00D9               	movwf	(??_AddUserA+0)+0
  7045  12D7  0859               	movf	(??_AddUserA+0)+0,w
  7046  12D8  00B7               	movwf	(?_FillUpResponse)
  7047  12D9  305C               	movlw	(AddUserA@dataOut)&0ffh
  7048  12DA  120A  118A  222F   	fcall	_FillUpResponse
              160A  118A         
  7049  12DF  2AE3               	goto	l3177
  7050                           	line	416
  7051                           	
  7052  12E0                     l14150:	
  7053  12E0  2AE3               	goto	l3177
  7054                           	
  7055  12E1                     l14152:	
  7056                           ;	Return value of _AddUserA is never used
  7057  12E1  2AE3               	goto	l3177
  7058                           	
  7059  12E2                     l3176:	
  7060  12E2  2AE3               	goto	l3177
  7061                           	line	417
  7062                           	
  7063  12E3                     l3175:	
  7064                           	line	419
  7065                           ;FingerPrintSensor_R307.c: 417: }
  7066                           ;FingerPrintSensor_R307.c: 418: return 0;
  7067                           ;	Return value of _AddUserA is never used
  7068                           	
  7069  12E3                     l3177:	
  7070  12E3  0008               	return
  7071                           	opt stack 0
  7072                           GLOBAL	__end_of_AddUserA
  7073  12E4                     	__end_of_AddUserA:
  7074 ;; =============== function _AddUserA ends ============
  7075                           
  7076                           	signat	_AddUserA,89
  7077                           	global	_HiSpeedScan
  7078                           psect	text4247,local,class=CODE,delta=2
  7079                           global __ptext4247
  7080  081B                     __ptext4247:
  7081                           
  7082 ;; *************** function _HiSpeedScan *****************
  7083 ;; Defined at:
  7084 ;;		line 334 in file "C:\Users\GauravLT\Desktop\Finger Print Sensor\R307\PIC16F877A_R307\FingerPrintSensor_R307.c"
  7085 ;; Parameters:    Size  Location     Type
  7086 ;;  UserNo          2   57[BANK0 ] PTR unsigned char 
  7087 ;;		 -> DeleteUserAfterAdminConfirm@UserNo(1), AddNewUserAfterAdminConfirm@UserNo(1), AlterAdminUser@UserNo(1), ControlA
       ccess@UserNo(1), 
  7088 ;;		 -> EraseAllUsersAfterAdminConfirm@UserNo(1), 
  7089 ;; Auto vars:     Size  Location     Type
  7090 ;;  dataOut         5   67[BANK0 ] unsigned char [5]
  7091 ;;  contentData     5   62[BANK0 ] unsigned char [5]
  7092 ;;  confirmation    1   72[BANK0 ] unsigned char 
  7093 ;; Return value:  Size  Location     Type
  7094 ;;                  1    wreg      unsigned char 
  7095 ;; Registers used:
  7096 ;;		wreg, fsr0l, fsr0h, status,2, status,0, pclath, cstack
  7097 ;; Tracked objects:
  7098 ;;		On entry : 0/0
  7099 ;;		On exit  : 0/0
  7100 ;;		Unchanged: 0/0
  7101 ;; Data sizes:     COMMON   BANK0   BANK1   BANK3   BANK2
  7102 ;;      Params:         0       2       0       0       0
  7103 ;;      Locals:         0      11       0       0       0
  7104 ;;      Temps:          0       3       0       0       0
  7105 ;;      Totals:         0      16       0       0       0
  7106 ;;Total ram usage:       16 bytes
  7107 ;; Hardware stack levels used:    1
  7108 ;; Hardware stack levels required when called:    5
  7109 ;; This function calls:
  7110 ;;		_ClearUartBuffer
  7111 ;;		_sendPackage
  7112 ;;		_FillUpResponse
  7113 ;; This function is called by:
  7114 ;;		_HiSpeedScan0
  7115 ;; This function uses a non-reentrant model
  7116 ;;
  7117                           psect	text4247
  7118                           	file	"C:\Users\GauravLT\Desktop\Finger Print Sensor\R307\PIC16F877A_R307\FingerPrintSen
                                 sor_R307.c"
  7119                           	line	334
  7120                           	global	__size_of_HiSpeedScan
  7121  0074                     	__size_of_HiSpeedScan	equ	__end_of_HiSpeedScan-_HiSpeedScan
  7122                           	
  7123  081B                     _HiSpeedScan:	
  7124                           	opt	stack 0
  7125                           ; Regs used in _HiSpeedScan: [wreg-fsr0h+status,2+status,0+pclath+cstack]
  7126                           	line	341
  7127                           	
  7128  081B                     l14116:	
  7129                           ;FingerPrintSensor_R307.c: 341: unsigned char dataOut[]={0xFF, 0xFF, 0xFF, 0xFF, 0x00};
  7130  081B  3063               	movlw	(HiSpeedScan@dataOut)&0ffh
  7131  081C  0084               	movwf	fsr0
  7132  081D  1683               	bsf	status, 5	;RP0=1, select bank1
  7133  081E  1303               	bcf	status, 6	;RP1=0, select bank1
  7134  081F  0820               	movf	(HiSpeedScan@F1322)^080h,w
  7135  0820  1383               	bcf	status, 7	;select IRP bank0
  7136  0821  0080               	movwf	indf
  7137  0822  0A84               	incf	fsr0,f
  7138  0823  0821               	movf	(HiSpeedScan@F1322)^080h+1,w
  7139  0824  0080               	movwf	indf
  7140  0825  0A84               	incf	fsr0,f
  7141  0826  0822               	movf	(HiSpeedScan@F1322)^080h+2,w
  7142  0827  0080               	movwf	indf
  7143  0828  0A84               	incf	fsr0,f
  7144  0829  0823               	movf	(HiSpeedScan@F1322)^080h+3,w
  7145  082A  0080               	movwf	indf
  7146  082B  0A84               	incf	fsr0,f
  7147  082C  0824               	movf	(HiSpeedScan@F1322)^080h+4,w
  7148  082D  0080               	movwf	indf
  7149                           	line	342
  7150                           	
  7151  082E                     l14118:	
  7152                           ;FingerPrintSensor_R307.c: 342: unsigned char confirmationCode=0xFF;
  7153  082E  30FF               	movlw	(0FFh)
  7154  082F  1283               	bcf	status, 5	;RP0=0, select bank0
  7155  0830  1303               	bcf	status, 6	;RP1=0, select bank0
  7156  0831  00DB               	movwf	(??_HiSpeedScan+0)+0
  7157  0832  085B               	movf	(??_HiSpeedScan+0)+0,w
  7158  0833  00E8               	movwf	(HiSpeedScan@confirmationCode)
  7159                           	line	343
  7160                           	
  7161  0834                     l14120:	
  7162                           ;FingerPrintSensor_R307.c: 343: unsigned char contentData[]={0x01, 0x00, 0x00, 0x03, 0xE
                                 9};
  7163  0834  305E               	movlw	(HiSpeedScan@contentData)&0ffh
  7164  0835  0084               	movwf	fsr0
  7165  0836  1683               	bsf	status, 5	;RP0=1, select bank3
  7166  0837  1703               	bsf	status, 6	;RP1=1, select bank3
  7167  0838  0858               	movf	(HiSpeedScan@F1325)^0180h,w
  7168  0839  0080               	movwf	indf
  7169  083A  0A84               	incf	fsr0,f
  7170  083B  0859               	movf	(HiSpeedScan@F1325)^0180h+1,w
  7171  083C  0080               	movwf	indf
  7172  083D  0A84               	incf	fsr0,f
  7173  083E  085A               	movf	(HiSpeedScan@F1325)^0180h+2,w
  7174  083F  0080               	movwf	indf
  7175  0840  0A84               	incf	fsr0,f
  7176  0841  085B               	movf	(HiSpeedScan@F1325)^0180h+3,w
  7177  0842  0080               	movwf	indf
  7178  0843  0A84               	incf	fsr0,f
  7179  0844  085C               	movf	(HiSpeedScan@F1325)^0180h+4,w
  7180  0845  0080               	movwf	indf
  7181                           	line	345
  7182                           	
  7183  0846                     l14122:	
  7184                           ;FingerPrintSensor_R307.c: 345: ClearUartBuffer();
  7185  0846  160A  118A  208E   	fcall	_ClearUartBuffer
              120A  158A         
  7186                           	line	346
  7187                           	
  7188  084B                     l14124:	
  7189                           ;FingerPrintSensor_R307.c: 346: sendPackage(pCmd, 0x08, 0x1B, contentData);
  7190  084B  3008               	movlw	(08h)
  7191  084C  1283               	bcf	status, 5	;RP0=0, select bank0
  7192  084D  1303               	bcf	status, 6	;RP1=0, select bank0
  7193  084E  00DB               	movwf	(??_HiSpeedScan+0)+0
  7194  084F  085B               	movf	(??_HiSpeedScan+0)+0,w
  7195  0850  00AB               	movwf	(?_sendPackage)
  7196  0851  301B               	movlw	(01Bh)
  7197  0852  00DC               	movwf	(??_HiSpeedScan+1)+0
  7198  0853  085C               	movf	(??_HiSpeedScan+1)+0,w
  7199  0854  00AC               	movwf	0+(?_sendPackage)+01h
  7200  0855  305E               	movlw	(HiSpeedScan@contentData)&0ffh
  7201  0856  00DD               	movwf	(??_HiSpeedScan+2)+0
  7202  0857  085D               	movf	(??_HiSpeedScan+2)+0,w
  7203  0858  00AD               	movwf	(0+?_sendPackage+02h)
  7204  0859  3001               	movlw	(01h)
  7205  085A  120A  158A  23B4   	fcall	_sendPackage
              120A  158A         
  7206                           	line	348
  7207                           	
  7208  085F                     l14126:	
  7209                           ;FingerPrintSensor_R307.c: 348: if(FillUpResponse(dataOut, &confirmationCode) )
  7210  085F  3068               	movlw	(HiSpeedScan@confirmationCode)&0ffh
  7211  0860  1283               	bcf	status, 5	;RP0=0, select bank0
  7212  0861  1303               	bcf	status, 6	;RP1=0, select bank0
  7213  0862  00DB               	movwf	(??_HiSpeedScan+0)+0
  7214  0863  085B               	movf	(??_HiSpeedScan+0)+0,w
  7215  0864  00B7               	movwf	(?_FillUpResponse)
  7216  0865  3063               	movlw	(HiSpeedScan@dataOut)&0ffh
  7217  0866  120A  118A  222F   	fcall	_FillUpResponse
              120A  158A         
  7218  086B  3A00               	xorlw	0
  7219  086C  1903               	skipnz
  7220  086D  286F               	goto	u14591
  7221  086E  2870               	goto	u14590
  7222  086F                     u14591:
  7223  086F  2884               	goto	l14136
  7224  0870                     u14590:
  7225                           	line	350
  7226                           	
  7227  0870                     l14128:	
  7228                           ;FingerPrintSensor_R307.c: 349: {
  7229                           ;FingerPrintSensor_R307.c: 350: if(confirmationCode == 0x00){*UserNo=dataOut[1]; return 
                                 1; }
  7230  0870  1283               	bcf	status, 5	;RP0=0, select bank0
  7231  0871  1303               	bcf	status, 6	;RP1=0, select bank0
  7232  0872  08E8               	movf	(HiSpeedScan@confirmationCode),f
  7233  0873  1D03               	skipz
  7234  0874  2876               	goto	u14601
  7235  0875  2877               	goto	u14600
  7236  0876                     u14601:
  7237  0876  2884               	goto	l14136
  7238  0877                     u14600:
  7239                           	
  7240  0877                     l14130:	
  7241  0877  0864               	movf	0+(HiSpeedScan@dataOut)+01h,w
  7242  0878  00DB               	movwf	(??_HiSpeedScan+0)+0
  7243  0879  0859               	movf	(HiSpeedScan@UserNo),w
  7244  087A  0084               	movwf	fsr0
  7245  087B  1783               	bsf	status,7
  7246  087C  1C5A               	btfss	(HiSpeedScan@UserNo+1),0
  7247  087D  1383               	bcf	status,7
  7248  087E  085B               	movf	(??_HiSpeedScan+0)+0,w
  7249  087F  0080               	movwf	indf
  7250                           	
  7251  0880                     l14132:	
  7252  0880  3001               	movlw	(01h)
  7253  0881  288E               	goto	l3148
  7254                           	
  7255  0882                     l14134:	
  7256  0882  288E               	goto	l3148
  7257                           	
  7258  0883                     l3147:	
  7259  0883  2884               	goto	l14136
  7260                           	line	351
  7261                           	
  7262  0884                     l3146:	
  7263                           	line	352
  7264                           	
  7265  0884                     l14136:	
  7266                           ;FingerPrintSensor_R307.c: 351: }
  7267                           ;FingerPrintSensor_R307.c: 352: *UserNo = 0;
  7268  0884  1283               	bcf	status, 5	;RP0=0, select bank0
  7269  0885  1303               	bcf	status, 6	;RP1=0, select bank0
  7270  0886  0859               	movf	(HiSpeedScan@UserNo),w
  7271  0887  0084               	movwf	fsr0
  7272  0888  1783               	bsf	status,7
  7273  0889  1C5A               	btfss	(HiSpeedScan@UserNo+1),0
  7274  088A  1383               	bcf	status,7
  7275  088B  0180               	clrf	indf
  7276                           	line	353
  7277                           	
  7278  088C                     l14138:	
  7279                           ;FingerPrintSensor_R307.c: 353: return 0;
  7280  088C  3000               	movlw	(0)
  7281  088D  288E               	goto	l3148
  7282                           	
  7283  088E                     l14140:	
  7284                           	line	354
  7285                           	
  7286  088E                     l3148:	
  7287  088E  0008               	return
  7288                           	opt stack 0
  7289                           GLOBAL	__end_of_HiSpeedScan
  7290  088F                     	__end_of_HiSpeedScan:
  7291 ;; =============== function _HiSpeedScan ends ============
  7292                           
  7293                           	signat	_HiSpeedScan,4217
  7294                           	global	_GenCharacterFileFromImage
  7295                           psect	text4248,local,class=CODE,delta=2
  7296                           global __ptext4248
  7297  1402                     __ptext4248:
  7298                           
  7299 ;; *************** function _GenCharacterFileFromImage *****************
  7300 ;; Defined at:
  7301 ;;		line 255 in file "C:\Users\GauravLT\Desktop\Finger Print Sensor\R307\PIC16F877A_R307\FingerPrintSensor_R307.c"
  7302 ;; Parameters:    Size  Location     Type
  7303 ;;		None
  7304 ;; Auto vars:     Size  Location     Type
  7305 ;;  confirmation    1   62[BANK0 ] unsigned char 
  7306 ;;  dataOut         1   61[BANK0 ] unsigned char 
  7307 ;;  contentData     1   60[BANK0 ] unsigned char 
  7308 ;; Return value:  Size  Location     Type
  7309 ;;                  1    wreg      unsigned char 
  7310 ;; Registers used:
  7311 ;;		wreg, fsr0l, fsr0h, status,2, status,0, pclath, cstack
  7312 ;; Tracked objects:
  7313 ;;		On entry : 0/0
  7314 ;;		On exit  : 0/0
  7315 ;;		Unchanged: 0/0
  7316 ;; Data sizes:     COMMON   BANK0   BANK1   BANK3   BANK2
  7317 ;;      Params:         0       0       0       0       0
  7318 ;;      Locals:         0       3       0       0       0
  7319 ;;      Temps:          0       3       0       0       0
  7320 ;;      Totals:         0       6       0       0       0
  7321 ;;Total ram usage:        6 bytes
  7322 ;; Hardware stack levels used:    1
  7323 ;; Hardware stack levels required when called:    5
  7324 ;; This function calls:
  7325 ;;		_ClearUartBuffer
  7326 ;;		_sendPackage
  7327 ;;		_FillUpResponse
  7328 ;; This function is called by:
  7329 ;;		_HiSpeedScan0
  7330 ;;		_AddNewUser
  7331 ;;		_CheckUser
  7332 ;; This function uses a non-reentrant model
  7333 ;;
  7334                           psect	text4248
  7335                           	file	"C:\Users\GauravLT\Desktop\Finger Print Sensor\R307\PIC16F877A_R307\FingerPrintSen
                                 sor_R307.c"
  7336                           	line	255
  7337                           	global	__size_of_GenCharacterFileFromImage
  7338  004C                     	__size_of_GenCharacterFileFromImage	equ	__end_of_GenCharacterFileFromImage-_GenCharacte
                                 rFileFromImage
  7339                           	
  7340  1402                     _GenCharacterFileFromImage:	
  7341                           	opt	stack 0
  7342                           ; Regs used in _GenCharacterFileFromImage: [wreg-fsr0h+status,2+status,0+pclath+cstack]
  7343                           	line	256
  7344                           	
  7345  1402                     l14098:	
  7346                           ;FingerPrintSensor_R307.c: 256: unsigned char contentData[]={0x01};
  7347  1402  1683               	bsf	status, 5	;RP0=1, select bank1
  7348  1403  1303               	bcf	status, 6	;RP1=0, select bank1
  7349  1404  083C               	movf	(GenCharacterFileFromImage@F1303)^080h,w
  7350  1405  1283               	bcf	status, 5	;RP0=0, select bank0
  7351  1406  1303               	bcf	status, 6	;RP1=0, select bank0
  7352  1407  00D9               	movwf	(??_GenCharacterFileFromImage+0)+0
  7353  1408  0859               	movf	(??_GenCharacterFileFromImage+0)+0,w
  7354  1409  00DC               	movwf	(GenCharacterFileFromImage@contentData)
  7355                           	line	257
  7356                           ;FingerPrintSensor_R307.c: 257: unsigned char dataOut[]={0xFF};
  7357  140A  1683               	bsf	status, 5	;RP0=1, select bank1
  7358  140B  1303               	bcf	status, 6	;RP1=0, select bank1
  7359  140C  083D               	movf	(GenCharacterFileFromImage@F1305)^080h,w
  7360  140D  1283               	bcf	status, 5	;RP0=0, select bank0
  7361  140E  1303               	bcf	status, 6	;RP1=0, select bank0
  7362  140F  00D9               	movwf	(??_GenCharacterFileFromImage+0)+0
  7363  1410  0859               	movf	(??_GenCharacterFileFromImage+0)+0,w
  7364  1411  00DD               	movwf	(GenCharacterFileFromImage@dataOut)
  7365                           	line	258
  7366                           ;FingerPrintSensor_R307.c: 258: unsigned char confirmationCode=0xFF;
  7367  1412  30FF               	movlw	(0FFh)
  7368  1413  00D9               	movwf	(??_GenCharacterFileFromImage+0)+0
  7369  1414  0859               	movf	(??_GenCharacterFileFromImage+0)+0,w
  7370  1415  00DE               	movwf	(GenCharacterFileFromImage@confirmationCode)
  7371                           	line	260
  7372                           	
  7373  1416                     l14100:	
  7374                           ;FingerPrintSensor_R307.c: 260: ClearUartBuffer();
  7375  1416  160A  118A  208E   	fcall	_ClearUartBuffer
              160A  118A         
  7376                           	line	261
  7377                           	
  7378  141B                     l14102:	
  7379                           ;FingerPrintSensor_R307.c: 261: sendPackage(pCmd, 0x04, 0x02, contentData);
  7380  141B  3004               	movlw	(04h)
  7381  141C  1283               	bcf	status, 5	;RP0=0, select bank0
  7382  141D  1303               	bcf	status, 6	;RP1=0, select bank0
  7383  141E  00D9               	movwf	(??_GenCharacterFileFromImage+0)+0
  7384  141F  0859               	movf	(??_GenCharacterFileFromImage+0)+0,w
  7385  1420  00AB               	movwf	(?_sendPackage)
  7386  1421  3002               	movlw	(02h)
  7387  1422  00DA               	movwf	(??_GenCharacterFileFromImage+1)+0
  7388  1423  085A               	movf	(??_GenCharacterFileFromImage+1)+0,w
  7389  1424  00AC               	movwf	0+(?_sendPackage)+01h
  7390  1425  305C               	movlw	(GenCharacterFileFromImage@contentData)&0ffh
  7391  1426  00DB               	movwf	(??_GenCharacterFileFromImage+2)+0
  7392  1427  085B               	movf	(??_GenCharacterFileFromImage+2)+0,w
  7393  1428  00AD               	movwf	(0+?_sendPackage+02h)
  7394  1429  3001               	movlw	(01h)
  7395  142A  120A  158A  23B4   	fcall	_sendPackage
              160A  118A         
  7396                           	line	262
  7397                           	
  7398  142F                     l14104:	
  7399                           ;FingerPrintSensor_R307.c: 262: if(FillUpResponse(dataOut, &confirmationCode) )
  7400  142F  305E               	movlw	(GenCharacterFileFromImage@confirmationCode)&0ffh
  7401  1430  1283               	bcf	status, 5	;RP0=0, select bank0
  7402  1431  1303               	bcf	status, 6	;RP1=0, select bank0
  7403  1432  00D9               	movwf	(??_GenCharacterFileFromImage+0)+0
  7404  1433  0859               	movf	(??_GenCharacterFileFromImage+0)+0,w
  7405  1434  00B7               	movwf	(?_FillUpResponse)
  7406  1435  305D               	movlw	(GenCharacterFileFromImage@dataOut)&0ffh
  7407  1436  120A  118A  222F   	fcall	_FillUpResponse
              160A  118A         
  7408  143B  3A00               	xorlw	0
  7409  143C  1903               	skipnz
  7410  143D  2C3F               	goto	u14571
  7411  143E  2C40               	goto	u14570
  7412  143F                     u14571:
  7413  143F  2C4B               	goto	l14112
  7414  1440                     u14570:
  7415                           	line	264
  7416                           	
  7417  1440                     l14106:	
  7418                           ;FingerPrintSensor_R307.c: 263: {
  7419                           ;FingerPrintSensor_R307.c: 264: if(confirmationCode == 0x00) return 1;
  7420  1440  1283               	bcf	status, 5	;RP0=0, select bank0
  7421  1441  1303               	bcf	status, 6	;RP1=0, select bank0
  7422  1442  08DE               	movf	(GenCharacterFileFromImage@confirmationCode),f
  7423  1443  1D03               	skipz
  7424  1444  2C46               	goto	u14581
  7425  1445  2C47               	goto	u14580
  7426  1446                     u14581:
  7427  1446  2C4B               	goto	l14112
  7428  1447                     u14580:
  7429                           	
  7430  1447                     l14108:	
  7431  1447  3001               	movlw	(01h)
  7432  1448  2C4D               	goto	l3111
  7433                           	
  7434  1449                     l14110:	
  7435  1449  2C4D               	goto	l3111
  7436                           	
  7437  144A                     l3110:	
  7438  144A  2C4B               	goto	l14112
  7439                           	line	265
  7440                           	
  7441  144B                     l3109:	
  7442                           	line	266
  7443                           	
  7444  144B                     l14112:	
  7445                           ;FingerPrintSensor_R307.c: 265: }
  7446                           ;FingerPrintSensor_R307.c: 266: return 0;
  7447  144B  3000               	movlw	(0)
  7448  144C  2C4D               	goto	l3111
  7449                           	
  7450  144D                     l14114:	
  7451                           	line	267
  7452                           	
  7453  144D                     l3111:	
  7454  144D  0008               	return
  7455                           	opt stack 0
  7456                           GLOBAL	__end_of_GenCharacterFileFromImage
  7457  144E                     	__end_of_GenCharacterFileFromImage:
  7458 ;; =============== function _GenCharacterFileFromImage ends ============
  7459                           
  7460                           	signat	_GenCharacterFileFromImage,89
  7461                           	global	_ScanForImage
  7462                           psect	text4249,local,class=CODE,delta=2
  7463                           global __ptext4249
  7464  136B                     __ptext4249:
  7465                           
  7466 ;; *************** function _ScanForImage *****************
  7467 ;; Defined at:
  7468 ;;		line 241 in file "C:\Users\GauravLT\Desktop\Finger Print Sensor\R307\PIC16F877A_R307\FingerPrintSensor_R307.c"
  7469 ;; Parameters:    Size  Location     Type
  7470 ;;		None
  7471 ;; Auto vars:     Size  Location     Type
  7472 ;;  confirmation    1   61[BANK0 ] unsigned char 
  7473 ;;  dataOut         1   60[BANK0 ] unsigned char 
  7474 ;;  contentData     1   59[BANK0 ] unsigned char 
  7475 ;; Return value:  Size  Location     Type
  7476 ;;                  1    wreg      unsigned char 
  7477 ;; Registers used:
  7478 ;;		wreg, fsr0l, fsr0h, status,2, status,0, pclath, cstack
  7479 ;; Tracked objects:
  7480 ;;		On entry : 0/0
  7481 ;;		On exit  : 0/0
  7482 ;;		Unchanged: 0/0
  7483 ;; Data sizes:     COMMON   BANK0   BANK1   BANK3   BANK2
  7484 ;;      Params:         0       0       0       0       0
  7485 ;;      Locals:         0       3       0       0       0
  7486 ;;      Temps:          0       2       0       0       0
  7487 ;;      Totals:         0       5       0       0       0
  7488 ;;Total ram usage:        5 bytes
  7489 ;; Hardware stack levels used:    1
  7490 ;; Hardware stack levels required when called:    5
  7491 ;; This function calls:
  7492 ;;		_ClearUartBuffer
  7493 ;;		_sendPackage
  7494 ;;		_FillUpResponse
  7495 ;; This function is called by:
  7496 ;;		_HiSpeedScan0
  7497 ;;		_AddNewUser
  7498 ;;		_CheckUser
  7499 ;; This function uses a non-reentrant model
  7500 ;;
  7501                           psect	text4249
  7502                           	file	"C:\Users\GauravLT\Desktop\Finger Print Sensor\R307\PIC16F877A_R307\FingerPrintSen
                                 sor_R307.c"
  7503                           	line	241
  7504                           	global	__size_of_ScanForImage
  7505  004B                     	__size_of_ScanForImage	equ	__end_of_ScanForImage-_ScanForImage
  7506                           	
  7507  136B                     _ScanForImage:	
  7508                           	opt	stack 0
  7509                           ; Regs used in _ScanForImage: [wreg-fsr0h+status,2+status,0+pclath+cstack]
  7510                           	line	242
  7511                           	
  7512  136B                     l14080:	
  7513                           ;FingerPrintSensor_R307.c: 242: unsigned char contentData[]={0};
  7514  136B  1683               	bsf	status, 5	;RP0=1, select bank1
  7515  136C  1303               	bcf	status, 6	;RP1=0, select bank1
  7516  136D  0852               	movf	(ScanForImage@F1298)^080h,w
  7517  136E  1283               	bcf	status, 5	;RP0=0, select bank0
  7518  136F  1303               	bcf	status, 6	;RP1=0, select bank0
  7519  1370  00D9               	movwf	(??_ScanForImage+0)+0
  7520  1371  0859               	movf	(??_ScanForImage+0)+0,w
  7521  1372  00DB               	movwf	(ScanForImage@contentData)
  7522                           	line	243
  7523                           ;FingerPrintSensor_R307.c: 243: unsigned char dataOut[]={0xFF};
  7524  1373  1683               	bsf	status, 5	;RP0=1, select bank1
  7525  1374  1303               	bcf	status, 6	;RP1=0, select bank1
  7526  1375  0840               	movf	(ScanForImage@F1300)^080h,w
  7527  1376  1283               	bcf	status, 5	;RP0=0, select bank0
  7528  1377  1303               	bcf	status, 6	;RP1=0, select bank0
  7529  1378  00D9               	movwf	(??_ScanForImage+0)+0
  7530  1379  0859               	movf	(??_ScanForImage+0)+0,w
  7531  137A  00DC               	movwf	(ScanForImage@dataOut)
  7532                           	line	244
  7533                           ;FingerPrintSensor_R307.c: 244: unsigned char confirmationCode=0xFF;
  7534  137B  30FF               	movlw	(0FFh)
  7535  137C  00D9               	movwf	(??_ScanForImage+0)+0
  7536  137D  0859               	movf	(??_ScanForImage+0)+0,w
  7537  137E  00DD               	movwf	(ScanForImage@confirmationCode)
  7538                           	line	246
  7539                           	
  7540  137F                     l14082:	
  7541                           ;FingerPrintSensor_R307.c: 246: ClearUartBuffer();
  7542  137F  160A  118A  208E   	fcall	_ClearUartBuffer
              160A  118A         
  7543                           	line	247
  7544                           	
  7545  1384                     l14084:	
  7546                           ;FingerPrintSensor_R307.c: 247: sendPackage(pCmd, 0x03, 0x01, contentData);
  7547  1384  3003               	movlw	(03h)
  7548  1385  1283               	bcf	status, 5	;RP0=0, select bank0
  7549  1386  1303               	bcf	status, 6	;RP1=0, select bank0
  7550  1387  00D9               	movwf	(??_ScanForImage+0)+0
  7551  1388  0859               	movf	(??_ScanForImage+0)+0,w
  7552  1389  00AB               	movwf	(?_sendPackage)
  7553  138A  01AC               	clrf	0+(?_sendPackage)+01h
  7554  138B  1403               	bsf	status,0
  7555  138C  0DAC               	rlf	0+(?_sendPackage)+01h,f
  7556  138D  305B               	movlw	(ScanForImage@contentData)&0ffh
  7557  138E  00DA               	movwf	(??_ScanForImage+1)+0
  7558  138F  085A               	movf	(??_ScanForImage+1)+0,w
  7559  1390  00AD               	movwf	(0+?_sendPackage+02h)
  7560  1391  3001               	movlw	(01h)
  7561  1392  120A  158A  23B4   	fcall	_sendPackage
              160A  118A         
  7562                           	line	248
  7563                           	
  7564  1397                     l14086:	
  7565                           ;FingerPrintSensor_R307.c: 248: if(FillUpResponse(dataOut, &confirmationCode) )
  7566  1397  305D               	movlw	(ScanForImage@confirmationCode)&0ffh
  7567  1398  1283               	bcf	status, 5	;RP0=0, select bank0
  7568  1399  1303               	bcf	status, 6	;RP1=0, select bank0
  7569  139A  00D9               	movwf	(??_ScanForImage+0)+0
  7570  139B  0859               	movf	(??_ScanForImage+0)+0,w
  7571  139C  00B7               	movwf	(?_FillUpResponse)
  7572  139D  305C               	movlw	(ScanForImage@dataOut)&0ffh
  7573  139E  120A  118A  222F   	fcall	_FillUpResponse
              160A  118A         
  7574  13A3  3A00               	xorlw	0
  7575  13A4  1903               	skipnz
  7576  13A5  2BA7               	goto	u14551
  7577  13A6  2BA8               	goto	u14550
  7578  13A7                     u14551:
  7579  13A7  2BB3               	goto	l14094
  7580  13A8                     u14550:
  7581                           	line	250
  7582                           	
  7583  13A8                     l14088:	
  7584                           ;FingerPrintSensor_R307.c: 249: {
  7585                           ;FingerPrintSensor_R307.c: 250: if(confirmationCode == 0x00) return 1;
  7586  13A8  1283               	bcf	status, 5	;RP0=0, select bank0
  7587  13A9  1303               	bcf	status, 6	;RP1=0, select bank0
  7588  13AA  08DD               	movf	(ScanForImage@confirmationCode),f
  7589  13AB  1D03               	skipz
  7590  13AC  2BAE               	goto	u14561
  7591  13AD  2BAF               	goto	u14560
  7592  13AE                     u14561:
  7593  13AE  2BB3               	goto	l14094
  7594  13AF                     u14560:
  7595                           	
  7596  13AF                     l14090:	
  7597  13AF  3001               	movlw	(01h)
  7598  13B0  2BB5               	goto	l3102
  7599                           	
  7600  13B1                     l14092:	
  7601  13B1  2BB5               	goto	l3102
  7602                           	
  7603  13B2                     l3101:	
  7604  13B2  2BB3               	goto	l14094
  7605                           	line	251
  7606                           	
  7607  13B3                     l3100:	
  7608                           	line	252
  7609                           	
  7610  13B3                     l14094:	
  7611                           ;FingerPrintSensor_R307.c: 251: }
  7612                           ;FingerPrintSensor_R307.c: 252: return 0;
  7613  13B3  3000               	movlw	(0)
  7614  13B4  2BB5               	goto	l3102
  7615                           	
  7616  13B5                     l14096:	
  7617                           	line	253
  7618                           	
  7619  13B5                     l3102:	
  7620  13B5  0008               	return
  7621                           	opt stack 0
  7622                           GLOBAL	__end_of_ScanForImage
  7623  13B6                     	__end_of_ScanForImage:
  7624 ;; =============== function _ScanForImage ends ============
  7625                           
  7626                           	signat	_ScanForImage,89
  7627                           	global	_VerifyPswd
  7628                           psect	text4250,local,class=CODE,delta=2
  7629                           global __ptext4250
  7630  11C8                     __ptext4250:
  7631                           
  7632 ;; *************** function _VerifyPswd *****************
  7633 ;; Defined at:
  7634 ;;		line 228 in file "C:\Users\GauravLT\Desktop\Finger Print Sensor\R307\PIC16F877A_R307\FingerPrintSensor_R307.c"
  7635 ;; Parameters:    Size  Location     Type
  7636 ;;		None
  7637 ;; Auto vars:     Size  Location     Type
  7638 ;;  confirmation    1   61[BANK0 ] unsigned char 
  7639 ;;  dataOut         1   60[BANK0 ] unsigned char 
  7640 ;; Return value:  Size  Location     Type
  7641 ;;                  1    wreg      unsigned char 
  7642 ;; Registers used:
  7643 ;;		wreg, fsr0l, fsr0h, status,2, status,0, pclath, cstack
  7644 ;; Tracked objects:
  7645 ;;		On entry : 0/0
  7646 ;;		On exit  : 0/0
  7647 ;;		Unchanged: 0/0
  7648 ;; Data sizes:     COMMON   BANK0   BANK1   BANK3   BANK2
  7649 ;;      Params:         0       0       0       0       0
  7650 ;;      Locals:         0       2       0       0       0
  7651 ;;      Temps:          0       3       0       0       0
  7652 ;;      Totals:         0       5       0       0       0
  7653 ;;Total ram usage:        5 bytes
  7654 ;; Hardware stack levels used:    1
  7655 ;; Hardware stack levels required when called:    5
  7656 ;; This function calls:
  7657 ;;		_ClearUartBuffer
  7658 ;;		_sendPackage
  7659 ;;		_FillUpResponse
  7660 ;; This function is called by:
  7661 ;;		_main
  7662 ;; This function uses a non-reentrant model
  7663 ;;
  7664                           psect	text4250
  7665                           	file	"C:\Users\GauravLT\Desktop\Finger Print Sensor\R307\PIC16F877A_R307\FingerPrintSen
                                 sor_R307.c"
  7666                           	line	228
  7667                           	global	__size_of_VerifyPswd
  7668  0034                     	__size_of_VerifyPswd	equ	__end_of_VerifyPswd-_VerifyPswd
  7669                           	
  7670  11C8                     _VerifyPswd:	
  7671                           	opt	stack 2
  7672                           ; Regs used in _VerifyPswd: [wreg-fsr0h+status,2+status,0+pclath+cstack]
  7673                           	line	229
  7674                           	
  7675  11C8                     l14068:	
  7676                           ;FingerPrintSensor_R307.c: 229: unsigned char dataOut[]={0xFF};
  7677  11C8  087B               	movf	(VerifyPswd@F1294),w
  7678  11C9  1283               	bcf	status, 5	;RP0=0, select bank0
  7679  11CA  1303               	bcf	status, 6	;RP1=0, select bank0
  7680  11CB  00D9               	movwf	(??_VerifyPswd+0)+0
  7681  11CC  0859               	movf	(??_VerifyPswd+0)+0,w
  7682  11CD  00DC               	movwf	(VerifyPswd@dataOut)
  7683                           	line	230
  7684                           ;FingerPrintSensor_R307.c: 230: unsigned char confirmationCode=0xFF;
  7685  11CE  30FF               	movlw	(0FFh)
  7686  11CF  00D9               	movwf	(??_VerifyPswd+0)+0
  7687  11D0  0859               	movf	(??_VerifyPswd+0)+0,w
  7688  11D1  00DD               	movwf	(VerifyPswd@confirmationCode)
  7689                           	line	232
  7690                           	
  7691  11D2                     l14070:	
  7692                           ;FingerPrintSensor_R307.c: 232: ClearUartBuffer();
  7693  11D2  160A  118A  208E   	fcall	_ClearUartBuffer
              160A  118A         
  7694                           	line	233
  7695                           	
  7696  11D7                     l14072:	
  7697                           ;FingerPrintSensor_R307.c: 233: sendPackage(pCmd, 0x07, 0x13, (unsigned char *)&DefModul
                                 ePassword);
  7698  11D7  3007               	movlw	(07h)
  7699  11D8  1283               	bcf	status, 5	;RP0=0, select bank0
  7700  11D9  1303               	bcf	status, 6	;RP1=0, select bank0
  7701  11DA  00D9               	movwf	(??_VerifyPswd+0)+0
  7702  11DB  0859               	movf	(??_VerifyPswd+0)+0,w
  7703  11DC  00AB               	movwf	(?_sendPackage)
  7704  11DD  3013               	movlw	(013h)
  7705  11DE  00DA               	movwf	(??_VerifyPswd+1)+0
  7706  11DF  085A               	movf	(??_VerifyPswd+1)+0,w
  7707  11E0  00AC               	movwf	0+(?_sendPackage)+01h
  7708  11E1  30D3               	movlw	(_DefModulePassword)&0ffh
  7709  11E2  00DB               	movwf	(??_VerifyPswd+2)+0
  7710  11E3  085B               	movf	(??_VerifyPswd+2)+0,w
  7711  11E4  00AD               	movwf	(0+?_sendPackage+02h)
  7712  11E5  3001               	movlw	(01h)
  7713  11E6  120A  158A  23B4   	fcall	_sendPackage
              160A  118A         
  7714                           	line	234
  7715                           	
  7716  11EB                     l14074:	
  7717                           ;FingerPrintSensor_R307.c: 234: if(FillUpResponse(dataOut, &confirmationCode) )
  7718  11EB  305D               	movlw	(VerifyPswd@confirmationCode)&0ffh
  7719  11EC  1283               	bcf	status, 5	;RP0=0, select bank0
  7720  11ED  1303               	bcf	status, 6	;RP1=0, select bank0
  7721  11EE  00D9               	movwf	(??_VerifyPswd+0)+0
  7722  11EF  0859               	movf	(??_VerifyPswd+0)+0,w
  7723  11F0  00B7               	movwf	(?_FillUpResponse)
  7724  11F1  305C               	movlw	(VerifyPswd@dataOut)&0ffh
  7725  11F2  120A  118A  222F   	fcall	_FillUpResponse
              160A  118A         
  7726  11F7  29FB               	goto	l3093
  7727                           	line	236
  7728                           	
  7729  11F8                     l14076:	
  7730  11F8  29FB               	goto	l3093
  7731                           	
  7732  11F9                     l14078:	
  7733                           ;	Return value of _VerifyPswd is never used
  7734  11F9  29FB               	goto	l3093
  7735                           	
  7736  11FA                     l3092:	
  7737  11FA  29FB               	goto	l3093
  7738                           	line	237
  7739                           	
  7740  11FB                     l3091:	
  7741                           	line	239
  7742                           ;FingerPrintSensor_R307.c: 237: }
  7743                           ;FingerPrintSensor_R307.c: 238: return 0;
  7744                           ;	Return value of _VerifyPswd is never used
  7745                           	
  7746  11FB                     l3093:	
  7747  11FB  0008               	return
  7748                           	opt stack 0
  7749                           GLOBAL	__end_of_VerifyPswd
  7750  11FC                     	__end_of_VerifyPswd:
  7751 ;; =============== function _VerifyPswd ends ============
  7752                           
  7753                           	signat	_VerifyPswd,89
  7754                           	global	_DeleteUser
  7755                           psect	text4251,local,class=CODE,delta=2
  7756                           global __ptext4251
  7757  15F6                     __ptext4251:
  7758                           
  7759 ;; *************** function _DeleteUser *****************
  7760 ;; Defined at:
  7761 ;;		line 207 in file "C:\Users\GauravLT\Desktop\Finger Print Sensor\R307\PIC16F877A_R307\FingerPrintSensor_R307.c"
  7762 ;; Parameters:    Size  Location     Type
  7763 ;;  UserNo          1    wreg     unsigned char 
  7764 ;; Auto vars:     Size  Location     Type
  7765 ;;  UserNo          1   64[BANK0 ] unsigned char 
  7766 ;;  contentData     4   60[BANK0 ] unsigned char [4]
  7767 ;;  confirmation    1   66[BANK0 ] unsigned char 
  7768 ;;  dataOut         1   65[BANK0 ] unsigned char [1]
  7769 ;; Return value:  Size  Location     Type
  7770 ;;                  1    wreg      unsigned char 
  7771 ;; Registers used:
  7772 ;;		wreg, fsr0l, fsr0h, status,2, status,0, pclath, cstack
  7773 ;; Tracked objects:
  7774 ;;		On entry : 0/0
  7775 ;;		On exit  : 0/0
  7776 ;;		Unchanged: 0/0
  7777 ;; Data sizes:     COMMON   BANK0   BANK1   BANK3   BANK2
  7778 ;;      Params:         0       0       0       0       0
  7779 ;;      Locals:         0       7       0       0       0
  7780 ;;      Temps:          0       3       0       0       0
  7781 ;;      Totals:         0      10       0       0       0
  7782 ;;Total ram usage:       10 bytes
  7783 ;; Hardware stack levels used:    1
  7784 ;; Hardware stack levels required when called:    5
  7785 ;; This function calls:
  7786 ;;		_ClearUartBuffer
  7787 ;;		_sendPackage
  7788 ;;		_FillUpResponse
  7789 ;; This function is called by:
  7790 ;;		_AlterAdminUser
  7791 ;;		_DeleteUserAfterAdminConfirm
  7792 ;; This function uses a non-reentrant model
  7793 ;;
  7794                           psect	text4251
  7795                           	file	"C:\Users\GauravLT\Desktop\Finger Print Sensor\R307\PIC16F877A_R307\FingerPrintSen
                                 sor_R307.c"
  7796                           	line	207
  7797                           	global	__size_of_DeleteUser
  7798  005F                     	__size_of_DeleteUser	equ	__end_of_DeleteUser-_DeleteUser
  7799                           	
  7800  15F6                     _DeleteUser:	
  7801                           	opt	stack 1
  7802                           ; Regs used in _DeleteUser: [wreg-fsr0h+status,2+status,0+pclath+cstack]
  7803                           ;DeleteUser@UserNo stored from wreg
  7804                           	line	213
  7805  15F6  1283               	bcf	status, 5	;RP0=0, select bank0
  7806  15F7  1303               	bcf	status, 6	;RP1=0, select bank0
  7807  15F8  00E0               	movwf	(DeleteUser@UserNo)
  7808                           	
  7809  15F9                     l14050:	
  7810                           ;FingerPrintSensor_R307.c: 213: unsigned char contentData[]={0x00, 0x00, 0x00, 0x01};
  7811  15F9  1683               	bsf	status, 5	;RP0=1, select bank1
  7812  15FA  1303               	bcf	status, 6	;RP1=0, select bank1
  7813  15FB  082C               	movf	(DeleteUser@F1289+3)^080h,w
  7814  15FC  1283               	bcf	status, 5	;RP0=0, select bank0
  7815  15FD  1303               	bcf	status, 6	;RP1=0, select bank0
  7816  15FE  00DF               	movwf	(DeleteUser@contentData+3)
  7817  15FF  1683               	bsf	status, 5	;RP0=1, select bank1
  7818  1600  1303               	bcf	status, 6	;RP1=0, select bank1
  7819  1601  082B               	movf	(DeleteUser@F1289+2)^080h,w
  7820  1602  1283               	bcf	status, 5	;RP0=0, select bank0
  7821  1603  1303               	bcf	status, 6	;RP1=0, select bank0
  7822  1604  00DE               	movwf	(DeleteUser@contentData+2)
  7823  1605  1683               	bsf	status, 5	;RP0=1, select bank1
  7824  1606  1303               	bcf	status, 6	;RP1=0, select bank1
  7825  1607  082A               	movf	(DeleteUser@F1289+1)^080h,w
  7826  1608  1283               	bcf	status, 5	;RP0=0, select bank0
  7827  1609  1303               	bcf	status, 6	;RP1=0, select bank0
  7828  160A  00DD               	movwf	(DeleteUser@contentData+1)
  7829  160B  1683               	bsf	status, 5	;RP0=1, select bank1
  7830  160C  1303               	bcf	status, 6	;RP1=0, select bank1
  7831  160D  0829               	movf	(DeleteUser@F1289)^080h,w
  7832  160E  1283               	bcf	status, 5	;RP0=0, select bank0
  7833  160F  1303               	bcf	status, 6	;RP1=0, select bank0
  7834  1610  00DC               	movwf	(DeleteUser@contentData)
  7835                           
  7836                           	line	214
  7837                           ;FingerPrintSensor_R307.c: 214: unsigned char confirmationCode=0xFF;
  7838  1611  30FF               	movlw	(0FFh)
  7839  1612  00D9               	movwf	(??_DeleteUser+0)+0
  7840  1613  0859               	movf	(??_DeleteUser+0)+0,w
  7841  1614  00E2               	movwf	(DeleteUser@confirmationCode)
  7842                           	line	215
  7843                           ;FingerPrintSensor_R307.c: 215: unsigned char dataOut[1]={0xFF};
  7844  1615  087A               	movf	(DeleteUser@F1292),w
  7845  1616  00D9               	movwf	(??_DeleteUser+0)+0
  7846  1617  0859               	movf	(??_DeleteUser+0)+0,w
  7847  1618  00E1               	movwf	(DeleteUser@dataOut)
  7848                           	line	217
  7849                           ;FingerPrintSensor_R307.c: 217: contentData[1]=UserNo;
  7850  1619  0860               	movf	(DeleteUser@UserNo),w
  7851  161A  00D9               	movwf	(??_DeleteUser+0)+0
  7852  161B  0859               	movf	(??_DeleteUser+0)+0,w
  7853  161C  00DD               	movwf	0+(DeleteUser@contentData)+01h
  7854                           	line	218
  7855                           	
  7856  161D                     l14052:	
  7857                           ;FingerPrintSensor_R307.c: 218: ClearUartBuffer();
  7858  161D  160A  118A  208E   	fcall	_ClearUartBuffer
              160A  118A         
  7859                           	line	219
  7860                           	
  7861  1622                     l14054:	
  7862                           ;FingerPrintSensor_R307.c: 219: sendPackage(pCmd, 0x07, 0x0C, contentData);
  7863  1622  3007               	movlw	(07h)
  7864  1623  1283               	bcf	status, 5	;RP0=0, select bank0
  7865  1624  1303               	bcf	status, 6	;RP1=0, select bank0
  7866  1625  00D9               	movwf	(??_DeleteUser+0)+0
  7867  1626  0859               	movf	(??_DeleteUser+0)+0,w
  7868  1627  00AB               	movwf	(?_sendPackage)
  7869  1628  300C               	movlw	(0Ch)
  7870  1629  00DA               	movwf	(??_DeleteUser+1)+0
  7871  162A  085A               	movf	(??_DeleteUser+1)+0,w
  7872  162B  00AC               	movwf	0+(?_sendPackage)+01h
  7873  162C  305C               	movlw	(DeleteUser@contentData)&0ffh
  7874  162D  00DB               	movwf	(??_DeleteUser+2)+0
  7875  162E  085B               	movf	(??_DeleteUser+2)+0,w
  7876  162F  00AD               	movwf	(0+?_sendPackage+02h)
  7877  1630  3001               	movlw	(01h)
  7878  1631  120A  158A  23B4   	fcall	_sendPackage
              160A  118A         
  7879                           	line	220
  7880                           	
  7881  1636                     l14056:	
  7882                           ;FingerPrintSensor_R307.c: 220: if(FillUpResponse(dataOut, &confirmationCode) )
  7883  1636  3062               	movlw	(DeleteUser@confirmationCode)&0ffh
  7884  1637  1283               	bcf	status, 5	;RP0=0, select bank0
  7885  1638  1303               	bcf	status, 6	;RP1=0, select bank0
  7886  1639  00D9               	movwf	(??_DeleteUser+0)+0
  7887  163A  0859               	movf	(??_DeleteUser+0)+0,w
  7888  163B  00B7               	movwf	(?_FillUpResponse)
  7889  163C  3061               	movlw	(DeleteUser@dataOut)&0ffh
  7890  163D  120A  118A  222F   	fcall	_FillUpResponse
              160A  118A         
  7891  1642  3A00               	xorlw	0
  7892  1643  1903               	skipnz
  7893  1644  2E46               	goto	u14531
  7894  1645  2E47               	goto	u14530
  7895  1646                     u14531:
  7896  1646  2E52               	goto	l14064
  7897  1647                     u14530:
  7898                           	line	222
  7899                           	
  7900  1647                     l14058:	
  7901                           ;FingerPrintSensor_R307.c: 221: {
  7902                           ;FingerPrintSensor_R307.c: 222: if(confirmationCode == 0x00) return 1;
  7903  1647  1283               	bcf	status, 5	;RP0=0, select bank0
  7904  1648  1303               	bcf	status, 6	;RP1=0, select bank0
  7905  1649  08E2               	movf	(DeleteUser@confirmationCode),f
  7906  164A  1D03               	skipz
  7907  164B  2E4D               	goto	u14541
  7908  164C  2E4E               	goto	u14540
  7909  164D                     u14541:
  7910  164D  2E52               	goto	l14064
  7911  164E                     u14540:
  7912                           	
  7913  164E                     l14060:	
  7914  164E  3001               	movlw	(01h)
  7915  164F  2E54               	goto	l3086
  7916                           	
  7917  1650                     l14062:	
  7918  1650  2E54               	goto	l3086
  7919                           	
  7920  1651                     l3085:	
  7921  1651  2E52               	goto	l14064
  7922                           	line	223
  7923                           	
  7924  1652                     l3084:	
  7925                           	line	224
  7926                           	
  7927  1652                     l14064:	
  7928                           ;FingerPrintSensor_R307.c: 223: }
  7929                           ;FingerPrintSensor_R307.c: 224: return 0;
  7930  1652  3000               	movlw	(0)
  7931  1653  2E54               	goto	l3086
  7932                           	
  7933  1654                     l14066:	
  7934                           	line	225
  7935                           	
  7936  1654                     l3086:	
  7937  1654  0008               	return
  7938                           	opt stack 0
  7939                           GLOBAL	__end_of_DeleteUser
  7940  1655                     	__end_of_DeleteUser:
  7941 ;; =============== function _DeleteUser ends ============
  7942                           
  7943                           	signat	_DeleteUser,4217
  7944                           	global	_EraseAllUsers
  7945                           psect	text4252,local,class=CODE,delta=2
  7946                           global __ptext4252
  7947  1268                     __ptext4252:
  7948                           
  7949 ;; *************** function _EraseAllUsers *****************
  7950 ;; Defined at:
  7951 ;;		line 356 in file "C:\Users\GauravLT\Desktop\Finger Print Sensor\R307\PIC16F877A_R307\FingerPrintSensor_R307.c"
  7952 ;; Parameters:    Size  Location     Type
  7953 ;;		None
  7954 ;; Auto vars:     Size  Location     Type
  7955 ;;  confirmation    1   62[BANK0 ] unsigned char 
  7956 ;;  dataOut         1   61[BANK0 ] unsigned char 
  7957 ;;  contentData     1   60[BANK0 ] unsigned char 
  7958 ;; Return value:  Size  Location     Type
  7959 ;;                  1    wreg      unsigned char 
  7960 ;; Registers used:
  7961 ;;		wreg, fsr0l, fsr0h, status,2, status,0, pclath, cstack
  7962 ;; Tracked objects:
  7963 ;;		On entry : 0/0
  7964 ;;		On exit  : 0/0
  7965 ;;		Unchanged: 0/0
  7966 ;; Data sizes:     COMMON   BANK0   BANK1   BANK3   BANK2
  7967 ;;      Params:         0       0       0       0       0
  7968 ;;      Locals:         0       3       0       0       0
  7969 ;;      Temps:          0       3       0       0       0
  7970 ;;      Totals:         0       6       0       0       0
  7971 ;;Total ram usage:        6 bytes
  7972 ;; Hardware stack levels used:    1
  7973 ;; Hardware stack levels required when called:    5
  7974 ;; This function calls:
  7975 ;;		_ClearUartBuffer
  7976 ;;		_sendPackage
  7977 ;;		_FillUpResponse
  7978 ;; This function is called by:
  7979 ;;		_EraseAllUsersAfterAdminConfirm
  7980 ;; This function uses a non-reentrant model
  7981 ;;
  7982                           psect	text4252
  7983                           	file	"C:\Users\GauravLT\Desktop\Finger Print Sensor\R307\PIC16F877A_R307\FingerPrintSen
                                 sor_R307.c"
  7984                           	line	356
  7985                           	global	__size_of_EraseAllUsers
  7986  003E                     	__size_of_EraseAllUsers	equ	__end_of_EraseAllUsers-_EraseAllUsers
  7987                           	
  7988  1268                     _EraseAllUsers:	
  7989                           	opt	stack 1
  7990                           ; Regs used in _EraseAllUsers: [wreg-fsr0h+status,2+status,0+pclath+cstack]
  7991                           	line	363
  7992                           	
  7993  1268                     l14038:	
  7994                           ;FingerPrintSensor_R307.c: 363: unsigned char contentData[]={0x00};
  7995  1268  1683               	bsf	status, 5	;RP0=1, select bank1
  7996  1269  1303               	bcf	status, 6	;RP1=0, select bank1
  7997  126A  0850               	movf	(EraseAllUsers@F1327)^080h,w
  7998  126B  1283               	bcf	status, 5	;RP0=0, select bank0
  7999  126C  1303               	bcf	status, 6	;RP1=0, select bank0
  8000  126D  00D9               	movwf	(??_EraseAllUsers+0)+0
  8001  126E  0859               	movf	(??_EraseAllUsers+0)+0,w
  8002  126F  00DC               	movwf	(EraseAllUsers@contentData)
  8003                           	line	364
  8004                           ;FingerPrintSensor_R307.c: 364: unsigned char confirmationCode=0xFF;
  8005  1270  30FF               	movlw	(0FFh)
  8006  1271  00D9               	movwf	(??_EraseAllUsers+0)+0
  8007  1272  0859               	movf	(??_EraseAllUsers+0)+0,w
  8008  1273  00DE               	movwf	(EraseAllUsers@confirmationCode)
  8009                           	line	365
  8010                           ;FingerPrintSensor_R307.c: 365: unsigned char dataOut[]={0xFF};
  8011  1274  1683               	bsf	status, 5	;RP0=1, select bank1
  8012  1275  1303               	bcf	status, 6	;RP1=0, select bank1
  8013  1276  083B               	movf	(EraseAllUsers@F1330)^080h,w
  8014  1277  1283               	bcf	status, 5	;RP0=0, select bank0
  8015  1278  1303               	bcf	status, 6	;RP1=0, select bank0
  8016  1279  00D9               	movwf	(??_EraseAllUsers+0)+0
  8017  127A  0859               	movf	(??_EraseAllUsers+0)+0,w
  8018  127B  00DD               	movwf	(EraseAllUsers@dataOut)
  8019                           	line	367
  8020                           	
  8021  127C                     l14040:	
  8022                           ;FingerPrintSensor_R307.c: 367: ClearUartBuffer();
  8023  127C  160A  118A  208E   	fcall	_ClearUartBuffer
              160A  118A         
  8024                           	line	368
  8025                           	
  8026  1281                     l14042:	
  8027                           ;FingerPrintSensor_R307.c: 368: sendPackage(pCmd, 0x03, 0x0D, contentData);
  8028  1281  3003               	movlw	(03h)
  8029  1282  1283               	bcf	status, 5	;RP0=0, select bank0
  8030  1283  1303               	bcf	status, 6	;RP1=0, select bank0
  8031  1284  00D9               	movwf	(??_EraseAllUsers+0)+0
  8032  1285  0859               	movf	(??_EraseAllUsers+0)+0,w
  8033  1286  00AB               	movwf	(?_sendPackage)
  8034  1287  300D               	movlw	(0Dh)
  8035  1288  00DA               	movwf	(??_EraseAllUsers+1)+0
  8036  1289  085A               	movf	(??_EraseAllUsers+1)+0,w
  8037  128A  00AC               	movwf	0+(?_sendPackage)+01h
  8038  128B  305C               	movlw	(EraseAllUsers@contentData)&0ffh
  8039  128C  00DB               	movwf	(??_EraseAllUsers+2)+0
  8040  128D  085B               	movf	(??_EraseAllUsers+2)+0,w
  8041  128E  00AD               	movwf	(0+?_sendPackage+02h)
  8042  128F  3001               	movlw	(01h)
  8043  1290  120A  158A  23B4   	fcall	_sendPackage
              160A  118A         
  8044                           	line	369
  8045                           	
  8046  1295                     l14044:	
  8047                           ;FingerPrintSensor_R307.c: 369: if(FillUpResponse(dataOut, &confirmationCode) )
  8048  1295  305E               	movlw	(EraseAllUsers@confirmationCode)&0ffh
  8049  1296  1283               	bcf	status, 5	;RP0=0, select bank0
  8050  1297  1303               	bcf	status, 6	;RP1=0, select bank0
  8051  1298  00D9               	movwf	(??_EraseAllUsers+0)+0
  8052  1299  0859               	movf	(??_EraseAllUsers+0)+0,w
  8053  129A  00B7               	movwf	(?_FillUpResponse)
  8054  129B  305D               	movlw	(EraseAllUsers@dataOut)&0ffh
  8055  129C  120A  118A  222F   	fcall	_FillUpResponse
              160A  118A         
  8056  12A1  2AA5               	goto	l3157
  8057                           	line	371
  8058                           	
  8059  12A2                     l14046:	
  8060  12A2  2AA5               	goto	l3157
  8061                           	
  8062  12A3                     l14048:	
  8063                           ;	Return value of _EraseAllUsers is never used
  8064  12A3  2AA5               	goto	l3157
  8065                           	
  8066  12A4                     l3156:	
  8067  12A4  2AA5               	goto	l3157
  8068                           	line	372
  8069                           	
  8070  12A5                     l3155:	
  8071                           	line	374
  8072                           ;FingerPrintSensor_R307.c: 372: }
  8073                           ;FingerPrintSensor_R307.c: 373: return 0;
  8074                           ;	Return value of _EraseAllUsers is never used
  8075                           	
  8076  12A5                     l3157:	
  8077  12A5  0008               	return
  8078                           	opt stack 0
  8079                           GLOBAL	__end_of_EraseAllUsers
  8080  12A6                     	__end_of_EraseAllUsers:
  8081 ;; =============== function _EraseAllUsers ends ============
  8082                           
  8083                           	signat	_EraseAllUsers,89
  8084                           	global	_LcdPrint
  8085                           psect	text4253,local,class=CODE,delta=2
  8086                           global __ptext4253
  8087  1723                     __ptext4253:
  8088                           
  8089 ;; *************** function _LcdPrint *****************
  8090 ;; Defined at:
  8091 ;;		line 53 in file "C:\Users\GauravLT\Desktop\Finger Print Sensor\R307\PIC16F877A_R307\lcd.c"
  8092 ;; Parameters:    Size  Location     Type
  8093 ;;  s               2   11[BANK0 ] PTR const unsigned char 
  8094 ;;		 -> STR_34(29), STR_33(33), STR_32(30), STR_31(30), 
  8095 ;;		 -> STR_30(8), STR_29(18), STR_28(14), DeleteUserAfterAdminConfirm@buff_2234(10), 
  8096 ;;		 -> STR_27(22), DeleteUserAfterAdminConfirm@buff(5), STR_26(12), STR_25(12), 
  8097 ;;		 -> STR_24(28), STR_23(24), AddNewUserAfterAdminConfirm@buff(10), STR_22(21), 
  8098 ;;		 -> STR_21(22), STR_20(19), STR_19(18), STR_18(12), 
  8099 ;;		 -> STR_17(28), STR_16(25), STR_15(20), STR_14(13), 
  8100 ;;		 -> STR_13(24), STR_12(18), STR_11(20), STR_10(14), 
  8101 ;;		 -> STR_9(12), STR_8(28), STR_7(13), STR_6(20), 
  8102 ;;		 -> ControlAccess@buff(10), STR_5(13), STR_4(19), STR_3(18), 
  8103 ;;		 -> STR_2(12), STR_1(28), 
  8104 ;;  rowNo           1   13[BANK0 ] unsigned char 
  8105 ;;  colNo           1   14[BANK0 ] unsigned char 
  8106 ;; Auto vars:     Size  Location     Type
  8107 ;;		None
  8108 ;; Return value:  Size  Location     Type
  8109 ;;		None               void
  8110 ;; Registers used:
  8111 ;;		wreg, fsr0l, fsr0h, status,2, status,0, btemp+1, pclath, cstack
  8112 ;; Tracked objects:
  8113 ;;		On entry : 0/0
  8114 ;;		On exit  : 0/0
  8115 ;;		Unchanged: 0/0
  8116 ;; Data sizes:     COMMON   BANK0   BANK1   BANK3   BANK2
  8117 ;;      Params:         0       4       0       0       0
  8118 ;;      Locals:         0       0       0       0       0
  8119 ;;      Temps:          0       4       0       0       0
  8120 ;;      Totals:         0       8       0       0       0
  8121 ;;Total ram usage:        8 bytes
  8122 ;; Hardware stack levels used:    1
  8123 ;; Hardware stack levels required when called:    5
  8124 ;; This function calls:
  8125 ;;		_UploadLcdBuffer
  8126 ;; This function is called by:
  8127 ;;		_EraseAllUsersAfterAdminConfirm
  8128 ;;		_ControlAccess
  8129 ;;		_AlterAdminUser
  8130 ;;		_AddNewUserAfterAdminConfirm
  8131 ;;		_DeleteUserAfterAdminConfirm
  8132 ;;		_menu
  8133 ;;		_main
  8134 ;; This function uses a non-reentrant model
  8135 ;;
  8136                           psect	text4253
  8137                           	file	"C:\Users\GauravLT\Desktop\Finger Print Sensor\R307\PIC16F877A_R307\lcd.c"
  8138                           	line	53
  8139                           	global	__size_of_LcdPrint
  8140  006D                     	__size_of_LcdPrint	equ	__end_of_LcdPrint-_LcdPrint
  8141                           	
  8142  1723                     _LcdPrint:	
  8143                           	opt	stack 1
  8144                           ; Regs used in _LcdPrint: [wreg-fsr0h+status,2+status,0+btemp+1+pclath+cstack]
  8145                           	line	54
  8146                           	
  8147  1723                     l14016:	
  8148                           ;lcd.c: 54: while(*s!=0)
  8149  1723  2F79               	goto	l711
  8150                           	
  8151  1724                     l712:	
  8152                           	line	56
  8153                           	
  8154  1724                     l14018:	
  8155                           ;lcd.c: 55: {
  8156                           ;lcd.c: 56: if(*s == '\n')
  8157  1724  1283               	bcf	status, 5	;RP0=0, select bank0
  8158  1725  1303               	bcf	status, 6	;RP1=0, select bank0
  8159  1726  082C               	movf	(LcdPrint@s+1),w
  8160  1727  00FF               	movwf	btemp+1
  8161  1728  082B               	movf	(LcdPrint@s),w
  8162  1729  0084               	movwf	fsr0
  8163  172A  160A  158A  2000   	fcall	stringtab
              160A  118A         
  8164  172F  3A0A               	xorlw	0Ah
  8165  1730  1D03               	skipz
  8166  1731  2F33               	goto	u14471
  8167  1732  2F34               	goto	u14470
  8168  1733                     u14471:
  8169  1733  2F44               	goto	l14026
  8170  1734                     u14470:
  8171                           	line	58
  8172                           	
  8173  1734                     l14020:	
  8174                           ;lcd.c: 57: {
  8175                           ;lcd.c: 58: if(++rowNo > 16) break;
  8176  1734  3001               	movlw	(01h)
  8177  1735  00AF               	movwf	(??_LcdPrint+0)+0
  8178  1736  082F               	movf	(??_LcdPrint+0)+0,w
  8179  1737  07AD               	addwf	(LcdPrint@rowNo),f
  8180  1738  3011               	movlw	(011h)
  8181  1739  022D               	subwf	((LcdPrint@rowNo)),w
  8182  173A  1C03               	skipc
  8183  173B  2F3D               	goto	u14481
  8184  173C  2F3E               	goto	u14480
  8185  173D                     u14481:
  8186  173D  2F41               	goto	l714
  8187  173E                     u14480:
  8188  173E  2F8A               	goto	l14036
  8189                           	
  8190  173F                     l14022:	
  8191  173F  2F8A               	goto	l14036
  8192                           	
  8193  1740                     l14024:	
  8194  1740  2F73               	goto	l14034
  8195                           	line	59
  8196                           	
  8197  1741                     l714:	
  8198                           ;lcd.c: 59: else colNo=0;
  8199  1741  01AE               	clrf	(LcdPrint@colNo)
  8200  1742  2F73               	goto	l14034
  8201                           	
  8202  1743                     l716:	
  8203                           	line	60
  8204                           ;lcd.c: 60: }
  8205  1743  2F73               	goto	l14034
  8206                           	line	61
  8207                           	
  8208  1744                     l713:	
  8209                           	
  8210  1744                     l14026:	
  8211                           ;lcd.c: 61: else if(rowNo<16 && colNo<16)
  8212  1744  3010               	movlw	(010h)
  8213  1745  022D               	subwf	(LcdPrint@rowNo),w
  8214  1746  1803               	skipnc
  8215  1747  2F49               	goto	u14491
  8216  1748  2F4A               	goto	u14490
  8217  1749                     u14491:
  8218  1749  2F73               	goto	l14034
  8219  174A                     u14490:
  8220                           	
  8221  174A                     l14028:	
  8222  174A  3010               	movlw	(010h)
  8223  174B  022E               	subwf	(LcdPrint@colNo),w
  8224  174C  1803               	skipnc
  8225  174D  2F4F               	goto	u14501
  8226  174E  2F50               	goto	u14500
  8227  174F                     u14501:
  8228  174F  2F73               	goto	l14034
  8229  1750                     u14500:
  8230                           	line	63
  8231                           	
  8232  1750                     l14030:	
  8233                           ;lcd.c: 62: {
  8234                           ;lcd.c: 63: LcdBuffer[rowNo][colNo] = *s;
  8235  1750  082C               	movf	(LcdPrint@s+1),w
  8236  1751  00FF               	movwf	btemp+1
  8237  1752  082B               	movf	(LcdPrint@s),w
  8238  1753  0084               	movwf	fsr0
  8239  1754  160A  158A  2000   	fcall	stringtab
              160A  118A         
  8240  1759  00AF               	movwf	(??_LcdPrint+0)+0
  8241  175A  082D               	movf	(LcdPrint@rowNo),w
  8242  175B  00B0               	movwf	(??_LcdPrint+1)+0
  8243  175C  3004               	movlw	04h
  8244  175D                     u14515:
  8245  175D  1003               	clrc
  8246  175E  0DB0               	rlf	(??_LcdPrint+1)+0,f
  8247  175F  3EFF               	addlw	-1
  8248  1760  1D03               	skipz
  8249  1761  2F5D               	goto	u14515
  8250  1762  30A4               	movlw	(_LcdBuffer)&0ffh
  8251  1763  0730               	addwf	0+(??_LcdPrint+1)+0,w
  8252  1764  00B1               	movwf	(??_LcdPrint+2)+0
  8253  1765  082E               	movf	(LcdPrint@colNo),w
  8254  1766  0731               	addwf	0+(??_LcdPrint+2)+0,w
  8255  1767  00B2               	movwf	(??_LcdPrint+3)+0
  8256  1768  0832               	movf	0+(??_LcdPrint+3)+0,w
  8257  1769  0084               	movwf	fsr0
  8258  176A  082F               	movf	(??_LcdPrint+0)+0,w
  8259  176B  1783               	bsf	status, 7	;select IRP bank3
  8260  176C  0080               	movwf	indf
  8261                           	line	64
  8262                           	
  8263  176D                     l14032:	
  8264                           ;lcd.c: 64: colNo++;
  8265  176D  3001               	movlw	(01h)
  8266  176E  00AF               	movwf	(??_LcdPrint+0)+0
  8267  176F  082F               	movf	(??_LcdPrint+0)+0,w
  8268  1770  07AE               	addwf	(LcdPrint@colNo),f
  8269  1771  2F73               	goto	l14034
  8270                           	line	65
  8271                           	
  8272  1772                     l718:	
  8273  1772  2F73               	goto	l14034
  8274                           	line	66
  8275                           	
  8276  1773                     l717:	
  8277                           	
  8278  1773                     l14034:	
  8279                           ;lcd.c: 65: }
  8280                           ;lcd.c: 66: s++;
  8281  1773  3001               	movlw	low(01h)
  8282  1774  07AB               	addwf	(LcdPrint@s),f
  8283  1775  1803               	skipnc
  8284  1776  0AAC               	incf	(LcdPrint@s+1),f
  8285  1777  3000               	movlw	high(01h)
  8286  1778  07AC               	addwf	(LcdPrint@s+1),f
  8287                           	line	67
  8288                           	
  8289  1779                     l711:	
  8290                           	line	54
  8291  1779  1283               	bcf	status, 5	;RP0=0, select bank0
  8292  177A  1303               	bcf	status, 6	;RP1=0, select bank0
  8293  177B  082C               	movf	(LcdPrint@s+1),w
  8294  177C  00FF               	movwf	btemp+1
  8295  177D  082B               	movf	(LcdPrint@s),w
  8296  177E  0084               	movwf	fsr0
  8297  177F  160A  158A  2000   	fcall	stringtab
              160A  118A         
  8298  1784  3800               	iorlw	0
  8299  1785  1D03               	skipz
  8300  1786  2F88               	goto	u14521
  8301  1787  2F89               	goto	u14520
  8302  1788                     u14521:
  8303  1788  2F24               	goto	l14018
  8304  1789                     u14520:
  8305  1789  2F8A               	goto	l14036
  8306                           	
  8307  178A                     l715:	
  8308                           	line	68
  8309                           	
  8310  178A                     l14036:	
  8311                           ;lcd.c: 67: }
  8312                           ;lcd.c: 68: UploadLcdBuffer();
  8313  178A  160A  118A  26B8   	fcall	_UploadLcdBuffer
              160A  118A         
  8314                           	line	69
  8315                           	
  8316  178F                     l719:	
  8317  178F  0008               	return
  8318                           	opt stack 0
  8319                           GLOBAL	__end_of_LcdPrint
  8320  1790                     	__end_of_LcdPrint:
  8321 ;; =============== function _LcdPrint ends ============
  8322                           
  8323                           	signat	_LcdPrint,12408
  8324                           	global	_LcdInit
  8325                           psect	text4254,local,class=CODE,delta=2
  8326                           global __ptext4254
  8327  1165                     __ptext4254:
  8328                           
  8329 ;; *************** function _LcdInit *****************
  8330 ;; Defined at:
  8331 ;;		line 11 in file "C:\Users\GauravLT\Desktop\Finger Print Sensor\R307\PIC16F877A_R307\lcd.c"
  8332 ;; Parameters:    Size  Location     Type
  8333 ;;		None
  8334 ;; Auto vars:     Size  Location     Type
  8335 ;;		None
  8336 ;; Return value:  Size  Location     Type
  8337 ;;		None               void
  8338 ;; Registers used:
  8339 ;;		wreg, fsr0l, fsr0h, status,2, status,0, pclath, cstack
  8340 ;; Tracked objects:
  8341 ;;		On entry : 0/0
  8342 ;;		On exit  : 0/0
  8343 ;;		Unchanged: 0/0
  8344 ;; Data sizes:     COMMON   BANK0   BANK1   BANK3   BANK2
  8345 ;;      Params:         0       0       0       0       0
  8346 ;;      Locals:         0       0       0       0       0
  8347 ;;      Temps:          0       1       0       0       0
  8348 ;;      Totals:         0       1       0       0       0
  8349 ;;Total ram usage:        1 bytes
  8350 ;; Hardware stack levels used:    1
  8351 ;; Hardware stack levels required when called:    5
  8352 ;; This function calls:
  8353 ;;		_LcdDelay
  8354 ;;		_SendByte
  8355 ;;		_LcdClear
  8356 ;; This function is called by:
  8357 ;;		_main
  8358 ;; This function uses a non-reentrant model
  8359 ;;
  8360                           psect	text4254
  8361                           	file	"C:\Users\GauravLT\Desktop\Finger Print Sensor\R307\PIC16F877A_R307\lcd.c"
  8362                           	line	11
  8363                           	global	__size_of_LcdInit
  8364  002F                     	__size_of_LcdInit	equ	__end_of_LcdInit-_LcdInit
  8365                           	
  8366  1165                     _LcdInit:	
  8367                           	opt	stack 2
  8368                           ; Regs used in _LcdInit: [wreg-fsr0h+status,2+status,0+pclath+cstack]
  8369                           	line	12
  8370                           	
  8371  1165                     l14004:	
  8372                           ;lcd.c: 12: TRISD = 0x00;
  8373  1165  1683               	bsf	status, 5	;RP0=1, select bank1
  8374  1166  1303               	bcf	status, 6	;RP1=0, select bank1
  8375  1167  0188               	clrf	(136)^080h	;volatile
  8376                           	line	13
  8377                           ;lcd.c: 13: TRISB = 0X00;
  8378  1168  0186               	clrf	(134)^080h	;volatile
  8379                           	line	17
  8380                           	
  8381  1169                     l14006:	
  8382                           ;lcd.c: 17: RD6=0;
  8383  1169  1283               	bcf	status, 5	;RP0=0, select bank0
  8384  116A  1303               	bcf	status, 6	;RP1=0, select bank0
  8385  116B  1308               	bcf	(70/8),(70)&7
  8386                           	line	18
  8387                           ;lcd.c: 18: PORTD=0;
  8388  116C  0188               	clrf	(8)	;volatile
  8389                           	line	19
  8390                           	
  8391  116D                     l14008:	
  8392                           ;lcd.c: 19: LcdDelay(1000);
  8393  116D  30E8               	movlw	low(03E8h)
  8394  116E  00A0               	movwf	(?_LcdDelay)
  8395  116F  3003               	movlw	high(03E8h)
  8396  1170  00A1               	movwf	((?_LcdDelay))+1
  8397  1171  160A  158A  27D6   	fcall	_LcdDelay
              160A  118A         
  8398                           	line	20
  8399                           	
  8400  1176                     l14010:	
  8401                           ;lcd.c: 20: SendByte(Cmd, 0x38);
  8402  1176  3038               	movlw	(038h)
  8403  1177  1283               	bcf	status, 5	;RP0=0, select bank0
  8404  1178  1303               	bcf	status, 6	;RP1=0, select bank0
  8405  1179  00A8               	movwf	(??_LcdInit+0)+0
  8406  117A  0828               	movf	(??_LcdInit+0)+0,w
  8407  117B  00A2               	movwf	(?_SendByte)
  8408  117C  3000               	movlw	(0)
  8409  117D  160A  118A  21FC   	fcall	_SendByte
              160A  118A         
  8410                           	line	21
  8411                           	
  8412  1182                     l14012:	
  8413                           ;lcd.c: 21: SendByte(Cmd, 0x0C);
  8414  1182  300C               	movlw	(0Ch)
  8415  1183  1283               	bcf	status, 5	;RP0=0, select bank0
  8416  1184  1303               	bcf	status, 6	;RP1=0, select bank0
  8417  1185  00A8               	movwf	(??_LcdInit+0)+0
  8418  1186  0828               	movf	(??_LcdInit+0)+0,w
  8419  1187  00A2               	movwf	(?_SendByte)
  8420  1188  3000               	movlw	(0)
  8421  1189  160A  118A  21FC   	fcall	_SendByte
              160A  118A         
  8422                           	line	22
  8423                           	
  8424  118E                     l14014:	
  8425                           ;lcd.c: 22: LcdClear();
  8426  118E  160A  118A  2032   	fcall	_LcdClear
              160A  118A         
  8427                           	line	23
  8428                           	
  8429  1193                     l695:	
  8430  1193  0008               	return
  8431                           	opt stack 0
  8432                           GLOBAL	__end_of_LcdInit
  8433  1194                     	__end_of_LcdInit:
  8434 ;; =============== function _LcdInit ends ============
  8435                           
  8436                           	signat	_LcdInit,88
  8437                           	global	_sendPackage
  8438                           psect	text4255,local,class=CODE,delta=2
  8439                           global __ptext4255
  8440  0BB4                     __ptext4255:
  8441                           
  8442 ;; *************** function _sendPackage *****************
  8443 ;; Defined at:
  8444 ;;		line 89 in file "C:\Users\GauravLT\Desktop\Finger Print Sensor\R307\PIC16F877A_R307\FingerPrintSensor_R307.c"
  8445 ;; Parameters:    Size  Location     Type
  8446 ;;  identifier      1    wreg     enum E1115
  8447 ;;  length          1   11[BANK0 ] unsigned char 
  8448 ;;  instruction     1   12[BANK0 ] enum E1090
  8449 ;;  content         1   13[BANK0 ] PTR unsigned char 
  8450 ;;		 -> AddUserC@contentData(4), AddUserB@contentData(1), AddUserA@contentData(1), EraseAllUsers@contentData(1), 
  8451 ;;		 -> HiSpeedScan@contentData(5), MatchTemplate@contentData(1), LoadFingerTemplate@contentData(3), GenCharacterFileFro
       mImage@contentData(1), 
  8452 ;;		 -> ScanForImage@contentData(1), DefModulePassword(4), DeleteUser@contentData(4), 
  8453 ;; Auto vars:     Size  Location     Type
  8454 ;;  identifier      1   22[BANK0 ] enum E1115
  8455 ;;  i               2   23[BANK0 ] unsigned int 
  8456 ;; Return value:  Size  Location     Type
  8457 ;;		None               void
  8458 ;; Registers used:
  8459 ;;		wreg, fsr0l, fsr0h, status,2, status,0, pclath, cstack
  8460 ;; Tracked objects:
  8461 ;;		On entry : 0/0
  8462 ;;		On exit  : 0/0
  8463 ;;		Unchanged: 0/0
  8464 ;; Data sizes:     COMMON   BANK0   BANK1   BANK3   BANK2
  8465 ;;      Params:         0       3       0       0       0
  8466 ;;      Locals:         0       3       0       0       0
  8467 ;;      Temps:          0       8       0       0       0
  8468 ;;      Totals:         0      14       0       0       0
  8469 ;;Total ram usage:       14 bytes
  8470 ;; Hardware stack levels used:    1
  8471 ;; Hardware stack levels required when called:    4
  8472 ;; This function calls:
  8473 ;;		_SendUartValue
  8474 ;;		_SendUartByte
  8475 ;; This function is called by:
  8476 ;;		_DeleteUser
  8477 ;;		_VerifyPswd
  8478 ;;		_ScanForImage
  8479 ;;		_GenCharacterFileFromImage
  8480 ;;		_HiSpeedScan
  8481 ;;		_EraseAllUsers
  8482 ;;		_AddUserA
  8483 ;;		_AddUserB
  8484 ;;		_AddUserC
  8485 ;;		_LoadFingerTemplate
  8486 ;;		_MatchTemplate
  8487 ;; This function uses a non-reentrant model
  8488 ;;
  8489                           psect	text4255
  8490                           	file	"C:\Users\GauravLT\Desktop\Finger Print Sensor\R307\PIC16F877A_R307\FingerPrintSen
                                 sor_R307.c"
  8491                           	line	89
  8492                           	global	__size_of_sendPackage
  8493  0159                     	__size_of_sendPackage	equ	__end_of_sendPackage-_sendPackage
  8494                           	
  8495  0BB4                     _sendPackage:	
  8496                           	opt	stack 1
  8497                           ; Regs used in _sendPackage: [wreg-fsr0h+status,2+status,0+pclath+cstack]
  8498                           ;sendPackage@identifier stored from wreg
  8499  0BB4  1283               	bcf	status, 5	;RP0=0, select bank0
  8500  0BB5  1303               	bcf	status, 6	;RP1=0, select bank0
  8501  0BB6  00B6               	movwf	(sendPackage@identifier)
  8502                           	line	90
  8503                           	
  8504  0BB7                     l13966:	
  8505                           ;FingerPrintSensor_R307.c: 90: unsigned int i=0;
  8506  0BB7  01B7               	clrf	(sendPackage@i)
  8507  0BB8  01B8               	clrf	(sendPackage@i+1)
  8508                           	line	91
  8509                           ;FingerPrintSensor_R307.c: 91: _Package.CheckSum = 0;
  8510  0BB9  1683               	bsf	status, 5	;RP0=1, select bank1
  8511  0BBA  1303               	bcf	status, 6	;RP1=0, select bank1
  8512  0BBB  01CC               	clrf	0+(__Package)^080h+0Bh
  8513  0BBC  01CD               	clrf	1+(__Package)^080h+0Bh
  8514                           	line	93
  8515                           	
  8516  0BBD                     l13968:	
  8517                           ;FingerPrintSensor_R307.c: 93: _Package.Header = PackageHeader;
  8518  0BBD  0835               	movf	(_PackageHeader+1)^080h,w
  8519  0BBE  01C2               	clrf	(__Package+1)^080h
  8520  0BBF  07C2               	addwf	(__Package+1)^080h
  8521  0BC0  0834               	movf	(_PackageHeader)^080h,w
  8522  0BC1  01C1               	clrf	(__Package)^080h
  8523  0BC2  07C1               	addwf	(__Package)^080h
  8524                           
  8525                           	line	94
  8526                           	
  8527  0BC3                     l13970:	
  8528                           ;FingerPrintSensor_R307.c: 94: SendUartValue(_Package.Header, sizeof(_Package.Header));
  8529  0BC3  0841               	movf	(__Package)^080h,w
  8530  0BC4  1283               	bcf	status, 5	;RP0=0, select bank0
  8531  0BC5  1303               	bcf	status, 6	;RP1=0, select bank0
  8532  0BC6  00A1               	movwf	(?_SendUartValue)
  8533  0BC7  1683               	bsf	status, 5	;RP0=1, select bank1
  8534  0BC8  1303               	bcf	status, 6	;RP1=0, select bank1
  8535  0BC9  0842               	movf	(__Package+1)^080h,w
  8536  0BCA  1283               	bcf	status, 5	;RP0=0, select bank0
  8537  0BCB  1303               	bcf	status, 6	;RP1=0, select bank0
  8538  0BCC  00A2               	movwf	((?_SendUartValue))+1
  8539  0BCD  01A3               	clrf	2+((?_SendUartValue))
  8540  0BCE  01A4               	clrf	3+((?_SendUartValue))
  8541  0BCF  3002               	movlw	(02h)
  8542  0BD0  00AE               	movwf	(??_sendPackage+0)+0
  8543  0BD1  082E               	movf	(??_sendPackage+0)+0,w
  8544  0BD2  00A5               	movwf	0+(?_SendUartValue)+04h
  8545  0BD3  160A  118A  244E   	fcall	_SendUartValue
              120A  158A         
  8546                           	line	96
  8547                           	
  8548  0BD8                     l13972:	
  8549                           ;FingerPrintSensor_R307.c: 96: _Package.Address = DefModuleAddress;
  8550  0BD8  1683               	bsf	status, 5	;RP0=1, select bank1
  8551  0BD9  1303               	bcf	status, 6	;RP1=0, select bank1
  8552  0BDA  0830               	movf	(_DefModuleAddress+3)^080h,w
  8553  0BDB  00C6               	movwf	3+(__Package)^080h+02h
  8554  0BDC  082F               	movf	(_DefModuleAddress+2)^080h,w
  8555  0BDD  00C5               	movwf	2+(__Package)^080h+02h
  8556  0BDE  082E               	movf	(_DefModuleAddress+1)^080h,w
  8557  0BDF  00C4               	movwf	1+(__Package)^080h+02h
  8558  0BE0  082D               	movf	(_DefModuleAddress)^080h,w
  8559  0BE1  00C3               	movwf	0+(__Package)^080h+02h
  8560                           
  8561                           	line	97
  8562                           	
  8563  0BE2                     l13974:	
  8564                           ;FingerPrintSensor_R307.c: 97: SendUartValue(_Package.Address, sizeof(_Package.Address))
                                 ;
  8565  0BE2  3002               	movlw	(02h)
  8566  0BE3  3EC1               	addlw	__Package&0ffh
  8567  0BE4  0084               	movwf	fsr0
  8568  0BE5  1383               	bcf	status, 7	;select IRP bank1
  8569  0BE6  0800               	movf	indf,w
  8570  0BE7  1283               	bcf	status, 5	;RP0=0, select bank0
  8571  0BE8  1303               	bcf	status, 6	;RP1=0, select bank0
  8572  0BE9  00A1               	movwf	(?_SendUartValue)
  8573  0BEA  0A84               	incf	fsr0,f
  8574  0BEB  0800               	movf	indf,w
  8575  0BEC  00A2               	movwf	(?_SendUartValue+1)
  8576  0BED  0A84               	incf	fsr0,f
  8577  0BEE  0800               	movf	indf,w
  8578  0BEF  00A3               	movwf	(?_SendUartValue+2)
  8579  0BF0  0A84               	incf	fsr0,f
  8580  0BF1  0800               	movf	indf,w
  8581  0BF2  00A4               	movwf	(?_SendUartValue+3)
  8582  0BF3  3004               	movlw	(04h)
  8583  0BF4  00AE               	movwf	(??_sendPackage+0)+0
  8584  0BF5  082E               	movf	(??_sendPackage+0)+0,w
  8585  0BF6  00A5               	movwf	0+(?_SendUartValue)+04h
  8586  0BF7  160A  118A  244E   	fcall	_SendUartValue
              120A  158A         
  8587                           	line	99
  8588                           	
  8589  0BFC                     l13976:	
  8590                           ;FingerPrintSensor_R307.c: 99: _Package.Identifier = identifier;
  8591  0BFC  1283               	bcf	status, 5	;RP0=0, select bank0
  8592  0BFD  1303               	bcf	status, 6	;RP1=0, select bank0
  8593  0BFE  0836               	movf	(sendPackage@identifier),w
  8594  0BFF  00AE               	movwf	(??_sendPackage+0)+0
  8595  0C00  082E               	movf	(??_sendPackage+0)+0,w
  8596  0C01  1683               	bsf	status, 5	;RP0=1, select bank1
  8597  0C02  1303               	bcf	status, 6	;RP1=0, select bank1
  8598  0C03  00C7               	movwf	0+(__Package)^080h+06h
  8599                           	line	100
  8600                           	
  8601  0C04                     l13978:	
  8602                           ;FingerPrintSensor_R307.c: 100: SendUartValue(_Package.Identifier, sizeof(_Package.Ident
                                 ifier));
  8603  0C04  0847               	movf	0+(__Package)^080h+06h,w
  8604  0C05  1283               	bcf	status, 5	;RP0=0, select bank0
  8605  0C06  1303               	bcf	status, 6	;RP1=0, select bank0
  8606  0C07  00AE               	movwf	(??_sendPackage+0)+0
  8607  0C08  01AF               	clrf	((??_sendPackage+0)+0+1)
  8608  0C09  01B0               	clrf	((??_sendPackage+0)+0+2)
  8609  0C0A  01B1               	clrf	((??_sendPackage+0)+0+3)
  8610  0C0B  0831               	movf	3+(??_sendPackage+0)+0,w
  8611  0C0C  00A4               	movwf	(?_SendUartValue+3)
  8612  0C0D  0830               	movf	2+(??_sendPackage+0)+0,w
  8613  0C0E  00A3               	movwf	(?_SendUartValue+2)
  8614  0C0F  082F               	movf	1+(??_sendPackage+0)+0,w
  8615  0C10  00A2               	movwf	(?_SendUartValue+1)
  8616  0C11  082E               	movf	0+(??_sendPackage+0)+0,w
  8617  0C12  00A1               	movwf	(?_SendUartValue)
  8618                           
  8619  0C13  01A5               	clrf	0+(?_SendUartValue)+04h
  8620  0C14  1403               	bsf	status,0
  8621  0C15  0DA5               	rlf	0+(?_SendUartValue)+04h,f
  8622  0C16  160A  118A  244E   	fcall	_SendUartValue
              120A  158A         
  8623                           	line	102
  8624                           	
  8625  0C1B                     l13980:	
  8626                           ;FingerPrintSensor_R307.c: 102: _Package.Length = length;
  8627  0C1B  1283               	bcf	status, 5	;RP0=0, select bank0
  8628  0C1C  1303               	bcf	status, 6	;RP1=0, select bank0
  8629  0C1D  082B               	movf	(sendPackage@length),w
  8630  0C1E  00AE               	movwf	(??_sendPackage+0)+0
  8631  0C1F  01AF               	clrf	(??_sendPackage+0)+0+1
  8632  0C20  082E               	movf	0+(??_sendPackage+0)+0,w
  8633  0C21  1683               	bsf	status, 5	;RP0=1, select bank1
  8634  0C22  1303               	bcf	status, 6	;RP1=0, select bank1
  8635  0C23  00C8               	movwf	0+(__Package)^080h+07h
  8636  0C24  1283               	bcf	status, 5	;RP0=0, select bank0
  8637  0C25  1303               	bcf	status, 6	;RP1=0, select bank0
  8638  0C26  082F               	movf	1+(??_sendPackage+0)+0,w
  8639  0C27  1683               	bsf	status, 5	;RP0=1, select bank1
  8640  0C28  1303               	bcf	status, 6	;RP1=0, select bank1
  8641  0C29  00C9               	movwf	1+(__Package)^080h+07h
  8642                           	line	103
  8643                           	
  8644  0C2A                     l13982:	
  8645                           ;FingerPrintSensor_R307.c: 103: SendUartValue(_Package.Length, sizeof(_Package.Length));
  8646  0C2A  0848               	movf	0+(__Package)^080h+07h,w
  8647  0C2B  1283               	bcf	status, 5	;RP0=0, select bank0
  8648  0C2C  1303               	bcf	status, 6	;RP1=0, select bank0
  8649  0C2D  00A1               	movwf	(?_SendUartValue)
  8650  0C2E  1683               	bsf	status, 5	;RP0=1, select bank1
  8651  0C2F  1303               	bcf	status, 6	;RP1=0, select bank1
  8652  0C30  0849               	movf	1+(__Package)^080h+07h,w
  8653  0C31  1283               	bcf	status, 5	;RP0=0, select bank0
  8654  0C32  1303               	bcf	status, 6	;RP1=0, select bank0
  8655  0C33  00A2               	movwf	((?_SendUartValue))+1
  8656  0C34  01A3               	clrf	2+((?_SendUartValue))
  8657  0C35  01A4               	clrf	3+((?_SendUartValue))
  8658  0C36  3002               	movlw	(02h)
  8659  0C37  00AE               	movwf	(??_sendPackage+0)+0
  8660  0C38  082E               	movf	(??_sendPackage+0)+0,w
  8661  0C39  00A5               	movwf	0+(?_SendUartValue)+04h
  8662  0C3A  160A  118A  244E   	fcall	_SendUartValue
              120A  158A         
  8663                           	line	105
  8664                           	
  8665  0C3F                     l13984:	
  8666                           ;FingerPrintSensor_R307.c: 105: _Package.Instruction = instruction;
  8667  0C3F  1283               	bcf	status, 5	;RP0=0, select bank0
  8668  0C40  1303               	bcf	status, 6	;RP1=0, select bank0
  8669  0C41  082C               	movf	(sendPackage@instruction),w
  8670  0C42  00AE               	movwf	(??_sendPackage+0)+0
  8671  0C43  082E               	movf	(??_sendPackage+0)+0,w
  8672  0C44  1683               	bsf	status, 5	;RP0=1, select bank1
  8673  0C45  1303               	bcf	status, 6	;RP1=0, select bank1
  8674  0C46  00CA               	movwf	0+(__Package)^080h+09h
  8675                           	line	106
  8676                           	
  8677  0C47                     l13986:	
  8678                           ;FingerPrintSensor_R307.c: 106: SendUartValue(_Package.Instruction, sizeof(_Package.Inst
                                 ruction));
  8679  0C47  084A               	movf	0+(__Package)^080h+09h,w
  8680  0C48  1283               	bcf	status, 5	;RP0=0, select bank0
  8681  0C49  1303               	bcf	status, 6	;RP1=0, select bank0
  8682  0C4A  00AE               	movwf	(??_sendPackage+0)+0
  8683  0C4B  01AF               	clrf	((??_sendPackage+0)+0+1)
  8684  0C4C  01B0               	clrf	((??_sendPackage+0)+0+2)
  8685  0C4D  01B1               	clrf	((??_sendPackage+0)+0+3)
  8686  0C4E  0831               	movf	3+(??_sendPackage+0)+0,w
  8687  0C4F  00A4               	movwf	(?_SendUartValue+3)
  8688  0C50  0830               	movf	2+(??_sendPackage+0)+0,w
  8689  0C51  00A3               	movwf	(?_SendUartValue+2)
  8690  0C52  082F               	movf	1+(??_sendPackage+0)+0,w
  8691  0C53  00A2               	movwf	(?_SendUartValue+1)
  8692  0C54  082E               	movf	0+(??_sendPackage+0)+0,w
  8693  0C55  00A1               	movwf	(?_SendUartValue)
  8694                           
  8695  0C56  01A5               	clrf	0+(?_SendUartValue)+04h
  8696  0C57  1403               	bsf	status,0
  8697  0C58  0DA5               	rlf	0+(?_SendUartValue)+04h,f
  8698  0C59  160A  118A  244E   	fcall	_SendUartValue
              120A  158A         
  8699                           	line	108
  8700                           	
  8701  0C5E                     l13988:	
  8702                           ;FingerPrintSensor_R307.c: 108: _Package.Content = content;
  8703  0C5E  1283               	bcf	status, 5	;RP0=0, select bank0
  8704  0C5F  1303               	bcf	status, 6	;RP1=0, select bank0
  8705  0C60  082D               	movf	(sendPackage@content),w
  8706  0C61  00AE               	movwf	(??_sendPackage+0)+0
  8707  0C62  082E               	movf	(??_sendPackage+0)+0,w
  8708  0C63  1683               	bsf	status, 5	;RP0=1, select bank1
  8709  0C64  1303               	bcf	status, 6	;RP1=0, select bank1
  8710  0C65  00CB               	movwf	(0+__Package+0Ah)^080h
  8711                           	line	109
  8712                           	
  8713  0C66                     l13990:	
  8714                           ;FingerPrintSensor_R307.c: 109: for(i=0; i<_Package.Length-3; i++)
  8715  0C66  1283               	bcf	status, 5	;RP0=0, select bank0
  8716  0C67  1303               	bcf	status, 6	;RP1=0, select bank0
  8717  0C68  01B7               	clrf	(sendPackage@i)
  8718  0C69  01B8               	clrf	(sendPackage@i+1)
  8719  0C6A  2C9F               	goto	l13998
  8720                           	line	110
  8721                           	
  8722  0C6B                     l3050:	
  8723                           	line	111
  8724                           	
  8725  0C6B                     l13992:	
  8726                           ;FingerPrintSensor_R307.c: 110: {
  8727                           ;FingerPrintSensor_R307.c: 111: SendUartByte(*(_Package.Content+i));
  8728  0C6B  0837               	movf	(sendPackage@i),w
  8729  0C6C  1683               	bsf	status, 5	;RP0=1, select bank1
  8730  0C6D  1303               	bcf	status, 6	;RP1=0, select bank1
  8731  0C6E  074B               	addwf	(0+__Package+0Ah)^080h,w
  8732  0C6F  1283               	bcf	status, 5	;RP0=0, select bank0
  8733  0C70  1303               	bcf	status, 6	;RP1=0, select bank0
  8734  0C71  00AE               	movwf	(??_sendPackage+0)+0
  8735  0C72  082E               	movf	0+(??_sendPackage+0)+0,w
  8736  0C73  0084               	movwf	fsr0
  8737  0C74  1383               	bcf	status, 7	;select IRP bank0
  8738  0C75  0800               	movf	indf,w
  8739  0C76  160A  158A  27A6   	fcall	_SendUartByte
              120A  158A         
  8740                           	line	112
  8741                           	
  8742  0C7B                     l13994:	
  8743                           ;FingerPrintSensor_R307.c: 112: _Package.CheckSum += *(_Package.Content+i);
  8744  0C7B  1283               	bcf	status, 5	;RP0=0, select bank0
  8745  0C7C  1303               	bcf	status, 6	;RP1=0, select bank0
  8746  0C7D  0837               	movf	(sendPackage@i),w
  8747  0C7E  1683               	bsf	status, 5	;RP0=1, select bank1
  8748  0C7F  1303               	bcf	status, 6	;RP1=0, select bank1
  8749  0C80  074B               	addwf	(0+__Package+0Ah)^080h,w
  8750  0C81  1283               	bcf	status, 5	;RP0=0, select bank0
  8751  0C82  1303               	bcf	status, 6	;RP1=0, select bank0
  8752  0C83  00AE               	movwf	(??_sendPackage+0)+0
  8753  0C84  082E               	movf	0+(??_sendPackage+0)+0,w
  8754  0C85  0084               	movwf	fsr0
  8755  0C86  1383               	bcf	status, 7	;select IRP bank0
  8756  0C87  0800               	movf	indf,w
  8757  0C88  00AF               	movwf	(??_sendPackage+1)+0
  8758  0C89  01B0               	clrf	(??_sendPackage+1)+0+1
  8759  0C8A  082F               	movf	(??_sendPackage+1)+0,w
  8760  0C8B  1683               	bsf	status, 5	;RP0=1, select bank1
  8761  0C8C  1303               	bcf	status, 6	;RP1=0, select bank1
  8762  0C8D  07CC               	addwf	0+(__Package)^080h+0Bh,f
  8763  0C8E  1803               	skipnc
  8764  0C8F  0ACD               	incf	1+(__Package)^080h+0Bh,f
  8765  0C90  1283               	bcf	status, 5	;RP0=0, select bank0
  8766  0C91  1303               	bcf	status, 6	;RP1=0, select bank0
  8767  0C92  0830               	movf	(??_sendPackage+1)+1,w
  8768  0C93  1683               	bsf	status, 5	;RP0=1, select bank1
  8769  0C94  1303               	bcf	status, 6	;RP1=0, select bank1
  8770  0C95  07CD               	addwf	1+(__Package)^080h+0Bh,f
  8771                           	line	109
  8772                           	
  8773  0C96                     l13996:	
  8774  0C96  3001               	movlw	low(01h)
  8775  0C97  1283               	bcf	status, 5	;RP0=0, select bank0
  8776  0C98  1303               	bcf	status, 6	;RP1=0, select bank0
  8777  0C99  07B7               	addwf	(sendPackage@i),f
  8778  0C9A  1803               	skipnc
  8779  0C9B  0AB8               	incf	(sendPackage@i+1),f
  8780  0C9C  3000               	movlw	high(01h)
  8781  0C9D  07B8               	addwf	(sendPackage@i+1),f
  8782  0C9E  2C9F               	goto	l13998
  8783                           	
  8784  0C9F                     l3049:	
  8785                           	
  8786  0C9F                     l13998:	
  8787  0C9F  1683               	bsf	status, 5	;RP0=1, select bank1
  8788  0CA0  1303               	bcf	status, 6	;RP1=0, select bank1
  8789  0CA1  0848               	movf	0+(__Package)^080h+07h,w
  8790  0CA2  3EFD               	addlw	low(0FFFDh)
  8791  0CA3  1283               	bcf	status, 5	;RP0=0, select bank0
  8792  0CA4  1303               	bcf	status, 6	;RP1=0, select bank0
  8793  0CA5  00AE               	movwf	(??_sendPackage+0)+0
  8794  0CA6  1683               	bsf	status, 5	;RP0=1, select bank1
  8795  0CA7  1303               	bcf	status, 6	;RP1=0, select bank1
  8796  0CA8  0849               	movf	1+(__Package)^080h+07h,w
  8797  0CA9  1803               	skipnc
  8798  0CAA  3E01               	addlw	1
  8799  0CAB  3EFF               	addlw	high(0FFFDh)
  8800  0CAC  1283               	bcf	status, 5	;RP0=0, select bank0
  8801  0CAD  1303               	bcf	status, 6	;RP1=0, select bank0
  8802  0CAE  00AF               	movwf	1+(??_sendPackage+0)+0
  8803  0CAF  082F               	movf	1+(??_sendPackage+0)+0,w
  8804  0CB0  0238               	subwf	(sendPackage@i+1),w
  8805  0CB1  1D03               	skipz
  8806  0CB2  2CB5               	goto	u14455
  8807  0CB3  082E               	movf	0+(??_sendPackage+0)+0,w
  8808  0CB4  0237               	subwf	(sendPackage@i),w
  8809  0CB5                     u14455:
  8810  0CB5  1C03               	skipc
  8811  0CB6  2CB8               	goto	u14451
  8812  0CB7  2CB9               	goto	u14450
  8813  0CB8                     u14451:
  8814  0CB8  2C6B               	goto	l13992
  8815  0CB9                     u14450:
  8816  0CB9  2CBA               	goto	l14000
  8817                           	
  8818  0CBA                     l3051:	
  8819                           	line	115
  8820                           	
  8821  0CBA                     l14000:	
  8822                           ;FingerPrintSensor_R307.c: 113: }
  8823                           ;FingerPrintSensor_R307.c: 114: _Package.CheckSum += _Package.Identifier + (unsigned cha
                                 r)(_Package.Length >> 8) +
  8824                           ;FingerPrintSensor_R307.c: 115: (unsigned char)(_Package.Length & 0xFF) + _Package.Instr
                                 uction;
  8825  0CBA  3007               	movlw	(07h)
  8826  0CBB  3EC1               	addlw	__Package&0ffh
  8827  0CBC  0084               	movwf	fsr0
  8828  0CBD  1383               	bcf	status, 7	;select IRP bank1
  8829  0CBE  0800               	movf	indf,w
  8830  0CBF  00AE               	movwf	(??_sendPackage+0)+0+0
  8831  0CC0  0A84               	incf	fsr0,f
  8832  0CC1  0800               	movf	indf,w
  8833  0CC2  00AF               	movwf	(??_sendPackage+0)+0+1
  8834  0CC3  3008               	movlw	08h
  8835  0CC4                     u14465:
  8836  0CC4  1003               	clrc
  8837  0CC5  0CAF               	rrf	(??_sendPackage+0)+1,f
  8838  0CC6  0CAE               	rrf	(??_sendPackage+0)+0,f
  8839  0CC7  3EFF               	addlw	-1
  8840  0CC8  1D03               	skipz
  8841  0CC9  2CC4               	goto	u14465
  8842  0CCA  1683               	bsf	status, 5	;RP0=1, select bank1
  8843  0CCB  1303               	bcf	status, 6	;RP1=0, select bank1
  8844  0CCC  0847               	movf	0+(__Package)^080h+06h,w
  8845  0CCD  1283               	bcf	status, 5	;RP0=0, select bank0
  8846  0CCE  1303               	bcf	status, 6	;RP1=0, select bank0
  8847  0CCF  072E               	addwf	0+(??_sendPackage+0)+0,w
  8848  0CD0  00B0               	movwf	(??_sendPackage+2)+0
  8849  0CD1  01B1               	clrf	(??_sendPackage+2)+0+1
  8850  0CD2  0DB1               	rlf	1+(??_sendPackage+2)+0,f
  8851                           	
  8852  0CD3  1683               	bsf	status, 5	;RP0=1, select bank1
  8853  0CD4  1303               	bcf	status, 6	;RP1=0, select bank1
  8854  0CD5  0848               	movf	0+(__Package)^080h+07h,w
  8855  0CD6  1283               	bcf	status, 5	;RP0=0, select bank0
  8856  0CD7  1303               	bcf	status, 6	;RP1=0, select bank0
  8857  0CD8  0730               	addwf	0+(??_sendPackage+2)+0,w
  8858  0CD9  00B2               	movwf	(??_sendPackage+4)+0
  8859  0CDA  3000               	movlw	0
  8860  0CDB  1803               	skipnc
  8861  0CDC  3001               	movlw	1
  8862  0CDD  0731               	addwf	1+(??_sendPackage+2)+0,w
  8863  0CDE  00B3               	movwf	1+(??_sendPackage+4)+0
  8864  0CDF  1683               	bsf	status, 5	;RP0=1, select bank1
  8865  0CE0  1303               	bcf	status, 6	;RP1=0, select bank1
  8866  0CE1  084A               	movf	0+(__Package)^080h+09h,w
  8867  0CE2  1283               	bcf	status, 5	;RP0=0, select bank0
  8868  0CE3  1303               	bcf	status, 6	;RP1=0, select bank0
  8869  0CE4  0732               	addwf	0+(??_sendPackage+4)+0,w
  8870  0CE5  00B4               	movwf	(??_sendPackage+6)+0
  8871  0CE6  3000               	movlw	0
  8872  0CE7  1803               	skipnc
  8873  0CE8  3001               	movlw	1
  8874  0CE9  0733               	addwf	1+(??_sendPackage+4)+0,w
  8875  0CEA  00B5               	movwf	1+(??_sendPackage+6)+0
  8876  0CEB  0834               	movf	(??_sendPackage+6)+0,w
  8877  0CEC  1683               	bsf	status, 5	;RP0=1, select bank1
  8878  0CED  1303               	bcf	status, 6	;RP1=0, select bank1
  8879  0CEE  07CC               	addwf	0+(__Package)^080h+0Bh,f
  8880  0CEF  1803               	skipnc
  8881  0CF0  0ACD               	incf	1+(__Package)^080h+0Bh,f
  8882  0CF1  1283               	bcf	status, 5	;RP0=0, select bank0
  8883  0CF2  1303               	bcf	status, 6	;RP1=0, select bank0
  8884  0CF3  0835               	movf	(??_sendPackage+6)+1,w
  8885  0CF4  1683               	bsf	status, 5	;RP0=1, select bank1
  8886  0CF5  1303               	bcf	status, 6	;RP1=0, select bank1
  8887  0CF6  07CD               	addwf	1+(__Package)^080h+0Bh,f
  8888                           	line	117
  8889                           	
  8890  0CF7                     l14002:	
  8891                           ;FingerPrintSensor_R307.c: 117: SendUartValue(_Package.CheckSum, sizeof(_Package.CheckSu
                                 m));
  8892  0CF7  084C               	movf	0+(__Package)^080h+0Bh,w
  8893  0CF8  1283               	bcf	status, 5	;RP0=0, select bank0
  8894  0CF9  1303               	bcf	status, 6	;RP1=0, select bank0
  8895  0CFA  00A1               	movwf	(?_SendUartValue)
  8896  0CFB  1683               	bsf	status, 5	;RP0=1, select bank1
  8897  0CFC  1303               	bcf	status, 6	;RP1=0, select bank1
  8898  0CFD  084D               	movf	1+(__Package)^080h+0Bh,w
  8899  0CFE  1283               	bcf	status, 5	;RP0=0, select bank0
  8900  0CFF  1303               	bcf	status, 6	;RP1=0, select bank0
  8901  0D00  00A2               	movwf	((?_SendUartValue))+1
  8902  0D01  01A3               	clrf	2+((?_SendUartValue))
  8903  0D02  01A4               	clrf	3+((?_SendUartValue))
  8904  0D03  3002               	movlw	(02h)
  8905  0D04  00AE               	movwf	(??_sendPackage+0)+0
  8906  0D05  082E               	movf	(??_sendPackage+0)+0,w
  8907  0D06  00A5               	movwf	0+(?_SendUartValue)+04h
  8908  0D07  160A  118A  244E   	fcall	_SendUartValue
              120A  158A         
  8909                           	line	118
  8910                           	
  8911  0D0C                     l3052:	
  8912  0D0C  0008               	return
  8913                           	opt stack 0
  8914                           GLOBAL	__end_of_sendPackage
  8915  0D0D                     	__end_of_sendPackage:
  8916 ;; =============== function _sendPackage ends ============
  8917                           
  8918                           	signat	_sendPackage,16504
  8919                           	global	_KeyScan
  8920                           psect	text4256,local,class=CODE,delta=2
  8921                           global __ptext4256
  8922  0910                     __ptext4256:
  8923                           
  8924 ;; *************** function _KeyScan *****************
  8925 ;; Defined at:
  8926 ;;		line 45 in file "C:\Users\GauravLT\Desktop\Finger Print Sensor\R307\PIC16F877A_R307\keypd.c"
  8927 ;; Parameters:    Size  Location     Type
  8928 ;;		None
  8929 ;; Auto vars:     Size  Location     Type
  8930 ;;  keyNo           1    5[BANK0 ] unsigned char 
  8931 ;; Return value:  Size  Location     Type
  8932 ;;		None               void
  8933 ;; Registers used:
  8934 ;;		wreg, fsr0l, fsr0h, status,2, status,0, pclath, cstack
  8935 ;; Tracked objects:
  8936 ;;		On entry : 0/0
  8937 ;;		On exit  : 0/0
  8938 ;;		Unchanged: 0/0
  8939 ;; Data sizes:     COMMON   BANK0   BANK1   BANK3   BANK2
  8940 ;;      Params:         0       0       0       0       0
  8941 ;;      Locals:         0       1       0       0       0
  8942 ;;      Temps:          0       1       0       0       0
  8943 ;;      Totals:         0       2       0       0       0
  8944 ;;Total ram usage:        2 bytes
  8945 ;; Hardware stack levels used:    1
  8946 ;; Hardware stack levels required when called:    4
  8947 ;; This function calls:
  8948 ;;		_PutKey
  8949 ;; This function is called by:
  8950 ;;		_DeleteUserAfterAdminConfirm
  8951 ;;		_menu
  8952 ;;		_HiSpeedScan0
  8953 ;;		_AddNewUser
  8954 ;; This function uses a non-reentrant model
  8955 ;;
  8956                           psect	text4256
  8957                           	file	"C:\Users\GauravLT\Desktop\Finger Print Sensor\R307\PIC16F877A_R307\keypd.c"
  8958                           	line	45
  8959                           	global	__size_of_KeyScan
  8960  0081                     	__size_of_KeyScan	equ	__end_of_KeyScan-_KeyScan
  8961                           	
  8962  0910                     _KeyScan:	
  8963                           	opt	stack 2
  8964                           ; Regs used in _KeyScan: [wreg-fsr0h+status,2+status,0+pclath+cstack]
  8965                           	line	46
  8966                           	
  8967  0910                     l13922:	
  8968                           ;keypd.c: 46: unsigned char keyNo=0;
  8969  0910  1283               	bcf	status, 5	;RP0=0, select bank0
  8970  0911  1303               	bcf	status, 6	;RP1=0, select bank0
  8971  0912  01A5               	clrf	(KeyScan@keyNo)
  8972                           	line	52
  8973                           ;keypd.c: 52: if(RC0 == 1 && RC1 == 0 && RC2 == 0 && RC3 == 0)
  8974  0913  1C07               	btfss	(56/8),(56)&7
  8975  0914  2916               	goto	u14241
  8976  0915  2917               	goto	u14240
  8977  0916                     u14241:
  8978  0916  292F               	goto	l2279
  8979  0917                     u14240:
  8980                           	
  8981  0917                     l13924:	
  8982  0917  1887               	btfsc	(57/8),(57)&7
  8983  0918  291A               	goto	u14251
  8984  0919  291B               	goto	u14250
  8985  091A                     u14251:
  8986  091A  292F               	goto	l2279
  8987  091B                     u14250:
  8988                           	
  8989  091B                     l13926:	
  8990  091B  1907               	btfsc	(58/8),(58)&7
  8991  091C  291E               	goto	u14261
  8992  091D  291F               	goto	u14260
  8993  091E                     u14261:
  8994  091E  292F               	goto	l2279
  8995  091F                     u14260:
  8996                           	
  8997  091F                     l13928:	
  8998  091F  1987               	btfsc	(59/8),(59)&7
  8999  0920  2922               	goto	u14271
  9000  0921  2923               	goto	u14270
  9001  0922                     u14271:
  9002  0922  292F               	goto	l2279
  9003  0923                     u14270:
  9004  0923  2925               	goto	l2280
  9005                           	line	54
  9006                           	
  9007  0924                     l13930:	
  9008                           ;keypd.c: 53: {
  9009                           ;keypd.c: 54: while(RC0 ==1);
  9010  0924  2925               	goto	l2280
  9011                           	
  9012  0925                     l2281:	
  9013                           	
  9014  0925                     l2280:	
  9015  0925  1807               	btfsc	(56/8),(56)&7
  9016  0926  2928               	goto	u14281
  9017  0927  2929               	goto	u14280
  9018  0928                     u14281:
  9019  0928  2925               	goto	l2280
  9020  0929                     u14280:
  9021  0929  292A               	goto	l13932
  9022                           	
  9023  092A                     l2282:	
  9024                           	line	55
  9025                           	
  9026  092A                     l13932:	
  9027                           ;keypd.c: 55: keyNo = '3';
  9028  092A  3033               	movlw	(033h)
  9029  092B  00A4               	movwf	(??_KeyScan+0)+0
  9030  092C  0824               	movf	(??_KeyScan+0)+0,w
  9031  092D  00A5               	movwf	(KeyScan@keyNo)
  9032                           	line	56
  9033                           ;keypd.c: 56: }
  9034  092E  2985               	goto	l2283
  9035                           	line	57
  9036                           	
  9037  092F                     l2279:	
  9038                           ;keypd.c: 57: else if(RC0 == 0 && RC1 == 1 && RC2 == 0 && RC3 == 0)
  9039  092F  1807               	btfsc	(56/8),(56)&7
  9040  0930  2932               	goto	u14291
  9041  0931  2933               	goto	u14290
  9042  0932                     u14291:
  9043  0932  294B               	goto	l2284
  9044  0933                     u14290:
  9045                           	
  9046  0933                     l13934:	
  9047  0933  1C87               	btfss	(57/8),(57)&7
  9048  0934  2936               	goto	u14301
  9049  0935  2937               	goto	u14300
  9050  0936                     u14301:
  9051  0936  294B               	goto	l2284
  9052  0937                     u14300:
  9053                           	
  9054  0937                     l13936:	
  9055  0937  1907               	btfsc	(58/8),(58)&7
  9056  0938  293A               	goto	u14311
  9057  0939  293B               	goto	u14310
  9058  093A                     u14311:
  9059  093A  294B               	goto	l2284
  9060  093B                     u14310:
  9061                           	
  9062  093B                     l13938:	
  9063  093B  1987               	btfsc	(59/8),(59)&7
  9064  093C  293E               	goto	u14321
  9065  093D  293F               	goto	u14320
  9066  093E                     u14321:
  9067  093E  294B               	goto	l2284
  9068  093F                     u14320:
  9069  093F  2941               	goto	l2285
  9070                           	line	59
  9071                           	
  9072  0940                     l13940:	
  9073                           ;keypd.c: 58: {
  9074                           ;keypd.c: 59: while(RC1 ==1);
  9075  0940  2941               	goto	l2285
  9076                           	
  9077  0941                     l2286:	
  9078                           	
  9079  0941                     l2285:	
  9080  0941  1887               	btfsc	(57/8),(57)&7
  9081  0942  2944               	goto	u14331
  9082  0943  2945               	goto	u14330
  9083  0944                     u14331:
  9084  0944  2941               	goto	l2285
  9085  0945                     u14330:
  9086  0945  2946               	goto	l13942
  9087                           	
  9088  0946                     l2287:	
  9089                           	line	60
  9090                           	
  9091  0946                     l13942:	
  9092                           ;keypd.c: 60: keyNo = '4';
  9093  0946  3034               	movlw	(034h)
  9094  0947  00A4               	movwf	(??_KeyScan+0)+0
  9095  0948  0824               	movf	(??_KeyScan+0)+0,w
  9096  0949  00A5               	movwf	(KeyScan@keyNo)
  9097                           	line	61
  9098                           ;keypd.c: 61: }
  9099  094A  2985               	goto	l2283
  9100                           	line	62
  9101                           	
  9102  094B                     l2284:	
  9103                           ;keypd.c: 62: else if(RC0 == 0 && RC1 == 0 && RC2 == 1 && RC3 == 0)
  9104  094B  1807               	btfsc	(56/8),(56)&7
  9105  094C  294E               	goto	u14341
  9106  094D  294F               	goto	u14340
  9107  094E                     u14341:
  9108  094E  2967               	goto	l2289
  9109  094F                     u14340:
  9110                           	
  9111  094F                     l13944:	
  9112  094F  1887               	btfsc	(57/8),(57)&7
  9113  0950  2952               	goto	u14351
  9114  0951  2953               	goto	u14350
  9115  0952                     u14351:
  9116  0952  2967               	goto	l2289
  9117  0953                     u14350:
  9118                           	
  9119  0953                     l13946:	
  9120  0953  1D07               	btfss	(58/8),(58)&7
  9121  0954  2956               	goto	u14361
  9122  0955  2957               	goto	u14360
  9123  0956                     u14361:
  9124  0956  2967               	goto	l2289
  9125  0957                     u14360:
  9126                           	
  9127  0957                     l13948:	
  9128  0957  1987               	btfsc	(59/8),(59)&7
  9129  0958  295A               	goto	u14371
  9130  0959  295B               	goto	u14370
  9131  095A                     u14371:
  9132  095A  2967               	goto	l2289
  9133  095B                     u14370:
  9134  095B  295D               	goto	l2290
  9135                           	line	64
  9136                           	
  9137  095C                     l13950:	
  9138                           ;keypd.c: 63: {
  9139                           ;keypd.c: 64: while(RC2 ==1);
  9140  095C  295D               	goto	l2290
  9141                           	
  9142  095D                     l2291:	
  9143                           	
  9144  095D                     l2290:	
  9145  095D  1907               	btfsc	(58/8),(58)&7
  9146  095E  2960               	goto	u14381
  9147  095F  2961               	goto	u14380
  9148  0960                     u14381:
  9149  0960  295D               	goto	l2290
  9150  0961                     u14380:
  9151  0961  2962               	goto	l13952
  9152                           	
  9153  0962                     l2292:	
  9154                           	line	65
  9155                           	
  9156  0962                     l13952:	
  9157                           ;keypd.c: 65: keyNo = '2';
  9158  0962  3032               	movlw	(032h)
  9159  0963  00A4               	movwf	(??_KeyScan+0)+0
  9160  0964  0824               	movf	(??_KeyScan+0)+0,w
  9161  0965  00A5               	movwf	(KeyScan@keyNo)
  9162                           	line	66
  9163                           ;keypd.c: 66: }
  9164  0966  2985               	goto	l2283
  9165                           	line	67
  9166                           	
  9167  0967                     l2289:	
  9168                           ;keypd.c: 67: else if(RC0 == 0 && RC1 == 0 && RC2 == 0 && RC3 == 1)
  9169  0967  1807               	btfsc	(56/8),(56)&7
  9170  0968  296A               	goto	u14391
  9171  0969  296B               	goto	u14390
  9172  096A                     u14391:
  9173  096A  2985               	goto	l2283
  9174  096B                     u14390:
  9175                           	
  9176  096B                     l13954:	
  9177  096B  1887               	btfsc	(57/8),(57)&7
  9178  096C  296E               	goto	u14401
  9179  096D  296F               	goto	u14400
  9180  096E                     u14401:
  9181  096E  2985               	goto	l2283
  9182  096F                     u14400:
  9183                           	
  9184  096F                     l13956:	
  9185  096F  1907               	btfsc	(58/8),(58)&7
  9186  0970  2972               	goto	u14411
  9187  0971  2973               	goto	u14410
  9188  0972                     u14411:
  9189  0972  2985               	goto	l2283
  9190  0973                     u14410:
  9191                           	
  9192  0973                     l13958:	
  9193  0973  1D87               	btfss	(59/8),(59)&7
  9194  0974  2976               	goto	u14421
  9195  0975  2977               	goto	u14420
  9196  0976                     u14421:
  9197  0976  2985               	goto	l2283
  9198  0977                     u14420:
  9199  0977  2979               	goto	l2295
  9200                           	line	69
  9201                           	
  9202  0978                     l13960:	
  9203                           ;keypd.c: 68: {
  9204                           ;keypd.c: 69: while(RC3 ==1);
  9205  0978  2979               	goto	l2295
  9206                           	
  9207  0979                     l2296:	
  9208                           	
  9209  0979                     l2295:	
  9210  0979  1987               	btfsc	(59/8),(59)&7
  9211  097A  297C               	goto	u14431
  9212  097B  297D               	goto	u14430
  9213  097C                     u14431:
  9214  097C  2979               	goto	l2295
  9215  097D                     u14430:
  9216  097D  297E               	goto	l13962
  9217                           	
  9218  097E                     l2297:	
  9219                           	line	70
  9220                           	
  9221  097E                     l13962:	
  9222                           ;keypd.c: 70: keyNo = '1';
  9223  097E  3031               	movlw	(031h)
  9224  097F  00A4               	movwf	(??_KeyScan+0)+0
  9225  0980  0824               	movf	(??_KeyScan+0)+0,w
  9226  0981  00A5               	movwf	(KeyScan@keyNo)
  9227  0982  2985               	goto	l2283
  9228                           	line	71
  9229                           	
  9230  0983                     l2294:	
  9231  0983  2985               	goto	l2283
  9232                           	line	72
  9233                           	
  9234  0984                     l2293:	
  9235  0984  2985               	goto	l2283
  9236                           	
  9237  0985                     l2288:	
  9238                           	
  9239  0985                     l2283:	
  9240                           ;keypd.c: 71: }
  9241                           ;keypd.c: 72: if(keyNo != 0) PutKey(keyNo);
  9242  0985  0825               	movf	(KeyScan@keyNo),w
  9243  0986  1D03               	skipz
  9244  0987  2989               	goto	u14440
  9245  0988  2990               	goto	l2299
  9246  0989                     u14440:
  9247                           	
  9248  0989                     l13964:	
  9249  0989  0825               	movf	(KeyScan@keyNo),w
  9250  098A  160A  118A  20F4   	fcall	_PutKey
              120A  158A         
  9251  098F  2990               	goto	l2299
  9252                           	
  9253  0990                     l2298:	
  9254                           	line	73
  9255                           	
  9256  0990                     l2299:	
  9257  0990  0008               	return
  9258                           	opt stack 0
  9259                           GLOBAL	__end_of_KeyScan
  9260  0991                     	__end_of_KeyScan:
  9261 ;; =============== function _KeyScan ends ============
  9262                           
  9263                           	signat	_KeyScan,88
  9264                           	global	_DecToStr
  9265                           psect	text4257,local,class=CODE,delta=2
  9266                           global __ptext4257
  9267  088F                     __ptext4257:
  9268                           
  9269 ;; *************** function _DecToStr *****************
  9270 ;; Defined at:
  9271 ;;		line 106 in file "C:\Users\GauravLT\Desktop\Finger Print Sensor\R307\PIC16F877A_R307\eeprom.c"
  9272 ;; Parameters:    Size  Location     Type
  9273 ;;  val             4   20[BANK0 ] unsigned long 
  9274 ;;  dest            2   24[BANK0 ] PTR unsigned char 
  9275 ;;		 -> DeleteUserAfterAdminConfirm@buff_2234(10), DeleteUserAfterAdminConfirm@buff(5), AddNewUserAfterAdminConfirm@buff
       (10), ControlAccess@buff(10), 
  9276 ;;  minDigit        1   26[BANK0 ] unsigned char 
  9277 ;; Auto vars:     Size  Location     Type
  9278 ;;  len             1   30[BANK0 ] unsigned char 
  9279 ;; Return value:  Size  Location     Type
  9280 ;;		None               void
  9281 ;; Registers used:
  9282 ;;		wreg, fsr0l, fsr0h, status,2, status,0, pclath, cstack
  9283 ;; Tracked objects:
  9284 ;;		On entry : 0/0
  9285 ;;		On exit  : 0/0
  9286 ;;		Unchanged: 0/0
  9287 ;; Data sizes:     COMMON   BANK0   BANK1   BANK3   BANK2
  9288 ;;      Params:         0       7       0       0       0
  9289 ;;      Locals:         0       1       0       0       0
  9290 ;;      Temps:          0       3       0       0       0
  9291 ;;      Totals:         0      11       0       0       0
  9292 ;;Total ram usage:       11 bytes
  9293 ;; Hardware stack levels used:    1
  9294 ;; Hardware stack levels required when called:    4
  9295 ;; This function calls:
  9296 ;;		_TotDigits
  9297 ;;		___llmod
  9298 ;;		___lldiv
  9299 ;; This function is called by:
  9300 ;;		_ControlAccess
  9301 ;;		_AddNewUserAfterAdminConfirm
  9302 ;;		_DeleteUserAfterAdminConfirm
  9303 ;; This function uses a non-reentrant model
  9304 ;;
  9305                           psect	text4257
  9306                           	file	"C:\Users\GauravLT\Desktop\Finger Print Sensor\R307\PIC16F877A_R307\eeprom.c"
  9307                           	line	106
  9308                           	global	__size_of_DecToStr
  9309  0081                     	__size_of_DecToStr	equ	__end_of_DecToStr-_DecToStr
  9310                           	
  9311  088F                     _DecToStr:	
  9312                           	opt	stack 2
  9313                           ; Regs used in _DecToStr: [wreg-fsr0h+status,2+status,0+pclath+cstack]
  9314                           	line	107
  9315                           	
  9316  088F                     l13904:	
  9317                           ;eeprom.c: 107: unsigned char len = TotDigits(val);
  9318  088F  1283               	bcf	status, 5	;RP0=0, select bank0
  9319  0890  1303               	bcf	status, 6	;RP1=0, select bank0
  9320  0891  0837               	movf	(DecToStr@val+3),w
  9321  0892  00B1               	movwf	(?_TotDigits+3)
  9322  0893  0836               	movf	(DecToStr@val+2),w
  9323  0894  00B0               	movwf	(?_TotDigits+2)
  9324  0895  0835               	movf	(DecToStr@val+1),w
  9325  0896  00AF               	movwf	(?_TotDigits+1)
  9326  0897  0834               	movf	(DecToStr@val),w
  9327  0898  00AE               	movwf	(?_TotDigits)
  9328                           
  9329  0899  160A  118A  2194   	fcall	_TotDigits
              120A  158A         
  9330  089E  1283               	bcf	status, 5	;RP0=0, select bank0
  9331  089F  1303               	bcf	status, 6	;RP1=0, select bank0
  9332  08A0  00BB               	movwf	(??_DecToStr+0)+0
  9333  08A1  083B               	movf	(??_DecToStr+0)+0,w
  9334  08A2  00BE               	movwf	(DecToStr@len)
  9335                           	line	108
  9336                           	
  9337  08A3                     l13906:	
  9338                           ;eeprom.c: 108: if(len<minDigit) len = minDigit;
  9339  08A3  083A               	movf	(DecToStr@minDigit),w
  9340  08A4  023E               	subwf	(DecToStr@len),w
  9341  08A5  1803               	skipnc
  9342  08A6  28A8               	goto	u14221
  9343  08A7  28A9               	goto	u14220
  9344  08A8                     u14221:
  9345  08A8  28AE               	goto	l13910
  9346  08A9                     u14220:
  9347                           	
  9348  08A9                     l13908:	
  9349  08A9  083A               	movf	(DecToStr@minDigit),w
  9350  08AA  00BB               	movwf	(??_DecToStr+0)+0
  9351  08AB  083B               	movf	(??_DecToStr+0)+0,w
  9352  08AC  00BE               	movwf	(DecToStr@len)
  9353  08AD  28AE               	goto	l13910
  9354                           	
  9355  08AE                     l3961:	
  9356                           	line	109
  9357                           	
  9358  08AE                     l13910:	
  9359                           ;eeprom.c: 109: *(dest+len)=0;
  9360  08AE  083E               	movf	(DecToStr@len),w
  9361  08AF  0738               	addwf	(DecToStr@dest),w
  9362  08B0  00BB               	movwf	(??_DecToStr+0)+0
  9363  08B1  0839               	movf	(DecToStr@dest+1),w
  9364  08B2  1803               	skipnc
  9365  08B3  3E01               	addlw	1
  9366  08B4  00BC               	movwf	1+((??_DecToStr+0)+0)
  9367  08B5  083B               	movf	0+(??_DecToStr+0)+0,w
  9368  08B6  0084               	movwf	fsr0
  9369  08B7  1783               	bsf	status,7
  9370  08B8  1C3C               	btfss	1+(??_DecToStr+0)+0,0
  9371  08B9  1383               	bcf	status,7
  9372  08BA  0180               	clrf	indf
  9373                           	line	110
  9374                           	
  9375  08BB                     l13912:	
  9376                           ;eeprom.c: 110: len--;
  9377  08BB  3001               	movlw	low(01h)
  9378  08BC  02BE               	subwf	(DecToStr@len),f
  9379                           	line	111
  9380                           ;eeprom.c: 111: while(len!=0xFF)
  9381  08BD  2908               	goto	l13920
  9382                           	
  9383  08BE                     l3963:	
  9384                           	line	114
  9385                           	
  9386  08BE                     l13914:	
  9387                           ;eeprom.c: 112: {
  9388                           ;eeprom.c: 114: *(dest+len) = '0' + val%10;
  9389  08BE  3000               	movlw	0
  9390  08BF  00A3               	movwf	(?___llmod+3)
  9391  08C0  3000               	movlw	0
  9392  08C1  00A2               	movwf	(?___llmod+2)
  9393  08C2  3000               	movlw	0
  9394  08C3  00A1               	movwf	(?___llmod+1)
  9395  08C4  300A               	movlw	0Ah
  9396  08C5  00A0               	movwf	(?___llmod)
  9397                           
  9398  08C6  0837               	movf	(DecToStr@val+3),w
  9399  08C7  00A7               	movwf	3+(?___llmod)+04h
  9400  08C8  0836               	movf	(DecToStr@val+2),w
  9401  08C9  00A6               	movwf	2+(?___llmod)+04h
  9402  08CA  0835               	movf	(DecToStr@val+1),w
  9403  08CB  00A5               	movwf	1+(?___llmod)+04h
  9404  08CC  0834               	movf	(DecToStr@val),w
  9405  08CD  00A4               	movwf	0+(?___llmod)+04h
  9406                           
  9407  08CE  160A  118A  2598   	fcall	___llmod
              120A  158A         
  9408  08D3  1283               	bcf	status, 5	;RP0=0, select bank0
  9409  08D4  1303               	bcf	status, 6	;RP1=0, select bank0
  9410  08D5  0820               	movf	0+(((0+(?___llmod)))),w
  9411  08D6  3E30               	addlw	030h
  9412  08D7  00BB               	movwf	(??_DecToStr+0)+0
  9413  08D8  083E               	movf	(DecToStr@len),w
  9414  08D9  0738               	addwf	(DecToStr@dest),w
  9415  08DA  00BC               	movwf	(??_DecToStr+1)+0
  9416  08DB  0839               	movf	(DecToStr@dest+1),w
  9417  08DC  1803               	skipnc
  9418  08DD  3E01               	addlw	1
  9419  08DE  00BD               	movwf	1+((??_DecToStr+1)+0)
  9420  08DF  083C               	movf	0+(??_DecToStr+1)+0,w
  9421  08E0  0084               	movwf	fsr0
  9422  08E1  1783               	bsf	status,7
  9423  08E2  1C3D               	btfss	1+(??_DecToStr+1)+0,0
  9424  08E3  1383               	bcf	status,7
  9425  08E4  083B               	movf	(??_DecToStr+0)+0,w
  9426  08E5  0080               	movwf	indf
  9427                           	line	117
  9428                           	
  9429  08E6                     l13916:	
  9430                           ;eeprom.c: 117: len--;
  9431  08E6  3001               	movlw	low(01h)
  9432  08E7  02BE               	subwf	(DecToStr@len),f
  9433                           	line	118
  9434                           	
  9435  08E8                     l13918:	
  9436                           ;eeprom.c: 118: val=val/10;
  9437  08E8  3000               	movlw	0
  9438  08E9  00A3               	movwf	(?___lldiv+3)
  9439  08EA  3000               	movlw	0
  9440  08EB  00A2               	movwf	(?___lldiv+2)
  9441  08EC  3000               	movlw	0
  9442  08ED  00A1               	movwf	(?___lldiv+1)
  9443  08EE  300A               	movlw	0Ah
  9444  08EF  00A0               	movwf	(?___lldiv)
  9445                           
  9446  08F0  0837               	movf	(DecToStr@val+3),w
  9447  08F1  00A7               	movwf	3+(?___lldiv)+04h
  9448  08F2  0836               	movf	(DecToStr@val+2),w
  9449  08F3  00A6               	movwf	2+(?___lldiv)+04h
  9450  08F4  0835               	movf	(DecToStr@val+1),w
  9451  08F5  00A5               	movwf	1+(?___lldiv)+04h
  9452  08F6  0834               	movf	(DecToStr@val),w
  9453  08F7  00A4               	movwf	0+(?___lldiv)+04h
  9454                           
  9455  08F8  160A  118A  2790   	fcall	___lldiv
              120A  158A         
  9456  08FD  1283               	bcf	status, 5	;RP0=0, select bank0
  9457  08FE  1303               	bcf	status, 6	;RP1=0, select bank0
  9458  08FF  0823               	movf	(3+(?___lldiv)),w
  9459  0900  00B7               	movwf	(DecToStr@val+3)
  9460  0901  0822               	movf	(2+(?___lldiv)),w
  9461  0902  00B6               	movwf	(DecToStr@val+2)
  9462  0903  0821               	movf	(1+(?___lldiv)),w
  9463  0904  00B5               	movwf	(DecToStr@val+1)
  9464  0905  0820               	movf	(0+(?___lldiv)),w
  9465  0906  00B4               	movwf	(DecToStr@val)
  9466                           
  9467  0907  2908               	goto	l13920
  9468                           	line	119
  9469                           	
  9470  0908                     l3962:	
  9471                           	line	111
  9472                           	
  9473  0908                     l13920:	
  9474  0908  083E               	movf	(DecToStr@len),w
  9475  0909  3AFF               	xorlw	0FFh
  9476  090A  1D03               	skipz
  9477  090B  290D               	goto	u14231
  9478  090C  290E               	goto	u14230
  9479  090D                     u14231:
  9480  090D  28BE               	goto	l13914
  9481  090E                     u14230:
  9482  090E  290F               	goto	l3965
  9483                           	
  9484  090F                     l3964:	
  9485                           	line	120
  9486                           	
  9487  090F                     l3965:	
  9488  090F  0008               	return
  9489                           	opt stack 0
  9490                           GLOBAL	__end_of_DecToStr
  9491  0910                     	__end_of_DecToStr:
  9492 ;; =============== function _DecToStr ends ============
  9493                           
  9494                           	signat	_DecToStr,12408
  9495                           	global	_UploadLcdBuffer
  9496                           psect	text4258,local,class=CODE,delta=2
  9497                           global __ptext4258
  9498  16B8                     __ptext4258:
  9499                           
  9500 ;; *************** function _UploadLcdBuffer *****************
  9501 ;; Defined at:
  9502 ;;		line 26 in file "C:\Users\GauravLT\Desktop\Finger Print Sensor\R307\PIC16F877A_R307\lcd.c"
  9503 ;; Parameters:    Size  Location     Type
  9504 ;;		None
  9505 ;; Auto vars:     Size  Location     Type
  9506 ;;  j               1   10[BANK0 ] unsigned char 
  9507 ;;  i               1    9[BANK0 ] unsigned char 
  9508 ;; Return value:  Size  Location     Type
  9509 ;;		None               void
  9510 ;; Registers used:
  9511 ;;		wreg, fsr0l, fsr0h, status,2, status,0, pclath, cstack
  9512 ;; Tracked objects:
  9513 ;;		On entry : 0/0
  9514 ;;		On exit  : 0/0
  9515 ;;		Unchanged: 0/0
  9516 ;; Data sizes:     COMMON   BANK0   BANK1   BANK3   BANK2
  9517 ;;      Params:         0       0       0       0       0
  9518 ;;      Locals:         0       2       0       0       0
  9519 ;;      Temps:          0       4       0       0       0
  9520 ;;      Totals:         0       6       0       0       0
  9521 ;;Total ram usage:        6 bytes
  9522 ;; Hardware stack levels used:    1
  9523 ;; Hardware stack levels required when called:    4
  9524 ;; This function calls:
  9525 ;;		_SendByte
  9526 ;; This function is called by:
  9527 ;;		_LcdPrint
  9528 ;;		_LcdByte
  9529 ;; This function uses a non-reentrant model
  9530 ;;
  9531                           psect	text4258
  9532                           	file	"C:\Users\GauravLT\Desktop\Finger Print Sensor\R307\PIC16F877A_R307\lcd.c"
  9533                           	line	26
  9534                           	global	__size_of_UploadLcdBuffer
  9535  006B                     	__size_of_UploadLcdBuffer	equ	__end_of_UploadLcdBuffer-_UploadLcdBuffer
  9536                           	
  9537  16B8                     _UploadLcdBuffer:	
  9538                           	opt	stack 1
  9539                           ; Regs used in _UploadLcdBuffer: [wreg-fsr0h+status,2+status,0+pclath+cstack]
  9540                           	line	29
  9541                           	
  9542  16B8                     l13880:	
  9543                           ;lcd.c: 27: unsigned char i,j;
  9544                           ;lcd.c: 29: SendByte(Cmd, 0x01);
  9545  16B8  1283               	bcf	status, 5	;RP0=0, select bank0
  9546  16B9  1303               	bcf	status, 6	;RP1=0, select bank0
  9547  16BA  01A2               	clrf	(?_SendByte)
  9548  16BB  1403               	bsf	status,0
  9549  16BC  0DA2               	rlf	(?_SendByte),f
  9550  16BD  3000               	movlw	(0)
  9551  16BE  160A  118A  21FC   	fcall	_SendByte
              160A  118A         
  9552                           	line	30
  9553                           ;lcd.c: 30: SendByte(Cmd, 0x80);
  9554  16C3  3080               	movlw	(080h)
  9555  16C4  1283               	bcf	status, 5	;RP0=0, select bank0
  9556  16C5  1303               	bcf	status, 6	;RP1=0, select bank0
  9557  16C6  00A5               	movwf	(??_UploadLcdBuffer+0)+0
  9558  16C7  0825               	movf	(??_UploadLcdBuffer+0)+0,w
  9559  16C8  00A2               	movwf	(?_SendByte)
  9560  16C9  3000               	movlw	(0)
  9561  16CA  160A  118A  21FC   	fcall	_SendByte
              160A  118A         
  9562                           	line	31
  9563                           	
  9564  16CF                     l13882:	
  9565                           ;lcd.c: 31: for(i=0; i<2; i++)
  9566  16CF  1283               	bcf	status, 5	;RP0=0, select bank0
  9567  16D0  1303               	bcf	status, 6	;RP1=0, select bank0
  9568  16D1  01A9               	clrf	(UploadLcdBuffer@i)
  9569                           	
  9570  16D2                     l13884:	
  9571  16D2  3002               	movlw	(02h)
  9572  16D3  0229               	subwf	(UploadLcdBuffer@i),w
  9573  16D4  1C03               	skipc
  9574  16D5  2ED7               	goto	u14171
  9575  16D6  2ED8               	goto	u14170
  9576  16D7                     u14171:
  9577  16D7  2EDA               	goto	l698
  9578  16D8                     u14170:
  9579  16D8  2F22               	goto	l702
  9580                           	
  9581  16D9                     l13886:	
  9582  16D9  2F22               	goto	l702
  9583                           	line	32
  9584                           	
  9585  16DA                     l698:	
  9586                           	line	33
  9587                           ;lcd.c: 32: {
  9588                           ;lcd.c: 33: for(j=0; j<16; j++)
  9589  16DA  01AA               	clrf	(UploadLcdBuffer@j)
  9590                           	
  9591  16DB                     l13888:	
  9592  16DB  3010               	movlw	(010h)
  9593  16DC  022A               	subwf	(UploadLcdBuffer@j),w
  9594  16DD  1C03               	skipc
  9595  16DE  2EE0               	goto	u14181
  9596  16DF  2EE1               	goto	u14180
  9597  16E0                     u14181:
  9598  16E0  2EE3               	goto	l13892
  9599  16E1                     u14180:
  9600  16E1  2F0B               	goto	l13898
  9601                           	
  9602  16E2                     l13890:	
  9603  16E2  2F0B               	goto	l13898
  9604                           	line	34
  9605                           	
  9606  16E3                     l700:	
  9607                           	line	35
  9608                           	
  9609  16E3                     l13892:	
  9610                           ;lcd.c: 34: {
  9611                           ;lcd.c: 35: SendByte(Data, LcdBuffer[i][j]);
  9612  16E3  0829               	movf	(UploadLcdBuffer@i),w
  9613  16E4  00A5               	movwf	(??_UploadLcdBuffer+0)+0
  9614  16E5  3004               	movlw	04h
  9615  16E6                     u14195:
  9616  16E6  1003               	clrc
  9617  16E7  0DA5               	rlf	(??_UploadLcdBuffer+0)+0,f
  9618  16E8  3EFF               	addlw	-1
  9619  16E9  1D03               	skipz
  9620  16EA  2EE6               	goto	u14195
  9621  16EB  30A4               	movlw	(_LcdBuffer)&0ffh
  9622  16EC  0725               	addwf	0+(??_UploadLcdBuffer+0)+0,w
  9623  16ED  00A6               	movwf	(??_UploadLcdBuffer+1)+0
  9624  16EE  082A               	movf	(UploadLcdBuffer@j),w
  9625  16EF  0726               	addwf	0+(??_UploadLcdBuffer+1)+0,w
  9626  16F0  00A7               	movwf	(??_UploadLcdBuffer+2)+0
  9627  16F1  0827               	movf	0+(??_UploadLcdBuffer+2)+0,w
  9628  16F2  0084               	movwf	fsr0
  9629  16F3  1783               	bsf	status, 7	;select IRP bank3
  9630  16F4  0800               	movf	indf,w
  9631  16F5  00A8               	movwf	(??_UploadLcdBuffer+3)+0
  9632  16F6  0828               	movf	(??_UploadLcdBuffer+3)+0,w
  9633  16F7  00A2               	movwf	(?_SendByte)
  9634  16F8  3001               	movlw	(01h)
  9635  16F9  160A  118A  21FC   	fcall	_SendByte
              160A  118A         
  9636                           	line	33
  9637                           	
  9638  16FE                     l13894:	
  9639  16FE  3001               	movlw	(01h)
  9640  16FF  1283               	bcf	status, 5	;RP0=0, select bank0
  9641  1700  1303               	bcf	status, 6	;RP1=0, select bank0
  9642  1701  00A5               	movwf	(??_UploadLcdBuffer+0)+0
  9643  1702  0825               	movf	(??_UploadLcdBuffer+0)+0,w
  9644  1703  07AA               	addwf	(UploadLcdBuffer@j),f
  9645                           	
  9646  1704                     l13896:	
  9647  1704  3010               	movlw	(010h)
  9648  1705  022A               	subwf	(UploadLcdBuffer@j),w
  9649  1706  1C03               	skipc
  9650  1707  2F09               	goto	u14201
  9651  1708  2F0A               	goto	u14200
  9652  1709                     u14201:
  9653  1709  2EE3               	goto	l13892
  9654  170A                     u14200:
  9655  170A  2F0B               	goto	l13898
  9656                           	
  9657  170B                     l701:	
  9658                           	line	37
  9659                           	
  9660  170B                     l13898:	
  9661                           ;lcd.c: 36: }
  9662                           ;lcd.c: 37: SendByte(Cmd, 0xC0);
  9663  170B  30C0               	movlw	(0C0h)
  9664  170C  00A5               	movwf	(??_UploadLcdBuffer+0)+0
  9665  170D  0825               	movf	(??_UploadLcdBuffer+0)+0,w
  9666  170E  00A2               	movwf	(?_SendByte)
  9667  170F  3000               	movlw	(0)
  9668  1710  160A  118A  21FC   	fcall	_SendByte
              160A  118A         
  9669                           	line	31
  9670                           	
  9671  1715                     l13900:	
  9672  1715  3001               	movlw	(01h)
  9673  1716  1283               	bcf	status, 5	;RP0=0, select bank0
  9674  1717  1303               	bcf	status, 6	;RP1=0, select bank0
  9675  1718  00A5               	movwf	(??_UploadLcdBuffer+0)+0
  9676  1719  0825               	movf	(??_UploadLcdBuffer+0)+0,w
  9677  171A  07A9               	addwf	(UploadLcdBuffer@i),f
  9678                           	
  9679  171B                     l13902:	
  9680  171B  3002               	movlw	(02h)
  9681  171C  0229               	subwf	(UploadLcdBuffer@i),w
  9682  171D  1C03               	skipc
  9683  171E  2F20               	goto	u14211
  9684  171F  2F21               	goto	u14210
  9685  1720                     u14211:
  9686  1720  2EDA               	goto	l698
  9687  1721                     u14210:
  9688  1721  2F22               	goto	l702
  9689                           	
  9690  1722                     l699:	
  9691                           	line	39
  9692                           	
  9693  1722                     l702:	
  9694  1722  0008               	return
  9695                           	opt stack 0
  9696                           GLOBAL	__end_of_UploadLcdBuffer
  9697  1723                     	__end_of_UploadLcdBuffer:
  9698 ;; =============== function _UploadLcdBuffer ends ============
  9699                           
  9700                           	signat	_UploadLcdBuffer,88
  9701                           	global	_LcdClear
  9702                           psect	text4259,local,class=CODE,delta=2
  9703                           global __ptext4259
  9704  1032                     __ptext4259:
  9705                           
  9706 ;; *************** function _LcdClear *****************
  9707 ;; Defined at:
  9708 ;;		line 41 in file "C:\Users\GauravLT\Desktop\Finger Print Sensor\R307\PIC16F877A_R307\lcd.c"
  9709 ;; Parameters:    Size  Location     Type
  9710 ;;		None
  9711 ;; Auto vars:     Size  Location     Type
  9712 ;;		None
  9713 ;; Return value:  Size  Location     Type
  9714 ;;		None               void
  9715 ;; Registers used:
  9716 ;;		wreg, fsr0l, fsr0h, status,2, status,0, pclath, cstack
  9717 ;; Tracked objects:
  9718 ;;		On entry : 0/0
  9719 ;;		On exit  : 0/0
  9720 ;;		Unchanged: 0/0
  9721 ;; Data sizes:     COMMON   BANK0   BANK1   BANK3   BANK2
  9722 ;;      Params:         0       0       0       0       0
  9723 ;;      Locals:         0       0       0       0       0
  9724 ;;      Temps:          0       0       0       0       0
  9725 ;;      Totals:         0       0       0       0       0
  9726 ;;Total ram usage:        0 bytes
  9727 ;; Hardware stack levels used:    1
  9728 ;; Hardware stack levels required when called:    4
  9729 ;; This function calls:
  9730 ;;		_memset1
  9731 ;;		_SendByte
  9732 ;; This function is called by:
  9733 ;;		_LcdInit
  9734 ;;		_EraseAllUsersAfterAdminConfirm
  9735 ;;		_ControlAccess
  9736 ;;		_AlterAdminUser
  9737 ;;		_AddNewUserAfterAdminConfirm
  9738 ;;		_DeleteUserAfterAdminConfirm
  9739 ;;		_menu
  9740 ;; This function uses a non-reentrant model
  9741 ;;
  9742                           psect	text4259
  9743                           	file	"C:\Users\GauravLT\Desktop\Finger Print Sensor\R307\PIC16F877A_R307\lcd.c"
  9744                           	line	41
  9745                           	global	__size_of_LcdClear
  9746  001C                     	__size_of_LcdClear	equ	__end_of_LcdClear-_LcdClear
  9747                           	
  9748  1032                     _LcdClear:	
  9749                           	opt	stack 2
  9750                           ; Regs used in _LcdClear: [wreg-fsr0h+status,2+status,0+pclath+cstack]
  9751                           	line	42
  9752                           	
  9753  1032                     l13876:	
  9754                           ;lcd.c: 42: memset1((unsigned char *)&LcdBuffer, 0, sizeof(LcdBuffer));
  9755  1032  30A4               	movlw	(_LcdBuffer&0ffh)
  9756  1033  1283               	bcf	status, 5	;RP0=0, select bank0
  9757  1034  1303               	bcf	status, 6	;RP1=0, select bank0
  9758  1035  00A0               	movwf	(?_memset1)
  9759  1036  3001               	movlw	(0x3/2)
  9760  1037  00A1               	movwf	(?_memset1+1)
  9761  1038  01A2               	clrf	0+(?_memset1)+02h
  9762  1039  3020               	movlw	low(020h)
  9763  103A  00A3               	movwf	0+(?_memset1)+03h
  9764  103B  3000               	movlw	high(020h)
  9765  103C  00A4               	movwf	(0+(?_memset1)+03h)+1
  9766  103D  160A  118A  20D0   	fcall	_memset1
              160A  118A         
  9767                           	line	43
  9768                           	
  9769  1042                     l13878:	
  9770                           ;lcd.c: 43: SendByte(Cmd, 0x01);
  9771  1042  1283               	bcf	status, 5	;RP0=0, select bank0
  9772  1043  1303               	bcf	status, 6	;RP1=0, select bank0
  9773  1044  01A2               	clrf	(?_SendByte)
  9774  1045  1403               	bsf	status,0
  9775  1046  0DA2               	rlf	(?_SendByte),f
  9776  1047  3000               	movlw	(0)
  9777  1048  160A  118A  21FC   	fcall	_SendByte
              160A  118A         
  9778                           	line	44
  9779                           	
  9780  104D                     l705:	
  9781  104D  0008               	return
  9782                           	opt stack 0
  9783                           GLOBAL	__end_of_LcdClear
  9784  104E                     	__end_of_LcdClear:
  9785 ;; =============== function _LcdClear ends ============
  9786                           
  9787                           	signat	_LcdClear,88
  9788                           	global	_TotDigits
  9789                           psect	text4260,local,class=CODE,delta=2
  9790                           global __ptext4260
  9791  1194                     __ptext4260:
  9792                           
  9793 ;; *************** function _TotDigits *****************
  9794 ;; Defined at:
  9795 ;;		line 95 in file "C:\Users\GauravLT\Desktop\Finger Print Sensor\R307\PIC16F877A_R307\eeprom.c"
  9796 ;; Parameters:    Size  Location     Type
  9797 ;;  val             4   14[BANK0 ] unsigned long 
  9798 ;; Auto vars:     Size  Location     Type
  9799 ;;  result          1   19[BANK0 ] unsigned char 
  9800 ;; Return value:  Size  Location     Type
  9801 ;;                  1    wreg      unsigned char 
  9802 ;; Registers used:
  9803 ;;		wreg, status,2, status,0, pclath, cstack
  9804 ;; Tracked objects:
  9805 ;;		On entry : 0/0
  9806 ;;		On exit  : 0/0
  9807 ;;		Unchanged: 0/0
  9808 ;; Data sizes:     COMMON   BANK0   BANK1   BANK3   BANK2
  9809 ;;      Params:         0       4       0       0       0
  9810 ;;      Locals:         0       1       0       0       0
  9811 ;;      Temps:          0       1       0       0       0
  9812 ;;      Totals:         0       6       0       0       0
  9813 ;;Total ram usage:        6 bytes
  9814 ;; Hardware stack levels used:    1
  9815 ;; Hardware stack levels required when called:    3
  9816 ;; This function calls:
  9817 ;;		___lldiv
  9818 ;; This function is called by:
  9819 ;;		_DecToStr
  9820 ;; This function uses a non-reentrant model
  9821 ;;
  9822                           psect	text4260
  9823                           	file	"C:\Users\GauravLT\Desktop\Finger Print Sensor\R307\PIC16F877A_R307\eeprom.c"
  9824                           	line	95
  9825                           	global	__size_of_TotDigits
  9826  0034                     	__size_of_TotDigits	equ	__end_of_TotDigits-_TotDigits
  9827                           	
  9828  1194                     _TotDigits:	
  9829                           	opt	stack 2
  9830                           ; Regs used in _TotDigits: [wreg+status,2+status,0+pclath+cstack]
  9831                           	line	96
  9832                           	
  9833  1194                     l13864:	
  9834                           ;eeprom.c: 96: unsigned char result = 0;
  9835  1194  1283               	bcf	status, 5	;RP0=0, select bank0
  9836  1195  1303               	bcf	status, 6	;RP1=0, select bank0
  9837  1196  01B3               	clrf	(TotDigits@result)
  9838                           	line	97
  9839                           ;eeprom.c: 97: while(val!=0)
  9840  1197  29BC               	goto	l13870
  9841                           	
  9842  1198                     l3956:	
  9843                           	line	99
  9844                           	
  9845  1198                     l13866:	
  9846                           ;eeprom.c: 98: {
  9847                           ;eeprom.c: 99: val=val/10;
  9848  1198  3000               	movlw	0
  9849  1199  00A3               	movwf	(?___lldiv+3)
  9850  119A  3000               	movlw	0
  9851  119B  00A2               	movwf	(?___lldiv+2)
  9852  119C  3000               	movlw	0
  9853  119D  00A1               	movwf	(?___lldiv+1)
  9854  119E  300A               	movlw	0Ah
  9855  119F  00A0               	movwf	(?___lldiv)
  9856                           
  9857  11A0  0831               	movf	(TotDigits@val+3),w
  9858  11A1  00A7               	movwf	3+(?___lldiv)+04h
  9859  11A2  0830               	movf	(TotDigits@val+2),w
  9860  11A3  00A6               	movwf	2+(?___lldiv)+04h
  9861  11A4  082F               	movf	(TotDigits@val+1),w
  9862  11A5  00A5               	movwf	1+(?___lldiv)+04h
  9863  11A6  082E               	movf	(TotDigits@val),w
  9864  11A7  00A4               	movwf	0+(?___lldiv)+04h
  9865                           
  9866  11A8  160A  118A  2790   	fcall	___lldiv
              160A  118A         
  9867  11AD  1283               	bcf	status, 5	;RP0=0, select bank0
  9868  11AE  1303               	bcf	status, 6	;RP1=0, select bank0
  9869  11AF  0823               	movf	(3+(?___lldiv)),w
  9870  11B0  00B1               	movwf	(TotDigits@val+3)
  9871  11B1  0822               	movf	(2+(?___lldiv)),w
  9872  11B2  00B0               	movwf	(TotDigits@val+2)
  9873  11B3  0821               	movf	(1+(?___lldiv)),w
  9874  11B4  00AF               	movwf	(TotDigits@val+1)
  9875  11B5  0820               	movf	(0+(?___lldiv)),w
  9876  11B6  00AE               	movwf	(TotDigits@val)
  9877                           
  9878                           	line	100
  9879                           	
  9880  11B7                     l13868:	
  9881                           ;eeprom.c: 100: result++;
  9882  11B7  3001               	movlw	(01h)
  9883  11B8  00B2               	movwf	(??_TotDigits+0)+0
  9884  11B9  0832               	movf	(??_TotDigits+0)+0,w
  9885  11BA  07B3               	addwf	(TotDigits@result),f
  9886  11BB  29BC               	goto	l13870
  9887                           	line	101
  9888                           	
  9889  11BC                     l3955:	
  9890                           	line	97
  9891                           	
  9892  11BC                     l13870:	
  9893  11BC  0831               	movf	(TotDigits@val+3),w
  9894  11BD  0430               	iorwf	(TotDigits@val+2),w
  9895  11BE  042F               	iorwf	(TotDigits@val+1),w
  9896  11BF  042E               	iorwf	(TotDigits@val),w
  9897  11C0  1D03               	skipz
  9898  11C1  29C3               	goto	u14161
  9899  11C2  29C4               	goto	u14160
  9900  11C3                     u14161:
  9901  11C3  2998               	goto	l13866
  9902  11C4                     u14160:
  9903  11C4  29C5               	goto	l13872
  9904                           	
  9905  11C5                     l3957:	
  9906                           	line	102
  9907                           	
  9908  11C5                     l13872:	
  9909                           ;eeprom.c: 101: }
  9910                           ;eeprom.c: 102: return result;
  9911  11C5  0833               	movf	(TotDigits@result),w
  9912  11C6  29C7               	goto	l3958
  9913                           	
  9914  11C7                     l13874:	
  9915                           	line	103
  9916                           	
  9917  11C7                     l3958:	
  9918  11C7  0008               	return
  9919                           	opt stack 0
  9920                           GLOBAL	__end_of_TotDigits
  9921  11C8                     	__end_of_TotDigits:
  9922 ;; =============== function _TotDigits ends ============
  9923                           
  9924                           	signat	_TotDigits,4217
  9925                           	global	_reserveEElocation
  9926                           psect	text4261,local,class=CODE,delta=2
  9927                           global __ptext4261
  9928  1118                     __ptext4261:
  9929                           
  9930 ;; *************** function _reserveEElocation *****************
  9931 ;; Defined at:
  9932 ;;		line 28 in file "C:\Users\GauravLT\Desktop\Finger Print Sensor\R307\PIC16F877A_R307\eeprom.c"
  9933 ;; Parameters:    Size  Location     Type
  9934 ;;  loc             1    wreg     unsigned char 
  9935 ;; Auto vars:     Size  Location     Type
  9936 ;;  loc             1    6[BANK0 ] unsigned char 
  9937 ;; Return value:  Size  Location     Type
  9938 ;;		None               void
  9939 ;; Registers used:
  9940 ;;		wreg, status,2, status,0, pclath, cstack
  9941 ;; Tracked objects:
  9942 ;;		On entry : 0/0
  9943 ;;		On exit  : 0/0
  9944 ;;		Unchanged: 0/0
  9945 ;; Data sizes:     COMMON   BANK0   BANK1   BANK3   BANK2
  9946 ;;      Params:         0       0       0       0       0
  9947 ;;      Locals:         0       1       0       0       0
  9948 ;;      Temps:          0       1       0       0       0
  9949 ;;      Totals:         0       2       0       0       0
  9950 ;;Total ram usage:        2 bytes
  9951 ;; Hardware stack levels used:    1
  9952 ;; Hardware stack levels required when called:    3
  9953 ;; This function calls:
  9954 ;;		_ee_write
  9955 ;;		_ee_read
  9956 ;; This function is called by:
  9957 ;;		_AddNewUser
  9958 ;; This function uses a non-reentrant model
  9959 ;;
  9960                           psect	text4261
  9961                           	file	"C:\Users\GauravLT\Desktop\Finger Print Sensor\R307\PIC16F877A_R307\eeprom.c"
  9962                           	line	28
  9963                           	global	__size_of_reserveEElocation
  9964  0026                     	__size_of_reserveEElocation	equ	__end_of_reserveEElocation-_reserveEElocation
  9965                           	
  9966  1118                     _reserveEElocation:	
  9967                           	opt	stack 2
  9968                           ; Regs used in _reserveEElocation: [wreg+status,2+status,0+pclath+cstack]
  9969                           ;reserveEElocation@loc stored from wreg
  9970  1118  1283               	bcf	status, 5	;RP0=0, select bank0
  9971  1119  1303               	bcf	status, 6	;RP1=0, select bank0
  9972  111A  00A6               	movwf	(reserveEElocation@loc)
  9973                           	line	29
  9974                           	
  9975  111B                     l13858:	
  9976                           ;eeprom.c: 29: ee_write(loc, 0x01);
  9977  111B  01A3               	clrf	(?_ee_write)
  9978  111C  1403               	bsf	status,0
  9979  111D  0DA3               	rlf	(?_ee_write),f
  9980  111E  0826               	movf	(reserveEElocation@loc),w
  9981  111F  120A  118A  27D8   	fcall	_ee_write
              160A  118A         
  9982                           	line	30
  9983                           	
  9984  1124                     l13860:	
  9985                           ;eeprom.c: 30: if(loc != 0) ee_write(30, ee_read(30)+1);
  9986  1124  1283               	bcf	status, 5	;RP0=0, select bank0
  9987  1125  1303               	bcf	status, 6	;RP1=0, select bank0
  9988  1126  0826               	movf	(reserveEElocation@loc),w
  9989  1127  1D03               	skipz
  9990  1128  292A               	goto	u14150
  9991  1129  293D               	goto	l3916
  9992  112A                     u14150:
  9993                           	
  9994  112A                     l13862:	
  9995  112A  301E               	movlw	(01Eh)
  9996  112B  160A  118A  206D   	fcall	_ee_read
              160A  118A         
  9997  1130  3E01               	addlw	01h
  9998  1131  1283               	bcf	status, 5	;RP0=0, select bank0
  9999  1132  1303               	bcf	status, 6	;RP1=0, select bank0
 10000  1133  00A5               	movwf	(??_reserveEElocation+0)+0
 10001  1134  0825               	movf	(??_reserveEElocation+0)+0,w
 10002  1135  00A3               	movwf	(?_ee_write)
 10003  1136  301E               	movlw	(01Eh)
 10004  1137  120A  118A  27D8   	fcall	_ee_write
              160A  118A         
 10005  113C  293D               	goto	l3916
 10006                           	
 10007  113D                     l3915:	
 10008                           	line	31
 10009                           	
 10010  113D                     l3916:	
 10011  113D  0008               	return
 10012                           	opt stack 0
 10013                           GLOBAL	__end_of_reserveEElocation
 10014  113E                     	__end_of_reserveEElocation:
 10015 ;; =============== function _reserveEElocation ends ============
 10016                           
 10017                           	signat	_reserveEElocation,4216
 10018                           	global	_FillUpResponse
 10019                           psect	text4262,local,class=CODE,delta=2
 10020                           global __ptext4262
 10021  022F                     __ptext4262:
 10022                           
 10023 ;; *************** function _FillUpResponse *****************
 10024 ;; Defined at:
 10025 ;;		line 138 in file "C:\Users\GauravLT\Desktop\Finger Print Sensor\R307\PIC16F877A_R307\FingerPrintSensor_R307.c"
 10026 ;; Parameters:    Size  Location     Type
 10027 ;;  data            1    wreg     PTR unsigned char 
 10028 ;;		 -> AddUserC@dataOut(1), AddUserB@dataOut(1), AddUserA@dataOut(1), EraseAllUsers@dataOut(1), 
 10029 ;;		 -> HiSpeedScan@dataOut(5), MatchTemplate@dataOut(1), LoadFingerTemplate@dataOut(1), GenCharacterFileFromImage@dataO
       ut(1), 
 10030 ;;		 -> ScanForImage@dataOut(1), VerifyPswd@dataOut(1), DeleteUser@dataOut(1), 
 10031 ;;  confirmation    1   23[BANK0 ] PTR unsigned char 
 10032 ;;		 -> AddUserC@confirmationCode(1), AddUserB@confirmationCode(1), AddUserA@confirmationCode(1), EraseAllUsers@confirma
       tionCode(1), 
 10033 ;;		 -> HiSpeedScan@confirmationCode(1), MatchTemplate@confirmationCode(1), LoadFingerTemplate@confirmationCode(1), GenC
       haracterFileFromImage@confirmationCode(1), 
 10034 ;;		 -> ScanForImage@confirmationCode(1), VerifyPswd@confirmationCode(1), DeleteUser@confirmationCode(1), 
 10035 ;; Auto vars:     Size  Location     Type
 10036 ;;  data            1   32[BANK0 ] PTR unsigned char 
 10037 ;;		 -> AddUserC@dataOut(1), AddUserB@dataOut(1), AddUserA@dataOut(1), EraseAllUsers@dataOut(1), 
 10038 ;;		 -> HiSpeedScan@dataOut(5), MatchTemplate@dataOut(1), LoadFingerTemplate@dataOut(1), GenCharacterFileFromImage@dataO
       ut(1), 
 10039 ;;		 -> ScanForImage@dataOut(1), VerifyPswd@dataOut(1), DeleteUser@dataOut(1), 
 10040 ;;  _Response      12   45[BANK0 ] struct Response
 10041 ;;  wait            4   34[BANK0 ] unsigned long 
 10042 ;;  checkSumCalc    2   38[BANK0 ] unsigned int 
 10043 ;;  c               1   44[BANK0 ] unsigned char 
 10044 ;;  i               1   43[BANK0 ] unsigned char 
 10045 ;;  chkLength       1   42[BANK0 ] unsigned char 
 10046 ;;  respPtr         1   41[BANK0 ] PTR unsigned char 
 10047 ;;		 -> FillUpResponse@_Response(12), 
 10048 ;;  l               1   40[BANK0 ] unsigned char 
 10049 ;;  chkSumDigitC    1   33[BANK0 ] unsigned char 
 10050 ;; Return value:  Size  Location     Type
 10051 ;;                  1    wreg      unsigned char 
 10052 ;; Registers used:
 10053 ;;		wreg, fsr0l, fsr0h, status,2, status,0, pclath, cstack
 10054 ;; Tracked objects:
 10055 ;;		On entry : 0/0
 10056 ;;		On exit  : 0/0
 10057 ;;		Unchanged: 0/0
 10058 ;; Data sizes:     COMMON   BANK0   BANK1   BANK3   BANK2
 10059 ;;      Params:         0       1       0       0       0
 10060 ;;      Locals:         0      25       0       0       0
 10061 ;;      Temps:          0       8       0       0       0
 10062 ;;      Totals:         0      34       0       0       0
 10063 ;;Total ram usage:       34 bytes
 10064 ;; Hardware stack levels used:    1
 10065 ;; Hardware stack levels required when called:    3
 10066 ;; This function calls:
 10067 ;;		_memset1
 10068 ;;		_IsUartBytePending
 10069 ;;		_GetUartByte
 10070 ;;		_ToggleEndianFormat
 10071 ;; This function is called by:
 10072 ;;		_DeleteUser
 10073 ;;		_VerifyPswd
 10074 ;;		_ScanForImage
 10075 ;;		_GenCharacterFileFromImage
 10076 ;;		_HiSpeedScan
 10077 ;;		_EraseAllUsers
 10078 ;;		_AddUserA
 10079 ;;		_AddUserB
 10080 ;;		_AddUserC
 10081 ;;		_LoadFingerTemplate
 10082 ;;		_MatchTemplate
 10083 ;; This function uses a non-reentrant model
 10084 ;;
 10085                           psect	text4262
 10086                           	file	"C:\Users\GauravLT\Desktop\Finger Print Sensor\R307\PIC16F877A_R307\FingerPrintSen
                                 sor_R307.c"
 10087                           	line	138
 10088                           	global	__size_of_FillUpResponse
 10089  01FB                     	__size_of_FillUpResponse	equ	__end_of_FillUpResponse-_FillUpResponse
 10090                           	
 10091  022F                     _FillUpResponse:	
 10092                           	opt	stack 2
 10093                           ; Regs used in _FillUpResponse: [wreg-fsr0h+status,2+status,0+pclath+cstack]
 10094                           ;FillUpResponse@data stored from wreg
 10095                           	line	140
 10096  022F  1283               	bcf	status, 5	;RP0=0, select bank0
 10097  0230  1303               	bcf	status, 6	;RP1=0, select bank0
 10098  0231  00C0               	movwf	(FillUpResponse@data)
 10099                           	
 10100  0232                     l13768:	
 10101                           ;FingerPrintSensor_R307.c: 139: struct Response _Response;
 10102                           ;FingerPrintSensor_R307.c: 140: unsigned long wait=0xFFFFF;
 10103  0232  3000               	movlw	0
 10104  0233  00C5               	movwf	(FillUpResponse@wait+3)
 10105  0234  300F               	movlw	0Fh
 10106  0235  00C4               	movwf	(FillUpResponse@wait+2)
 10107  0236  30FF               	movlw	0FFh
 10108  0237  00C3               	movwf	(FillUpResponse@wait+1)
 10109  0238  30FF               	movlw	0FFh
 10110  0239  00C2               	movwf	(FillUpResponse@wait)
 10111                           
 10112                           	line	141
 10113                           	
 10114  023A                     l13770:	
 10115                           ;FingerPrintSensor_R307.c: 141: unsigned char i=0,c=0,l=0,chkSumDigitCount=0,chkLength=0
                                 ;
 10116  023A  01CB               	clrf	(FillUpResponse@i)
 10117                           	
 10118  023B                     l13772:	
 10119  023B  01CC               	clrf	(FillUpResponse@c)
 10120                           	
 10121  023C                     l13774:	
 10122  023C  01C8               	clrf	(FillUpResponse@l)
 10123                           	
 10124  023D                     l13776:	
 10125  023D  01C1               	clrf	(FillUpResponse@chkSumDigitCount)
 10126                           	
 10127  023E                     l13778:	
 10128  023E  01CA               	clrf	(FillUpResponse@chkLength)
 10129                           	line	142
 10130                           ;FingerPrintSensor_R307.c: 142: unsigned char *respPtr = (unsigned char*)&_Response;
 10131  023F  304D               	movlw	(FillUpResponse@_Response)&0ffh
 10132  0240  00B8               	movwf	(??_FillUpResponse+0)+0
 10133  0241  0838               	movf	(??_FillUpResponse+0)+0,w
 10134  0242  00C9               	movwf	(FillUpResponse@respPtr)
 10135                           	line	143
 10136                           	
 10137  0243                     l13780:	
 10138                           ;FingerPrintSensor_R307.c: 143: unsigned int checkSumCalculated=0;
 10139  0243  01C6               	clrf	(FillUpResponse@checkSumCalculated)
 10140  0244  01C7               	clrf	(FillUpResponse@checkSumCalculated+1)
 10141                           	line	147
 10142                           	
 10143  0245                     l13782:	
 10144                           ;FingerPrintSensor_R307.c: 147: memset1(respPtr, 0, sizeof(struct Response));
 10145  0245  0849               	movf	(FillUpResponse@respPtr),w
 10146  0246  00A0               	movwf	(?_memset1)
 10147  0247  3000               	movlw	(0x0/2)
 10148  0248  00A1               	movwf	(?_memset1+1)
 10149  0249  01A2               	clrf	0+(?_memset1)+02h
 10150  024A  300C               	movlw	low(0Ch)
 10151  024B  00A3               	movwf	0+(?_memset1)+03h
 10152  024C  3000               	movlw	high(0Ch)
 10153  024D  00A4               	movwf	(0+(?_memset1)+03h)+1
 10154  024E  160A  118A  20D0   	fcall	_memset1
              120A  118A         
 10155                           	line	148
 10156                           ;FingerPrintSensor_R307.c: 148: while(wait--)
 10157  0253  2BCB               	goto	l13842
 10158                           	
 10159  0254                     l3064:	
 10160                           	line	150
 10161                           	
 10162  0254                     l13784:	
 10163                           ;FingerPrintSensor_R307.c: 149: {
 10164                           ;FingerPrintSensor_R307.c: 150: if(IsUartBytePending())
 10165  0254  160A  158A  279F   	fcall	_IsUartBytePending
              120A  118A         
 10166  0259  3A00               	xorlw	0
 10167  025A  1903               	skipnz
 10168  025B  2A5D               	goto	u14011
 10169  025C  2A5E               	goto	u14010
 10170  025D                     u14011:
 10171  025D  2BCB               	goto	l13842
 10172  025E                     u14010:
 10173                           	line	152
 10174                           	
 10175  025E                     l13786:	
 10176                           ;FingerPrintSensor_R307.c: 151: {
 10177                           ;FingerPrintSensor_R307.c: 152: c = GetUartByte();
 10178  025E  120A  158A  2002   	fcall	_GetUartByte
              120A  118A         
 10179  0263  1283               	bcf	status, 5	;RP0=0, select bank0
 10180  0264  1303               	bcf	status, 6	;RP1=0, select bank0
 10181  0265  00B8               	movwf	(??_FillUpResponse+0)+0
 10182  0266  0838               	movf	(??_FillUpResponse+0)+0,w
 10183  0267  00CC               	movwf	(FillUpResponse@c)
 10184                           	line	153
 10185                           	
 10186  0268                     l13788:	
 10187                           ;FingerPrintSensor_R307.c: 153: wait=0xFFFFF;
 10188  0268  3000               	movlw	0
 10189  0269  00C5               	movwf	(FillUpResponse@wait+3)
 10190  026A  300F               	movlw	0Fh
 10191  026B  00C4               	movwf	(FillUpResponse@wait+2)
 10192  026C  30FF               	movlw	0FFh
 10193  026D  00C3               	movwf	(FillUpResponse@wait+1)
 10194  026E  30FF               	movlw	0FFh
 10195  026F  00C2               	movwf	(FillUpResponse@wait)
 10196                           
 10197                           	line	154
 10198                           	
 10199  0270                     l13790:	
 10200                           ;FingerPrintSensor_R307.c: 154: if(chkLength == 0)
 10201  0270  08CA               	movf	(FillUpResponse@chkLength),f
 10202  0271  1D03               	skipz
 10203  0272  2A74               	goto	u14021
 10204  0273  2A75               	goto	u14020
 10205  0274                     u14021:
 10206  0274  2A84               	goto	l13796
 10207  0275                     u14020:
 10208                           	line	156
 10209                           	
 10210  0275                     l13792:	
 10211                           ;FingerPrintSensor_R307.c: 155: {
 10212                           ;FingerPrintSensor_R307.c: 156: *(respPtr+i) = c;
 10213  0275  084C               	movf	(FillUpResponse@c),w
 10214  0276  00B8               	movwf	(??_FillUpResponse+0)+0
 10215  0277  084B               	movf	(FillUpResponse@i),w
 10216  0278  0749               	addwf	(FillUpResponse@respPtr),w
 10217  0279  00B9               	movwf	(??_FillUpResponse+1)+0
 10218  027A  0839               	movf	0+(??_FillUpResponse+1)+0,w
 10219  027B  0084               	movwf	fsr0
 10220  027C  0838               	movf	(??_FillUpResponse+0)+0,w
 10221  027D  1383               	bcf	status, 7	;select IRP bank0
 10222  027E  0080               	movwf	indf
 10223                           	line	157
 10224                           	
 10225  027F                     l13794:	
 10226                           ;FingerPrintSensor_R307.c: 157: i++;
 10227  027F  3001               	movlw	(01h)
 10228  0280  00B8               	movwf	(??_FillUpResponse+0)+0
 10229  0281  0838               	movf	(??_FillUpResponse+0)+0,w
 10230  0282  07CB               	addwf	(FillUpResponse@i),f
 10231                           	line	158
 10232                           ;FingerPrintSensor_R307.c: 158: }
 10233  0283  2AD3               	goto	l13814
 10234                           	line	159
 10235                           	
 10236  0284                     l3066:	
 10237                           	
 10238  0284                     l13796:	
 10239                           ;FingerPrintSensor_R307.c: 159: else if(chkLength == 1 && l < (_Response._Response0.Leng
                                 th-3))
 10240  0284  084A               	movf	(FillUpResponse@chkLength),w
 10241  0285  3A01               	xorlw	01h
 10242  0286  1D03               	skipz
 10243  0287  2A89               	goto	u14031
 10244  0288  2A8A               	goto	u14030
 10245  0289                     u14031:
 10246  0289  2AB7               	goto	l13806
 10247  028A                     u14030:
 10248                           	
 10249  028A                     l13798:	
 10250  028A  0854               	movf	0+(FillUpResponse@_Response)+07h,w
 10251  028B  3EFD               	addlw	low(0FFFDh)
 10252  028C  00B8               	movwf	(??_FillUpResponse+0)+0
 10253  028D  0855               	movf	1+(FillUpResponse@_Response)+07h,w
 10254  028E  1803               	skipnc
 10255  028F  3E01               	addlw	1
 10256  0290  3EFF               	addlw	high(0FFFDh)
 10257  0291  00B9               	movwf	1+(??_FillUpResponse+0)+0
 10258  0292  0848               	movf	(FillUpResponse@l),w
 10259  0293  00BA               	movwf	(??_FillUpResponse+2)+0
 10260  0294  01BB               	clrf	(??_FillUpResponse+2)+0+1
 10261  0295  0839               	movf	1+(??_FillUpResponse+0)+0,w
 10262  0296  023B               	subwf	1+(??_FillUpResponse+2)+0,w
 10263  0297  1D03               	skipz
 10264  0298  2A9B               	goto	u14045
 10265  0299  0838               	movf	0+(??_FillUpResponse+0)+0,w
 10266  029A  023A               	subwf	0+(??_FillUpResponse+2)+0,w
 10267  029B                     u14045:
 10268  029B  1803               	skipnc
 10269  029C  2A9E               	goto	u14041
 10270  029D  2A9F               	goto	u14040
 10271  029E                     u14041:
 10272  029E  2AB7               	goto	l13806
 10273  029F                     u14040:
 10274                           	line	161
 10275                           	
 10276  029F                     l13800:	
 10277                           ;FingerPrintSensor_R307.c: 160: {
 10278                           ;FingerPrintSensor_R307.c: 161: *(data+l) = c;
 10279  029F  084C               	movf	(FillUpResponse@c),w
 10280  02A0  00B8               	movwf	(??_FillUpResponse+0)+0
 10281  02A1  0848               	movf	(FillUpResponse@l),w
 10282  02A2  0740               	addwf	(FillUpResponse@data),w
 10283  02A3  00B9               	movwf	(??_FillUpResponse+1)+0
 10284  02A4  0839               	movf	0+(??_FillUpResponse+1)+0,w
 10285  02A5  0084               	movwf	fsr0
 10286  02A6  0838               	movf	(??_FillUpResponse+0)+0,w
 10287  02A7  1383               	bcf	status, 7	;select IRP bank0
 10288  02A8  0080               	movwf	indf
 10289                           	line	163
 10290                           	
 10291  02A9                     l13802:	
 10292                           ;FingerPrintSensor_R307.c: 163: l++;
 10293  02A9  3001               	movlw	(01h)
 10294  02AA  00B8               	movwf	(??_FillUpResponse+0)+0
 10295  02AB  0838               	movf	(??_FillUpResponse+0)+0,w
 10296  02AC  07C8               	addwf	(FillUpResponse@l),f
 10297                           	line	164
 10298                           	
 10299  02AD                     l13804:	
 10300                           ;FingerPrintSensor_R307.c: 164: checkSumCalculated += c;
 10301  02AD  084C               	movf	(FillUpResponse@c),w
 10302  02AE  00B8               	movwf	(??_FillUpResponse+0)+0
 10303  02AF  01B9               	clrf	(??_FillUpResponse+0)+0+1
 10304  02B0  0838               	movf	0+(??_FillUpResponse+0)+0,w
 10305  02B1  07C6               	addwf	(FillUpResponse@checkSumCalculated),f
 10306  02B2  1803               	skipnc
 10307  02B3  0AC7               	incf	(FillUpResponse@checkSumCalculated+1),f
 10308  02B4  0839               	movf	1+(??_FillUpResponse+0)+0,w
 10309  02B5  07C7               	addwf	(FillUpResponse@checkSumCalculated+1),f
 10310                           	line	165
 10311                           ;FingerPrintSensor_R307.c: 165: }
 10312  02B6  2AD3               	goto	l13814
 10313                           	line	166
 10314                           	
 10315  02B7                     l3068:	
 10316                           	line	168
 10317                           	
 10318  02B7                     l13806:	
 10319                           ;FingerPrintSensor_R307.c: 166: else
 10320                           ;FingerPrintSensor_R307.c: 167: {
 10321                           ;FingerPrintSensor_R307.c: 168: *(respPtr + i) = c;
 10322  02B7  084C               	movf	(FillUpResponse@c),w
 10323  02B8  00B8               	movwf	(??_FillUpResponse+0)+0
 10324  02B9  084B               	movf	(FillUpResponse@i),w
 10325  02BA  0749               	addwf	(FillUpResponse@respPtr),w
 10326  02BB  00B9               	movwf	(??_FillUpResponse+1)+0
 10327  02BC  0839               	movf	0+(??_FillUpResponse+1)+0,w
 10328  02BD  0084               	movwf	fsr0
 10329  02BE  0838               	movf	(??_FillUpResponse+0)+0,w
 10330  02BF  1383               	bcf	status, 7	;select IRP bank0
 10331  02C0  0080               	movwf	indf
 10332                           	line	169
 10333                           	
 10334  02C1                     l13808:	
 10335                           ;FingerPrintSensor_R307.c: 169: i++;
 10336  02C1  3001               	movlw	(01h)
 10337  02C2  00B8               	movwf	(??_FillUpResponse+0)+0
 10338  02C3  0838               	movf	(??_FillUpResponse+0)+0,w
 10339  02C4  07CB               	addwf	(FillUpResponse@i),f
 10340                           	line	170
 10341                           	
 10342  02C5                     l13810:	
 10343                           ;FingerPrintSensor_R307.c: 170: if(++chkSumDigitCount == 2)
 10344  02C5  3001               	movlw	(01h)
 10345  02C6  00B8               	movwf	(??_FillUpResponse+0)+0
 10346  02C7  0838               	movf	(??_FillUpResponse+0)+0,w
 10347  02C8  07C1               	addwf	(FillUpResponse@chkSumDigitCount),f
 10348  02C9  0841               	movf	((FillUpResponse@chkSumDigitCount)),w
 10349  02CA  3A02               	xorlw	02h
 10350  02CB  1D03               	skipz
 10351  02CC  2ACE               	goto	u14051
 10352  02CD  2ACF               	goto	u14050
 10353  02CE                     u14051:
 10354  02CE  2AD3               	goto	l13814
 10355  02CF                     u14050:
 10356  02CF  2BFC               	goto	l13844
 10357                           	line	172
 10358                           	
 10359  02D0                     l13812:	
 10360                           ;FingerPrintSensor_R307.c: 171: {
 10361                           ;FingerPrintSensor_R307.c: 172: break;
 10362  02D0  2BFC               	goto	l13844
 10363                           	line	173
 10364                           	
 10365  02D1                     l3070:	
 10366  02D1  2AD3               	goto	l13814
 10367                           	line	174
 10368                           	
 10369  02D2                     l3069:	
 10370  02D2  2AD3               	goto	l13814
 10371                           	
 10372  02D3                     l3067:	
 10373                           	line	175
 10374                           	
 10375  02D3                     l13814:	
 10376                           ;FingerPrintSensor_R307.c: 173: }
 10377                           ;FingerPrintSensor_R307.c: 174: }
 10378                           ;FingerPrintSensor_R307.c: 175: if(chkLength == 0 && i == sizeof(struct Response0))
 10379  02D3  08CA               	movf	(FillUpResponse@chkLength),f
 10380  02D4  1D03               	skipz
 10381  02D5  2AD7               	goto	u14061
 10382  02D6  2AD8               	goto	u14060
 10383  02D7                     u14061:
 10384  02D7  2BCB               	goto	l13842
 10385  02D8                     u14060:
 10386                           	
 10387  02D8                     l13816:	
 10388  02D8  084B               	movf	(FillUpResponse@i),w
 10389  02D9  3A0A               	xorlw	0Ah
 10390  02DA  1D03               	skipz
 10391  02DB  2ADD               	goto	u14071
 10392  02DC  2ADE               	goto	u14070
 10393  02DD                     u14071:
 10394  02DD  2BCB               	goto	l13842
 10395  02DE                     u14070:
 10396                           	line	177
 10397                           	
 10398  02DE                     l13818:	
 10399                           ;FingerPrintSensor_R307.c: 176: {
 10400                           ;FingerPrintSensor_R307.c: 177: _Response._Response0.Header = (unsigned int)ToggleEndian
                                 Format(_Response._Response0.Header, sizeof(_Response._Response0.Header));
 10401  02DE  084D               	movf	(FillUpResponse@_Response),w
 10402  02DF  00A0               	movwf	(?_ToggleEndianFormat)
 10403  02E0  084E               	movf	(FillUpResponse@_Response+1),w
 10404  02E1  00A1               	movwf	((?_ToggleEndianFormat))+1
 10405  02E2  01A2               	clrf	2+((?_ToggleEndianFormat))
 10406  02E3  01A3               	clrf	3+((?_ToggleEndianFormat))
 10407  02E4  3002               	movlw	(02h)
 10408  02E5  00B8               	movwf	(??_FillUpResponse+0)+0
 10409  02E6  0838               	movf	(??_FillUpResponse+0)+0,w
 10410  02E7  00A4               	movwf	0+(?_ToggleEndianFormat)+04h
 10411  02E8  120A  158A  2227   	fcall	_ToggleEndianFormat
              120A  118A         
 10412  02ED  1283               	bcf	status, 5	;RP0=0, select bank0
 10413  02EE  1303               	bcf	status, 6	;RP1=0, select bank0
 10414  02EF  0821               	movf	1+(((0+(?_ToggleEndianFormat)))),w
 10415  02F0  01CE               	clrf	(FillUpResponse@_Response+1)
 10416  02F1  07CE               	addwf	(FillUpResponse@_Response+1)
 10417  02F2  0820               	movf	0+(((0+(?_ToggleEndianFormat)))),w
 10418  02F3  01CD               	clrf	(FillUpResponse@_Response)
 10419  02F4  07CD               	addwf	(FillUpResponse@_Response)
 10420                           
 10421                           	line	178
 10422                           	
 10423  02F5                     l13820:	
 10424                           ;FingerPrintSensor_R307.c: 178: _Response._Response0.Address = (unsigned long)ToggleEndi
                                 anFormat(_Response._Response0.Address, sizeof(_Response._Response0.Address));
 10425  02F5  3002               	movlw	(02h)
 10426  02F6  3E4D               	addlw	FillUpResponse@_Response&0ffh
 10427  02F7  0084               	movwf	fsr0
 10428  02F8  1383               	bcf	status, 7	;select IRP bank0
 10429  02F9  0800               	movf	indf,w
 10430  02FA  00A0               	movwf	(?_ToggleEndianFormat)
 10431  02FB  0A84               	incf	fsr0,f
 10432  02FC  0800               	movf	indf,w
 10433  02FD  00A1               	movwf	(?_ToggleEndianFormat+1)
 10434  02FE  0A84               	incf	fsr0,f
 10435  02FF  0800               	movf	indf,w
 10436  0300  00A2               	movwf	(?_ToggleEndianFormat+2)
 10437  0301  0A84               	incf	fsr0,f
 10438  0302  0800               	movf	indf,w
 10439  0303  00A3               	movwf	(?_ToggleEndianFormat+3)
 10440  0304  3004               	movlw	(04h)
 10441  0305  00B8               	movwf	(??_FillUpResponse+0)+0
 10442  0306  0838               	movf	(??_FillUpResponse+0)+0,w
 10443  0307  00A4               	movwf	0+(?_ToggleEndianFormat)+04h
 10444  0308  120A  158A  2227   	fcall	_ToggleEndianFormat
              120A  118A         
 10445  030D  1283               	bcf	status, 5	;RP0=0, select bank0
 10446  030E  1303               	bcf	status, 6	;RP1=0, select bank0
 10447  030F  0823               	movf	(3+(?_ToggleEndianFormat)),w
 10448  0310  00D2               	movwf	3+(FillUpResponse@_Response)+02h
 10449  0311  0822               	movf	(2+(?_ToggleEndianFormat)),w
 10450  0312  00D1               	movwf	2+(FillUpResponse@_Response)+02h
 10451  0313  0821               	movf	(1+(?_ToggleEndianFormat)),w
 10452  0314  00D0               	movwf	1+(FillUpResponse@_Response)+02h
 10453  0315  0820               	movf	(0+(?_ToggleEndianFormat)),w
 10454  0316  00CF               	movwf	0+(FillUpResponse@_Response)+02h
 10455                           
 10456                           	line	179
 10457                           	
 10458  0317                     l13822:	
 10459                           ;FingerPrintSensor_R307.c: 179: _Response._Response0.Identifier = (unsigned char)ToggleE
                                 ndianFormat(_Response._Response0.Identifier, sizeof(_Response._Response0.Identifier));
 10460  0317  0853               	movf	0+(FillUpResponse@_Response)+06h,w
 10461  0318  00B8               	movwf	(??_FillUpResponse+0)+0
 10462  0319  01B9               	clrf	((??_FillUpResponse+0)+0+1)
 10463  031A  01BA               	clrf	((??_FillUpResponse+0)+0+2)
 10464  031B  01BB               	clrf	((??_FillUpResponse+0)+0+3)
 10465  031C  083B               	movf	3+(??_FillUpResponse+0)+0,w
 10466  031D  00A3               	movwf	(?_ToggleEndianFormat+3)
 10467  031E  083A               	movf	2+(??_FillUpResponse+0)+0,w
 10468  031F  00A2               	movwf	(?_ToggleEndianFormat+2)
 10469  0320  0839               	movf	1+(??_FillUpResponse+0)+0,w
 10470  0321  00A1               	movwf	(?_ToggleEndianFormat+1)
 10471  0322  0838               	movf	0+(??_FillUpResponse+0)+0,w
 10472  0323  00A0               	movwf	(?_ToggleEndianFormat)
 10473                           
 10474  0324  01A4               	clrf	0+(?_ToggleEndianFormat)+04h
 10475  0325  1403               	bsf	status,0
 10476  0326  0DA4               	rlf	0+(?_ToggleEndianFormat)+04h,f
 10477  0327  120A  158A  2227   	fcall	_ToggleEndianFormat
              120A  118A         
 10478  032C  1283               	bcf	status, 5	;RP0=0, select bank0
 10479  032D  1303               	bcf	status, 6	;RP1=0, select bank0
 10480  032E  0820               	movf	0+(((0+(?_ToggleEndianFormat)))),w
 10481  032F  00BC               	movwf	(??_FillUpResponse+4)+0
 10482  0330  083C               	movf	(??_FillUpResponse+4)+0,w
 10483  0331  00D3               	movwf	0+(FillUpResponse@_Response)+06h
 10484                           	line	180
 10485                           	
 10486  0332                     l13824:	
 10487                           ;FingerPrintSensor_R307.c: 180: _Response._Response0.Length = (unsigned int)ToggleEndian
                                 Format(_Response._Response0.Length, sizeof(_Response._Response0.Length));
 10488  0332  0854               	movf	0+(FillUpResponse@_Response)+07h,w
 10489  0333  00A0               	movwf	(?_ToggleEndianFormat)
 10490  0334  0855               	movf	1+(FillUpResponse@_Response)+07h,w
 10491  0335  00A1               	movwf	((?_ToggleEndianFormat))+1
 10492  0336  01A2               	clrf	2+((?_ToggleEndianFormat))
 10493  0337  01A3               	clrf	3+((?_ToggleEndianFormat))
 10494  0338  3002               	movlw	(02h)
 10495  0339  00B8               	movwf	(??_FillUpResponse+0)+0
 10496  033A  0838               	movf	(??_FillUpResponse+0)+0,w
 10497  033B  00A4               	movwf	0+(?_ToggleEndianFormat)+04h
 10498  033C  120A  158A  2227   	fcall	_ToggleEndianFormat
              120A  118A         
 10499  0341  1283               	bcf	status, 5	;RP0=0, select bank0
 10500  0342  1303               	bcf	status, 6	;RP1=0, select bank0
 10501  0343  0821               	movf	1+(((0+(?_ToggleEndianFormat)))),w
 10502  0344  01D5               	clrf	1+(FillUpResponse@_Response)+07h
 10503  0345  07D5               	addwf	1+(FillUpResponse@_Response)+07h
 10504  0346  0820               	movf	0+(((0+(?_ToggleEndianFormat)))),w
 10505  0347  01D4               	clrf	0+(FillUpResponse@_Response)+07h
 10506  0348  07D4               	addwf	0+(FillUpResponse@_Response)+07h
 10507                           
 10508                           	line	181
 10509                           	
 10510  0349                     l13826:	
 10511                           ;FingerPrintSensor_R307.c: 181: _Response._Response0.ConfirmationCode = (unsigned char)T
                                 oggleEndianFormat(_Response._Response0.ConfirmationCode, sizeof(_Response._Response0.Con
                                 firmationCode));
 10512  0349  0856               	movf	0+(FillUpResponse@_Response)+09h,w
 10513  034A  00B8               	movwf	(??_FillUpResponse+0)+0
 10514  034B  01B9               	clrf	((??_FillUpResponse+0)+0+1)
 10515  034C  01BA               	clrf	((??_FillUpResponse+0)+0+2)
 10516  034D  01BB               	clrf	((??_FillUpResponse+0)+0+3)
 10517  034E  083B               	movf	3+(??_FillUpResponse+0)+0,w
 10518  034F  00A3               	movwf	(?_ToggleEndianFormat+3)
 10519  0350  083A               	movf	2+(??_FillUpResponse+0)+0,w
 10520  0351  00A2               	movwf	(?_ToggleEndianFormat+2)
 10521  0352  0839               	movf	1+(??_FillUpResponse+0)+0,w
 10522  0353  00A1               	movwf	(?_ToggleEndianFormat+1)
 10523  0354  0838               	movf	0+(??_FillUpResponse+0)+0,w
 10524  0355  00A0               	movwf	(?_ToggleEndianFormat)
 10525                           
 10526  0356  01A4               	clrf	0+(?_ToggleEndianFormat)+04h
 10527  0357  1403               	bsf	status,0
 10528  0358  0DA4               	rlf	0+(?_ToggleEndianFormat)+04h,f
 10529  0359  120A  158A  2227   	fcall	_ToggleEndianFormat
              120A  118A         
 10530  035E  1283               	bcf	status, 5	;RP0=0, select bank0
 10531  035F  1303               	bcf	status, 6	;RP1=0, select bank0
 10532  0360  0820               	movf	0+(((0+(?_ToggleEndianFormat)))),w
 10533  0361  00BC               	movwf	(??_FillUpResponse+4)+0
 10534  0362  083C               	movf	(??_FillUpResponse+4)+0,w
 10535  0363  00D6               	movwf	0+(FillUpResponse@_Response)+09h
 10536                           	line	188
 10537                           	
 10538  0364                     l13828:	
 10539                           ;FingerPrintSensor_R307.c: 188: chkLength = 1;
 10540  0364  01CA               	clrf	(FillUpResponse@chkLength)
 10541  0365  1403               	bsf	status,0
 10542  0366  0DCA               	rlf	(FillUpResponse@chkLength),f
 10543                           	line	189
 10544                           	
 10545  0367                     l13830:	
 10546                           ;FingerPrintSensor_R307.c: 189: if(_Response._Response0.Header != 0xEF01 || _Response._R
                                 esponse0.Address != DefModuleAddress || _Response._Response0.Identifier != pAck)
 10547  0367  30EF               	movlw	high(0EF01h)
 10548  0368  064E               	xorwf	(FillUpResponse@_Response+1),w
 10549  0369  1D03               	skipz
 10550  036A  2B6D               	goto	u14085
 10551  036B  3001               	movlw	low(0EF01h)
 10552  036C  064D               	xorwf	(FillUpResponse@_Response),w
 10553  036D                     u14085:
 10554                           
 10555  036D  1D03               	skipz
 10556  036E  2B70               	goto	u14081
 10557  036F  2B71               	goto	u14080
 10558  0370                     u14081:
 10559  0370  2B9A               	goto	l13836
 10560  0371                     u14080:
 10561                           	
 10562  0371                     l13832:	
 10563  0371  1683               	bsf	status, 5	;RP0=1, select bank1
 10564  0372  1303               	bcf	status, 6	;RP1=0, select bank1
 10565  0373  0830               	movf	(_DefModuleAddress+3)^080h,w
 10566  0374  1283               	bcf	status, 5	;RP0=0, select bank0
 10567  0375  1303               	bcf	status, 6	;RP1=0, select bank0
 10568  0376  0652               	xorwf	3+(FillUpResponse@_Response)+02h,w
 10569  0377  1D03               	skipz
 10570  0378  2B8F               	goto	u14095
 10571  0379  1683               	bsf	status, 5	;RP0=1, select bank1
 10572  037A  1303               	bcf	status, 6	;RP1=0, select bank1
 10573  037B  082F               	movf	(_DefModuleAddress+2)^080h,w
 10574  037C  1283               	bcf	status, 5	;RP0=0, select bank0
 10575  037D  1303               	bcf	status, 6	;RP1=0, select bank0
 10576  037E  0651               	xorwf	2+(FillUpResponse@_Response)+02h,w
 10577  037F  1D03               	skipz
 10578  0380  2B8F               	goto	u14095
 10579  0381  1683               	bsf	status, 5	;RP0=1, select bank1
 10580  0382  1303               	bcf	status, 6	;RP1=0, select bank1
 10581  0383  082E               	movf	(_DefModuleAddress+1)^080h,w
 10582  0384  1283               	bcf	status, 5	;RP0=0, select bank0
 10583  0385  1303               	bcf	status, 6	;RP1=0, select bank0
 10584  0386  0650               	xorwf	1+(FillUpResponse@_Response)+02h,w
 10585  0387  1D03               	skipz
 10586  0388  2B8F               	goto	u14095
 10587  0389  1683               	bsf	status, 5	;RP0=1, select bank1
 10588  038A  1303               	bcf	status, 6	;RP1=0, select bank1
 10589  038B  082D               	movf	(_DefModuleAddress)^080h,w
 10590  038C  1283               	bcf	status, 5	;RP0=0, select bank0
 10591  038D  1303               	bcf	status, 6	;RP1=0, select bank0
 10592  038E  064F               	xorwf	0+(FillUpResponse@_Response)+02h,w
 10593  038F                     u14095:
 10594  038F  1D03               	skipz
 10595  0390  2B92               	goto	u14091
 10596  0391  2B93               	goto	u14090
 10597  0392                     u14091:
 10598  0392  2B9A               	goto	l13836
 10599  0393                     u14090:
 10600                           	
 10601  0393                     l13834:	
 10602  0393  0853               	movf	0+(FillUpResponse@_Response)+06h,w
 10603  0394  3A07               	xorlw	07h
 10604  0395  1903               	skipnz
 10605  0396  2B98               	goto	u14101
 10606  0397  2B99               	goto	u14100
 10607  0398                     u14101:
 10608  0398  2B9D               	goto	l13840
 10609  0399                     u14100:
 10610  0399  2B9A               	goto	l13836
 10611                           	
 10612  039A                     l3075:	
 10613                           	line	190
 10614                           	
 10615  039A                     l13836:	
 10616                           ;FingerPrintSensor_R307.c: 190: return 0;
 10617  039A  3000               	movlw	(0)
 10618  039B  2C29               	goto	l3076
 10619                           	
 10620  039C                     l13838:	
 10621  039C  2C29               	goto	l3076
 10622                           	
 10623  039D                     l3073:	
 10624                           	line	194
 10625                           	
 10626  039D                     l13840:	
 10627                           ;FingerPrintSensor_R307.c: 191: checkSumCalculated += (unsigned char)_Response._Response
                                 0.Identifier +
 10628                           ;FingerPrintSensor_R307.c: 192: (unsigned char)(_Response._Response0.Length >> 8) +
 10629                           ;FingerPrintSensor_R307.c: 193: (unsigned char)(_Response._Response0.Length & 0xFF) +
 10630                           ;FingerPrintSensor_R307.c: 194: (unsigned char)(_Response._Response0.ConfirmationCode);
 10631  039D  3007               	movlw	(07h)
 10632  039E  3E4D               	addlw	FillUpResponse@_Response&0ffh
 10633  039F  0084               	movwf	fsr0
 10634  03A0  1383               	bcf	status, 7	;select IRP bank0
 10635  03A1  0800               	movf	indf,w
 10636  03A2  00B8               	movwf	(??_FillUpResponse+0)+0+0
 10637  03A3  0A84               	incf	fsr0,f
 10638  03A4  0800               	movf	indf,w
 10639  03A5  00B9               	movwf	(??_FillUpResponse+0)+0+1
 10640  03A6  3008               	movlw	08h
 10641  03A7                     u14115:
 10642  03A7  1003               	clrc
 10643  03A8  0CB9               	rrf	(??_FillUpResponse+0)+1,f
 10644  03A9  0CB8               	rrf	(??_FillUpResponse+0)+0,f
 10645  03AA  3EFF               	addlw	-1
 10646  03AB  1D03               	skipz
 10647  03AC  2BA7               	goto	u14115
 10648  03AD  0853               	movf	0+(FillUpResponse@_Response)+06h,w
 10649  03AE  0738               	addwf	0+(??_FillUpResponse+0)+0,w
 10650  03AF  00BA               	movwf	(??_FillUpResponse+2)+0
 10651  03B0  01BB               	clrf	(??_FillUpResponse+2)+0+1
 10652  03B1  0DBB               	rlf	1+(??_FillUpResponse+2)+0,f
 10653                           	
 10654  03B2  0854               	movf	0+(FillUpResponse@_Response)+07h,w
 10655  03B3  073A               	addwf	0+(??_FillUpResponse+2)+0,w
 10656  03B4  00BC               	movwf	(??_FillUpResponse+4)+0
 10657  03B5  3000               	movlw	0
 10658  03B6  1803               	skipnc
 10659  03B7  3001               	movlw	1
 10660  03B8  073B               	addwf	1+(??_FillUpResponse+2)+0,w
 10661  03B9  00BD               	movwf	1+(??_FillUpResponse+4)+0
 10662  03BA  0856               	movf	0+(FillUpResponse@_Response)+09h,w
 10663  03BB  073C               	addwf	0+(??_FillUpResponse+4)+0,w
 10664  03BC  00BE               	movwf	(??_FillUpResponse+6)+0
 10665  03BD  3000               	movlw	0
 10666  03BE  1803               	skipnc
 10667  03BF  3001               	movlw	1
 10668  03C0  073D               	addwf	1+(??_FillUpResponse+4)+0,w
 10669  03C1  00BF               	movwf	1+(??_FillUpResponse+6)+0
 10670  03C2  083E               	movf	0+(??_FillUpResponse+6)+0,w
 10671  03C3  07C6               	addwf	(FillUpResponse@checkSumCalculated),f
 10672  03C4  1803               	skipnc
 10673  03C5  0AC7               	incf	(FillUpResponse@checkSumCalculated+1),f
 10674  03C6  083F               	movf	1+(??_FillUpResponse+6)+0,w
 10675  03C7  07C7               	addwf	(FillUpResponse@checkSumCalculated+1),f
 10676  03C8  2BCB               	goto	l13842
 10677                           	line	195
 10678                           	
 10679  03C9                     l3072:	
 10680  03C9  2BCB               	goto	l13842
 10681                           	line	196
 10682                           	
 10683  03CA                     l3065:	
 10684  03CA  2BCB               	goto	l13842
 10685                           	line	197
 10686                           	
 10687  03CB                     l3063:	
 10688                           	line	148
 10689                           	
 10690  03CB                     l13842:	
 10691  03CB  3001               	movlw	01h
 10692  03CC  1283               	bcf	status, 5	;RP0=0, select bank0
 10693  03CD  1303               	bcf	status, 6	;RP1=0, select bank0
 10694  03CE  00B8               	movwf	((??_FillUpResponse+0)+0)
 10695  03CF  3000               	movlw	0
 10696  03D0  00B9               	movwf	((??_FillUpResponse+0)+0+1)
 10697  03D1  3000               	movlw	0
 10698  03D2  00BA               	movwf	((??_FillUpResponse+0)+0+2)
 10699  03D3  3000               	movlw	0
 10700  03D4  00BB               	movwf	((??_FillUpResponse+0)+0+3)
 10701  03D5  0838               	movf	0+(??_FillUpResponse+0)+0,w
 10702  03D6  02C2               	subwf	(FillUpResponse@wait),f
 10703  03D7  0839               	movf	1+(??_FillUpResponse+0)+0,w
 10704  03D8  1C03               	skipc
 10705  03D9  0F39               	incfsz	1+(??_FillUpResponse+0)+0,w
 10706  03DA  2BDC               	goto	u14125
 10707  03DB  2BDD               	goto	u14126
 10708  03DC                     u14125:
 10709  03DC  02C3               	subwf	(FillUpResponse@wait+1),f
 10710  03DD                     u14126:
 10711  03DD  083A               	movf	2+(??_FillUpResponse+0)+0,w
 10712  03DE  1C03               	skipc
 10713  03DF  0F3A               	incfsz	2+(??_FillUpResponse+0)+0,w
 10714  03E0  2BE2               	goto	u14127
 10715  03E1  2BE3               	goto	u14128
 10716  03E2                     u14127:
 10717  03E2  02C4               	subwf	(FillUpResponse@wait+2),f
 10718  03E3                     u14128:
 10719  03E3  083B               	movf	3+(??_FillUpResponse+0)+0,w
 10720  03E4  1C03               	skipc
 10721  03E5  0F3B               	incfsz	3+(??_FillUpResponse+0)+0,w
 10722  03E6  2BE8               	goto	u14129
 10723  03E7  2BE9               	goto	u14120
 10724  03E8                     u14129:
 10725  03E8  02C5               	subwf	(FillUpResponse@wait+3),f
 10726  03E9                     u14120:
 10727                           
 10728  03E9  30FF               	movlw	0FFh
 10729  03EA  0645               	xorwf	((FillUpResponse@wait+3)),w
 10730  03EB  1D03               	skipz
 10731  03EC  2BF7               	goto	u14135
 10732  03ED  30FF               	movlw	0FFh
 10733  03EE  0644               	xorwf	((FillUpResponse@wait+2)),w
 10734  03EF  1D03               	skipz
 10735  03F0  2BF7               	goto	u14135
 10736  03F1  30FF               	movlw	0FFh
 10737  03F2  0643               	xorwf	((FillUpResponse@wait+1)),w
 10738  03F3  1D03               	skipz
 10739  03F4  2BF7               	goto	u14135
 10740  03F5  30FF               	movlw	0FFh
 10741  03F6  0642               	xorwf	((FillUpResponse@wait)),w
 10742  03F7                     u14135:
 10743  03F7  1D03               	skipz
 10744  03F8  2BFA               	goto	u14131
 10745  03F9  2BFB               	goto	u14130
 10746  03FA                     u14131:
 10747  03FA  2A54               	goto	l13784
 10748  03FB                     u14130:
 10749  03FB  2BFC               	goto	l13844
 10750                           	
 10751  03FC                     l3071:	
 10752                           	line	198
 10753                           	
 10754  03FC                     l13844:	
 10755                           ;FingerPrintSensor_R307.c: 195: }
 10756                           ;FingerPrintSensor_R307.c: 196: }
 10757                           ;FingerPrintSensor_R307.c: 197: }
 10758                           ;FingerPrintSensor_R307.c: 198: _Response.CheckSum0= (unsigned int)ToggleEndianFormat(_R
                                 esponse.CheckSum0, sizeof(_Response.CheckSum0));
 10759  03FC  0857               	movf	0+(FillUpResponse@_Response)+0Ah,w
 10760  03FD  00A0               	movwf	(?_ToggleEndianFormat)
 10761  03FE  0858               	movf	1+(FillUpResponse@_Response)+0Ah,w
 10762  03FF  00A1               	movwf	((?_ToggleEndianFormat))+1
 10763  0400  01A2               	clrf	2+((?_ToggleEndianFormat))
 10764  0401  01A3               	clrf	3+((?_ToggleEndianFormat))
 10765  0402  3002               	movlw	(02h)
 10766  0403  00B8               	movwf	(??_FillUpResponse+0)+0
 10767  0404  0838               	movf	(??_FillUpResponse+0)+0,w
 10768  0405  00A4               	movwf	0+(?_ToggleEndianFormat)+04h
 10769  0406  120A  158A  2227   	fcall	_ToggleEndianFormat
              120A  118A         
 10770  040B  1283               	bcf	status, 5	;RP0=0, select bank0
 10771  040C  1303               	bcf	status, 6	;RP1=0, select bank0
 10772  040D  0821               	movf	1+(((0+(?_ToggleEndianFormat)))),w
 10773  040E  01D8               	clrf	1+(FillUpResponse@_Response)+0Ah
 10774  040F  07D8               	addwf	1+(FillUpResponse@_Response)+0Ah
 10775  0410  0820               	movf	0+(((0+(?_ToggleEndianFormat)))),w
 10776  0411  01D7               	clrf	0+(FillUpResponse@_Response)+0Ah
 10777  0412  07D7               	addwf	0+(FillUpResponse@_Response)+0Ah
 10778                           
 10779                           	line	199
 10780                           	
 10781  0413                     l13846:	
 10782                           ;FingerPrintSensor_R307.c: 199: if(_Response.CheckSum0 == checkSumCalculated)
 10783  0413  0847               	movf	(FillUpResponse@checkSumCalculated+1),w
 10784  0414  0658               	xorwf	1+(FillUpResponse@_Response)+0Ah,w
 10785  0415  1D03               	skipz
 10786  0416  2C19               	goto	u14145
 10787  0417  0846               	movf	(FillUpResponse@checkSumCalculated),w
 10788  0418  0657               	xorwf	0+(FillUpResponse@_Response)+0Ah,w
 10789  0419                     u14145:
 10790                           
 10791  0419  1D03               	skipz
 10792  041A  2C1C               	goto	u14141
 10793  041B  2C1D               	goto	u14140
 10794  041C                     u14141:
 10795  041C  2C27               	goto	l13854
 10796  041D                     u14140:
 10797                           	line	201
 10798                           	
 10799  041D                     l13848:	
 10800                           ;FingerPrintSensor_R307.c: 200: {
 10801                           ;FingerPrintSensor_R307.c: 201: *confirmationCode = _Response._Response0.ConfirmationCod
                                 e;
 10802  041D  0856               	movf	0+(FillUpResponse@_Response)+09h,w
 10803  041E  00B8               	movwf	(??_FillUpResponse+0)+0
 10804  041F  0837               	movf	(FillUpResponse@confirmationCode),w
 10805  0420  0084               	movwf	fsr0
 10806  0421  0838               	movf	(??_FillUpResponse+0)+0,w
 10807  0422  1383               	bcf	status, 7	;select IRP bank0
 10808  0423  0080               	movwf	indf
 10809                           	line	202
 10810                           	
 10811  0424                     l13850:	
 10812                           ;FingerPrintSensor_R307.c: 202: return 1;
 10813  0424  3001               	movlw	(01h)
 10814  0425  2C29               	goto	l3076
 10815                           	
 10816  0426                     l13852:	
 10817  0426  2C29               	goto	l3076
 10818                           	line	203
 10819                           	
 10820  0427                     l3077:	
 10821                           	line	204
 10822                           	
 10823  0427                     l13854:	
 10824                           ;FingerPrintSensor_R307.c: 203: }
 10825                           ;FingerPrintSensor_R307.c: 204: return 0;
 10826  0427  3000               	movlw	(0)
 10827  0428  2C29               	goto	l3076
 10828                           	
 10829  0429                     l13856:	
 10830                           	line	205
 10831                           	
 10832  0429                     l3076:	
 10833  0429  0008               	return
 10834                           	opt stack 0
 10835                           GLOBAL	__end_of_FillUpResponse
 10836  042A                     	__end_of_FillUpResponse:
 10837 ;; =============== function _FillUpResponse ends ============
 10838                           
 10839                           	signat	_FillUpResponse,8313
 10840                           	global	_SendUartValue
 10841                           psect	text4263,local,class=CODE,delta=2
 10842                           global __ptext4263
 10843  144E                     __ptext4263:
 10844                           
 10845 ;; *************** function _SendUartValue *****************
 10846 ;; Defined at:
 10847 ;;		line 49 in file "C:\Users\GauravLT\Desktop\Finger Print Sensor\R307\PIC16F877A_R307\FingerPrintSensor_R307.c"
 10848 ;; Parameters:    Size  Location     Type
 10849 ;;  value           4    1[BANK0 ] unsigned long 
 10850 ;;  size            1    5[BANK0 ] unsigned char 
 10851 ;; Auto vars:     Size  Location     Type
 10852 ;;		None
 10853 ;; Return value:  Size  Location     Type
 10854 ;;		None               void
 10855 ;; Registers used:
 10856 ;;		wreg, status,2, status,0, pclath, cstack
 10857 ;; Tracked objects:
 10858 ;;		On entry : 0/0
 10859 ;;		On exit  : 0/0
 10860 ;;		Unchanged: 0/0
 10861 ;; Data sizes:     COMMON   BANK0   BANK1   BANK3   BANK2
 10862 ;;      Params:         0       5       0       0       0
 10863 ;;      Locals:         0       0       0       0       0
 10864 ;;      Temps:          0       5       0       0       0
 10865 ;;      Totals:         0      10       0       0       0
 10866 ;;Total ram usage:       10 bytes
 10867 ;; Hardware stack levels used:    1
 10868 ;; Hardware stack levels required when called:    3
 10869 ;; This function calls:
 10870 ;;		_SendUartByte
 10871 ;; This function is called by:
 10872 ;;		_sendPackage
 10873 ;; This function uses a non-reentrant model
 10874 ;;
 10875                           psect	text4263
 10876                           	file	"C:\Users\GauravLT\Desktop\Finger Print Sensor\R307\PIC16F877A_R307\FingerPrintSen
                                 sor_R307.c"
 10877                           	line	49
 10878                           	global	__size_of_SendUartValue
 10879  004E                     	__size_of_SendUartValue	equ	__end_of_SendUartValue-_SendUartValue
 10880                           	
 10881  144E                     _SendUartValue:	
 10882                           	opt	stack 1
 10883                           ; Regs used in _SendUartValue: [wreg+status,2+status,0+pclath+cstack]
 10884                           	line	50
 10885                           	
 10886  144E                     l13752:	
 10887                           ;FingerPrintSensor_R307.c: 50: for(;size>0;size--)
 10888  144E  1283               	bcf	status, 5	;RP0=0, select bank0
 10889  144F  1303               	bcf	status, 6	;RP1=0, select bank0
 10890  1450  08A5               	movf	(SendUartValue@size),f
 10891  1451  1D03               	skipz
 10892  1452  2C54               	goto	u13951
 10893  1453  2C55               	goto	u13950
 10894  1454                     u13951:
 10895  1454  2C57               	goto	l13756
 10896  1455                     u13950:
 10897  1455  2C9B               	goto	l3024
 10898                           	
 10899  1456                     l13754:	
 10900  1456  2C9B               	goto	l3024
 10901                           	line	51
 10902                           	
 10903  1457                     l3019:	
 10904                           	line	52
 10905                           	
 10906  1457                     l13756:	
 10907                           ;FingerPrintSensor_R307.c: 51: {
 10908                           ;FingerPrintSensor_R307.c: 52: if(size!=1) SendUartByte((unsigned char)(value >> 8*(size
                                 -1)));
 10909  1457  0825               	movf	(SendUartValue@size),w
 10910  1458  3A01               	xorlw	01h
 10911  1459  1903               	skipnz
 10912  145A  2C5C               	goto	u13961
 10913  145B  2C5D               	goto	u13960
 10914  145C                     u13961:
 10915  145C  2C81               	goto	l13760
 10916  145D                     u13960:
 10917                           	
 10918  145D                     l13758:	
 10919  145D  0821               	movf	(SendUartValue@value),w
 10920  145E  00A6               	movwf	(??_SendUartValue+0)+0
 10921  145F  0822               	movf	(SendUartValue@value+1),w
 10922  1460  00A7               	movwf	((??_SendUartValue+0)+0+1)
 10923  1461  0823               	movf	(SendUartValue@value+2),w
 10924  1462  00A8               	movwf	((??_SendUartValue+0)+0+2)
 10925  1463  0824               	movf	(SendUartValue@value+3),w
 10926  1464  00A9               	movwf	((??_SendUartValue+0)+0+3)
 10927  1465  0825               	movf	(SendUartValue@size),w
 10928  1466  00AA               	movwf	(??_SendUartValue+4)+0
 10929  1467  3002               	movlw	(03h)-1
 10930  1468                     u13975:
 10931  1468  1003               	clrc
 10932  1469  0DAA               	rlf	(??_SendUartValue+4)+0,f
 10933  146A  3EFF               	addlw	-1
 10934  146B  1D03               	skipz
 10935  146C  2C68               	goto	u13975
 10936  146D  1003               	clrc
 10937  146E  0D2A               	rlf	(??_SendUartValue+4)+0,w
 10938  146F  3EF8               	addlw	-8
 10939  1470  3E01               	addlw	1
 10940  1471  2C77               	goto	u13980
 10941  1472                     u13985:
 10942  1472  1003               	clrc
 10943  1473  0CA9               	rrf	(??_SendUartValue+0)+3,f
 10944  1474  0CA8               	rrf	(??_SendUartValue+0)+2,f
 10945  1475  0CA7               	rrf	(??_SendUartValue+0)+1,f
 10946  1476  0CA6               	rrf	(??_SendUartValue+0)+0,f
 10947  1477                     u13980:
 10948  1477  3EFF               	addlw	-1
 10949  1478  1D03               	skipz
 10950  1479  2C72               	goto	u13985
 10951  147A  0826               	movf	0+(??_SendUartValue+0)+0,w
 10952  147B  160A  158A  27A6   	fcall	_SendUartByte
              160A  118A         
 10953  1480  2C91               	goto	l13764
 10954                           	line	53
 10955                           	
 10956  1481                     l3021:	
 10957                           	
 10958  1481                     l13760:	
 10959                           ;FingerPrintSensor_R307.c: 53: else if(size==1) SendUartByte((unsigned char)(value & 0xF
                                 F));
 10960  1481  1283               	bcf	status, 5	;RP0=0, select bank0
 10961  1482  1303               	bcf	status, 6	;RP1=0, select bank0
 10962  1483  0825               	movf	(SendUartValue@size),w
 10963  1484  3A01               	xorlw	01h
 10964  1485  1D03               	skipz
 10965  1486  2C88               	goto	u13991
 10966  1487  2C89               	goto	u13990
 10967  1488                     u13991:
 10968  1488  2C91               	goto	l13764
 10969  1489                     u13990:
 10970                           	
 10971  1489                     l13762:	
 10972  1489  0821               	movf	(SendUartValue@value),w
 10973  148A  160A  158A  27A6   	fcall	_SendUartByte
              160A  118A         
 10974  148F  2C91               	goto	l13764
 10975                           	
 10976  1490                     l3023:	
 10977  1490  2C91               	goto	l13764
 10978                           	line	54
 10979                           	
 10980  1491                     l3022:	
 10981                           	line	50
 10982                           	
 10983  1491                     l13764:	
 10984  1491  3001               	movlw	low(01h)
 10985  1492  1283               	bcf	status, 5	;RP0=0, select bank0
 10986  1493  1303               	bcf	status, 6	;RP1=0, select bank0
 10987  1494  02A5               	subwf	(SendUartValue@size),f
 10988                           	
 10989  1495                     l13766:	
 10990  1495  08A5               	movf	(SendUartValue@size),f
 10991  1496  1D03               	skipz
 10992  1497  2C99               	goto	u14001
 10993  1498  2C9A               	goto	u14000
 10994  1499                     u14001:
 10995  1499  2C57               	goto	l13756
 10996  149A                     u14000:
 10997  149A  2C9B               	goto	l3024
 10998                           	
 10999  149B                     l3020:	
 11000                           	line	55
 11001                           	
 11002  149B                     l3024:	
 11003  149B  0008               	return
 11004                           	opt stack 0
 11005                           GLOBAL	__end_of_SendUartValue
 11006  149C                     	__end_of_SendUartValue:
 11007 ;; =============== function _SendUartValue ends ============
 11008                           
 11009                           	signat	_SendUartValue,8312
 11010                           	global	_PutKey
 11011                           psect	text4264,local,class=CODE,delta=2
 11012                           global __ptext4264
 11013  10F4                     __ptext4264:
 11014                           
 11015 ;; *************** function _PutKey *****************
 11016 ;; Defined at:
 11017 ;;		line 24 in file "C:\Users\GauravLT\Desktop\Finger Print Sensor\R307\PIC16F877A_R307\keypd.c"
 11018 ;; Parameters:    Size  Location     Type
 11019 ;;  key             1    wreg     unsigned char 
 11020 ;; Auto vars:     Size  Location     Type
 11021 ;;  key             1    3[BANK0 ] unsigned char 
 11022 ;; Return value:  Size  Location     Type
 11023 ;;		None               void
 11024 ;; Registers used:
 11025 ;;		wreg, fsr0l, fsr0h, status,2, status,0, pclath, cstack
 11026 ;; Tracked objects:
 11027 ;;		On entry : 0/0
 11028 ;;		On exit  : 0/0
 11029 ;;		Unchanged: 0/0
 11030 ;; Data sizes:     COMMON   BANK0   BANK1   BANK3   BANK2
 11031 ;;      Params:         0       0       0       0       0
 11032 ;;      Locals:         0       1       0       0       0
 11033 ;;      Temps:          0       1       0       0       0
 11034 ;;      Totals:         0       2       0       0       0
 11035 ;;Total ram usage:        2 bytes
 11036 ;; Hardware stack levels used:    1
 11037 ;; Hardware stack levels required when called:    3
 11038 ;; This function calls:
 11039 ;;		_LcdDelay
 11040 ;; This function is called by:
 11041 ;;		_KeyScan
 11042 ;; This function uses a non-reentrant model
 11043 ;;
 11044                           psect	text4264
 11045                           	file	"C:\Users\GauravLT\Desktop\Finger Print Sensor\R307\PIC16F877A_R307\keypd.c"
 11046                           	line	24
 11047                           	global	__size_of_PutKey
 11048  0024                     	__size_of_PutKey	equ	__end_of_PutKey-_PutKey
 11049                           	
 11050  10F4                     _PutKey:	
 11051                           	opt	stack 2
 11052                           ; Regs used in _PutKey: [wreg-fsr0h+status,2+status,0+pclath+cstack]
 11053                           ;PutKey@key stored from wreg
 11054  10F4  1283               	bcf	status, 5	;RP0=0, select bank0
 11055  10F5  1303               	bcf	status, 6	;RP1=0, select bank0
 11056  10F6  00A3               	movwf	(PutKey@key)
 11057                           	line	25
 11058                           	
 11059  10F7                     l13742:	
 11060                           ;keypd.c: 25: KeypdBuffer[IxPtr] = key;
 11061  10F7  0823               	movf	(PutKey@key),w
 11062  10F8  00A2               	movwf	(??_PutKey+0)+0
 11063  10F9  0876               	movf	(_IxPtr),w
 11064  10FA  3E90               	addlw	_KeypdBuffer&0ffh
 11065  10FB  0084               	movwf	fsr0
 11066  10FC  0822               	movf	(??_PutKey+0)+0,w
 11067  10FD  1783               	bsf	status, 7	;select IRP bank3
 11068  10FE  0080               	movwf	indf
 11069                           	line	26
 11070                           	
 11071  10FF                     l13744:	
 11072                           ;keypd.c: 26: if(++IxPtr == 20)
 11073  10FF  3001               	movlw	(01h)
 11074  1100  00A2               	movwf	(??_PutKey+0)+0
 11075  1101  0822               	movf	(??_PutKey+0)+0,w
 11076  1102  07F6               	addwf	(_IxPtr),f
 11077  1103  0876               	movf	((_IxPtr)),w
 11078  1104  3A14               	xorlw	014h
 11079  1105  1D03               	skipz
 11080  1106  2908               	goto	u13941
 11081  1107  2909               	goto	u13940
 11082  1108                     u13941:
 11083  1108  290A               	goto	l2271
 11084  1109                     u13940:
 11085                           	line	27
 11086                           	
 11087  1109                     l13746:	
 11088                           ;keypd.c: 27: IxPtr = 0;
 11089  1109  01F6               	clrf	(_IxPtr)
 11090                           	
 11091  110A                     l2271:	
 11092                           	line	28
 11093                           ;keypd.c: 28: RB5=1;
 11094  110A  1686               	bsf	(53/8),(53)&7
 11095                           	line	29
 11096                           	
 11097  110B                     l13748:	
 11098                           ;keypd.c: 29: LcdDelay(800);
 11099  110B  3020               	movlw	low(0320h)
 11100  110C  00A0               	movwf	(?_LcdDelay)
 11101  110D  3003               	movlw	high(0320h)
 11102  110E  00A1               	movwf	((?_LcdDelay))+1
 11103  110F  160A  158A  27D6   	fcall	_LcdDelay
              160A  118A         
 11104                           	line	30
 11105                           	
 11106  1114                     l13750:	
 11107                           ;keypd.c: 30: RB5=0;
 11108  1114  1283               	bcf	status, 5	;RP0=0, select bank0
 11109  1115  1303               	bcf	status, 6	;RP1=0, select bank0
 11110  1116  1286               	bcf	(53/8),(53)&7
 11111                           	line	33
 11112                           	
 11113  1117                     l2272:	
 11114  1117  0008               	return
 11115                           	opt stack 0
 11116                           GLOBAL	__end_of_PutKey
 11117  1118                     	__end_of_PutKey:
 11118 ;; =============== function _PutKey ends ============
 11119                           
 11120                           	signat	_PutKey,4216
 11121                           	global	_releaseEElocation
 11122                           psect	text4265,local,class=CODE,delta=2
 11123                           global __ptext4265
 11124  113E                     __ptext4265:
 11125                           
 11126 ;; *************** function _releaseEElocation *****************
 11127 ;; Defined at:
 11128 ;;		line 33 in file "C:\Users\GauravLT\Desktop\Finger Print Sensor\R307\PIC16F877A_R307\eeprom.c"
 11129 ;; Parameters:    Size  Location     Type
 11130 ;;  loc             1    wreg     unsigned char 
 11131 ;; Auto vars:     Size  Location     Type
 11132 ;;  loc             1    6[BANK0 ] unsigned char 
 11133 ;; Return value:  Size  Location     Type
 11134 ;;		None               void
 11135 ;; Registers used:
 11136 ;;		wreg, status,2, status,0, pclath, cstack
 11137 ;; Tracked objects:
 11138 ;;		On entry : 0/0
 11139 ;;		On exit  : 0/0
 11140 ;;		Unchanged: 0/0
 11141 ;; Data sizes:     COMMON   BANK0   BANK1   BANK3   BANK2
 11142 ;;      Params:         0       0       0       0       0
 11143 ;;      Locals:         0       1       0       0       0
 11144 ;;      Temps:          0       1       0       0       0
 11145 ;;      Totals:         0       2       0       0       0
 11146 ;;Total ram usage:        2 bytes
 11147 ;; Hardware stack levels used:    1
 11148 ;; Hardware stack levels required when called:    3
 11149 ;; This function calls:
 11150 ;;		_ee_write
 11151 ;;		_ee_read
 11152 ;; This function is called by:
 11153 ;;		_DeleteUserAfterAdminConfirm
 11154 ;; This function uses a non-reentrant model
 11155 ;;
 11156                           psect	text4265
 11157                           	file	"C:\Users\GauravLT\Desktop\Finger Print Sensor\R307\PIC16F877A_R307\eeprom.c"
 11158                           	global	__size_of_releaseEElocation
 11159  0027                     	__size_of_releaseEElocation	equ	__end_of_releaseEElocation-_releaseEElocation
 11160                           	
 11161  113E                     _releaseEElocation:	
 11162                           	opt	stack 3
 11163                           ; Regs used in _releaseEElocation: [wreg+status,2+status,0+pclath+cstack]
 11164                           ;releaseEElocation@loc stored from wreg
 11165  113E  1283               	bcf	status, 5	;RP0=0, select bank0
 11166  113F  1303               	bcf	status, 6	;RP1=0, select bank0
 11167  1140  00A6               	movwf	(releaseEElocation@loc)
 11168                           	line	34
 11169                           	
 11170  1141                     l13736:	
 11171                           ;eeprom.c: 34: ee_write(loc, 0xFF);
 11172  1141  30FF               	movlw	(0FFh)
 11173  1142  00A5               	movwf	(??_releaseEElocation+0)+0
 11174  1143  0825               	movf	(??_releaseEElocation+0)+0,w
 11175  1144  00A3               	movwf	(?_ee_write)
 11176  1145  0826               	movf	(releaseEElocation@loc),w
 11177  1146  120A  118A  27D8   	fcall	_ee_write
              160A  118A         
 11178                           	line	35
 11179                           	
 11180  114B                     l13738:	
 11181                           ;eeprom.c: 35: if(loc != 0) ee_write(30, ee_read(30)-1);
 11182  114B  1283               	bcf	status, 5	;RP0=0, select bank0
 11183  114C  1303               	bcf	status, 6	;RP1=0, select bank0
 11184  114D  0826               	movf	(releaseEElocation@loc),w
 11185  114E  1D03               	skipz
 11186  114F  2951               	goto	u13930
 11187  1150  2964               	goto	l3920
 11188  1151                     u13930:
 11189                           	
 11190  1151                     l13740:	
 11191  1151  301E               	movlw	(01Eh)
 11192  1152  160A  118A  206D   	fcall	_ee_read
              160A  118A         
 11193  1157  3EFF               	addlw	0FFh
 11194  1158  1283               	bcf	status, 5	;RP0=0, select bank0
 11195  1159  1303               	bcf	status, 6	;RP1=0, select bank0
 11196  115A  00A5               	movwf	(??_releaseEElocation+0)+0
 11197  115B  0825               	movf	(??_releaseEElocation+0)+0,w
 11198  115C  00A3               	movwf	(?_ee_write)
 11199  115D  301E               	movlw	(01Eh)
 11200  115E  120A  118A  27D8   	fcall	_ee_write
              160A  118A         
 11201  1163  2964               	goto	l3920
 11202                           	
 11203  1164                     l3919:	
 11204                           	line	36
 11205                           	
 11206  1164                     l3920:	
 11207  1164  0008               	return
 11208                           	opt stack 0
 11209                           GLOBAL	__end_of_releaseEElocation
 11210  1165                     	__end_of_releaseEElocation:
 11211 ;; =============== function _releaseEElocation ends ============
 11212                           
 11213                           	signat	_releaseEElocation,4216
 11214                           	global	_getNextAvailLocation
 11215                           psect	text4266,local,class=CODE,delta=2
 11216                           global __ptext4266
 11217  1231                     __ptext4266:
 11218                           
 11219 ;; *************** function _getNextAvailLocation *****************
 11220 ;; Defined at:
 11221 ;;		line 15 in file "C:\Users\GauravLT\Desktop\Finger Print Sensor\R307\PIC16F877A_R307\eeprom.c"
 11222 ;; Parameters:    Size  Location     Type
 11223 ;;		None
 11224 ;; Auto vars:     Size  Location     Type
 11225 ;;  result          1    4[BANK0 ] unsigned char 
 11226 ;;  i               1    5[BANK0 ] unsigned char 
 11227 ;; Return value:  Size  Location     Type
 11228 ;;                  1    wreg      char 
 11229 ;; Registers used:
 11230 ;;		wreg, status,2, status,0, pclath, cstack
 11231 ;; Tracked objects:
 11232 ;;		On entry : 0/0
 11233 ;;		On exit  : 0/0
 11234 ;;		Unchanged: 0/0
 11235 ;; Data sizes:     COMMON   BANK0   BANK1   BANK3   BANK2
 11236 ;;      Params:         0       0       0       0       0
 11237 ;;      Locals:         0       2       0       0       0
 11238 ;;      Temps:          0       1       0       0       0
 11239 ;;      Totals:         0       3       0       0       0
 11240 ;;Total ram usage:        3 bytes
 11241 ;; Hardware stack levels used:    1
 11242 ;; Hardware stack levels required when called:    3
 11243 ;; This function calls:
 11244 ;;		_ee_read
 11245 ;; This function is called by:
 11246 ;;		_AddNewUserAfterAdminConfirm
 11247 ;; This function uses a non-reentrant model
 11248 ;;
 11249                           psect	text4266
 11250                           	file	"C:\Users\GauravLT\Desktop\Finger Print Sensor\R307\PIC16F877A_R307\eeprom.c"
 11251                           	line	15
 11252                           	global	__size_of_getNextAvailLocation
 11253  0037                     	__size_of_getNextAvailLocation	equ	__end_of_getNextAvailLocation-_getNextAvailLocation
 11254                           	
 11255  1231                     _getNextAvailLocation:	
 11256                           	opt	stack 3
 11257                           ; Regs used in _getNextAvailLocation: [wreg+status,2+status,0+pclath+cstack]
 11258                           	line	16
 11259                           	
 11260  1231                     l13712:	
 11261                           ;eeprom.c: 16: if(ee_read(30) == 24) return -1;
 11262  1231  301E               	movlw	(01Eh)
 11263  1232  160A  118A  206D   	fcall	_ee_read
              160A  118A         
 11264  1237  3A18               	xorlw	018h
 11265  1238  1D03               	skipz
 11266  1239  2A3B               	goto	u13901
 11267  123A  2A3C               	goto	u13900
 11268  123B                     u13901:
 11269  123B  2A3F               	goto	l13718
 11270  123C                     u13900:
 11271                           	
 11272  123C                     l13714:	
 11273  123C  30FF               	movlw	(-1)
 11274  123D  2A67               	goto	l3908
 11275                           	
 11276  123E                     l13716:	
 11277  123E  2A67               	goto	l3908
 11278                           	
 11279  123F                     l3907:	
 11280                           	line	18
 11281                           	
 11282  123F                     l13718:	
 11283                           ;eeprom.c: 18: unsigned char i=1;
 11284  123F  1283               	bcf	status, 5	;RP0=0, select bank0
 11285  1240  1303               	bcf	status, 6	;RP1=0, select bank0
 11286  1241  01A5               	clrf	(getNextAvailLocation@i)
 11287  1242  1403               	bsf	status,0
 11288  1243  0DA5               	rlf	(getNextAvailLocation@i),f
 11289                           	line	19
 11290                           ;eeprom.c: 19: while(i<24)
 11291  1244  2A5E               	goto	l13730
 11292                           	
 11293  1245                     l3910:	
 11294                           	line	21
 11295                           	
 11296  1245                     l13720:	
 11297                           ;eeprom.c: 20: {
 11298                           ;eeprom.c: 21: unsigned char result = ee_read(i);
 11299  1245  0825               	movf	(getNextAvailLocation@i),w
 11300  1246  160A  118A  206D   	fcall	_ee_read
              160A  118A         
 11301  124B  1283               	bcf	status, 5	;RP0=0, select bank0
 11302  124C  1303               	bcf	status, 6	;RP1=0, select bank0
 11303  124D  00A3               	movwf	(??_getNextAvailLocation+0)+0
 11304  124E  0823               	movf	(??_getNextAvailLocation+0)+0,w
 11305  124F  00A4               	movwf	(getNextAvailLocation@result)
 11306                           	line	22
 11307                           	
 11308  1250                     l13722:	
 11309                           ;eeprom.c: 22: if(result == 0xFF) return i;
 11310  1250  0824               	movf	(getNextAvailLocation@result),w
 11311  1251  3AFF               	xorlw	0FFh
 11312  1252  1D03               	skipz
 11313  1253  2A55               	goto	u13911
 11314  1254  2A56               	goto	u13910
 11315  1255                     u13911:
 11316  1255  2A59               	goto	l13728
 11317  1256                     u13910:
 11318                           	
 11319  1256                     l13724:	
 11320  1256  0825               	movf	(getNextAvailLocation@i),w
 11321  1257  2A67               	goto	l3908
 11322                           	
 11323  1258                     l13726:	
 11324  1258  2A67               	goto	l3908
 11325                           	
 11326  1259                     l3911:	
 11327                           	line	23
 11328                           	
 11329  1259                     l13728:	
 11330                           ;eeprom.c: 23: i++;
 11331  1259  3001               	movlw	(01h)
 11332  125A  00A3               	movwf	(??_getNextAvailLocation+0)+0
 11333  125B  0823               	movf	(??_getNextAvailLocation+0)+0,w
 11334  125C  07A5               	addwf	(getNextAvailLocation@i),f
 11335  125D  2A5E               	goto	l13730
 11336                           	line	24
 11337                           	
 11338  125E                     l3909:	
 11339                           	line	19
 11340                           	
 11341  125E                     l13730:	
 11342  125E  3018               	movlw	(018h)
 11343  125F  0225               	subwf	(getNextAvailLocation@i),w
 11344  1260  1C03               	skipc
 11345  1261  2A63               	goto	u13921
 11346  1262  2A64               	goto	u13920
 11347  1263                     u13921:
 11348  1263  2A45               	goto	l13720
 11349  1264                     u13920:
 11350  1264  2A65               	goto	l13732
 11351                           	
 11352  1265                     l3912:	
 11353                           	line	25
 11354                           	
 11355  1265                     l13732:	
 11356                           ;eeprom.c: 24: }
 11357                           ;eeprom.c: 25: return -1;
 11358  1265  30FF               	movlw	(-1)
 11359  1266  2A67               	goto	l3908
 11360                           	
 11361  1267                     l13734:	
 11362                           	line	26
 11363                           	
 11364  1267                     l3908:	
 11365  1267  0008               	return
 11366                           	opt stack 0
 11367                           GLOBAL	__end_of_getNextAvailLocation
 11368  1268                     	__end_of_getNextAvailLocation:
 11369 ;; =============== function _getNextAvailLocation ends ============
 11370                           
 11371                           	signat	_getNextAvailLocation,89
 11372                           	global	_ee_eraseNPos
 11373                           psect	text4267,local,class=CODE,delta=2
 11374                           global __ptext4267
 11375  104E                     __ptext4267:
 11376                           
 11377 ;; *************** function _ee_eraseNPos *****************
 11378 ;; Defined at:
 11379 ;;		line 7 in file "C:\Users\GauravLT\Desktop\Finger Print Sensor\R307\PIC16F877A_R307\eeprom.c"
 11380 ;; Parameters:    Size  Location     Type
 11381 ;;  n               1    wreg     unsigned char 
 11382 ;; Auto vars:     Size  Location     Type
 11383 ;;  n               1    6[BANK0 ] unsigned char 
 11384 ;;  i               1    7[BANK0 ] unsigned char 
 11385 ;; Return value:  Size  Location     Type
 11386 ;;		None               void
 11387 ;; Registers used:
 11388 ;;		wreg, status,2, status,0, pclath, cstack
 11389 ;; Tracked objects:
 11390 ;;		On entry : 0/0
 11391 ;;		On exit  : 0/0
 11392 ;;		Unchanged: 0/0
 11393 ;; Data sizes:     COMMON   BANK0   BANK1   BANK3   BANK2
 11394 ;;      Params:         0       0       0       0       0
 11395 ;;      Locals:         0       2       0       0       0
 11396 ;;      Temps:          0       1       0       0       0
 11397 ;;      Totals:         0       3       0       0       0
 11398 ;;Total ram usage:        3 bytes
 11399 ;; Hardware stack levels used:    1
 11400 ;; Hardware stack levels required when called:    3
 11401 ;; This function calls:
 11402 ;;		_ee_write
 11403 ;; This function is called by:
 11404 ;;		_EraseAllUsersAfterAdminConfirm
 11405 ;; This function uses a non-reentrant model
 11406 ;;
 11407                           psect	text4267
 11408                           	file	"C:\Users\GauravLT\Desktop\Finger Print Sensor\R307\PIC16F877A_R307\eeprom.c"
 11409                           	line	7
 11410                           	global	__size_of_ee_eraseNPos
 11411  001F                     	__size_of_ee_eraseNPos	equ	__end_of_ee_eraseNPos-_ee_eraseNPos
 11412                           	
 11413  104E                     _ee_eraseNPos:	
 11414                           	opt	stack 3
 11415                           ; Regs used in _ee_eraseNPos: [wreg+status,2+status,0+pclath+cstack]
 11416                           ;ee_eraseNPos@n stored from wreg
 11417  104E  1283               	bcf	status, 5	;RP0=0, select bank0
 11418  104F  1303               	bcf	status, 6	;RP1=0, select bank0
 11419  1050  00A6               	movwf	(ee_eraseNPos@n)
 11420                           	line	8
 11421                           	
 11422  1051                     l13704:	
 11423                           ;eeprom.c: 8: unsigned char i=0;
 11424  1051  01A7               	clrf	(ee_eraseNPos@i)
 11425                           	line	9
 11426                           ;eeprom.c: 9: for(i=0;i<n;i++)
 11427  1052  01A7               	clrf	(ee_eraseNPos@i)
 11428  1053  2865               	goto	l13710
 11429                           	line	10
 11430                           	
 11431  1054                     l3902:	
 11432                           	line	11
 11433                           	
 11434  1054                     l13706:	
 11435                           ;eeprom.c: 10: {
 11436                           ;eeprom.c: 11: ee_write(i, 0xFF);
 11437  1054  30FF               	movlw	(0FFh)
 11438  1055  00A5               	movwf	(??_ee_eraseNPos+0)+0
 11439  1056  0825               	movf	(??_ee_eraseNPos+0)+0,w
 11440  1057  00A3               	movwf	(?_ee_write)
 11441  1058  0827               	movf	(ee_eraseNPos@i),w
 11442  1059  120A  118A  27D8   	fcall	_ee_write
              160A  118A         
 11443                           	line	9
 11444                           	
 11445  105E                     l13708:	
 11446  105E  3001               	movlw	(01h)
 11447  105F  1283               	bcf	status, 5	;RP0=0, select bank0
 11448  1060  1303               	bcf	status, 6	;RP1=0, select bank0
 11449  1061  00A5               	movwf	(??_ee_eraseNPos+0)+0
 11450  1062  0825               	movf	(??_ee_eraseNPos+0)+0,w
 11451  1063  07A7               	addwf	(ee_eraseNPos@i),f
 11452  1064  2865               	goto	l13710
 11453                           	
 11454  1065                     l3901:	
 11455                           	
 11456  1065                     l13710:	
 11457  1065  0826               	movf	(ee_eraseNPos@n),w
 11458  1066  0227               	subwf	(ee_eraseNPos@i),w
 11459  1067  1C03               	skipc
 11460  1068  286A               	goto	u13891
 11461  1069  286B               	goto	u13890
 11462  106A                     u13891:
 11463  106A  2854               	goto	l13706
 11464  106B                     u13890:
 11465  106B  286C               	goto	l3904
 11466                           	
 11467  106C                     l3903:	
 11468                           	line	13
 11469                           	
 11470  106C                     l3904:	
 11471  106C  0008               	return
 11472                           	opt stack 0
 11473                           GLOBAL	__end_of_ee_eraseNPos
 11474  106D                     	__end_of_ee_eraseNPos:
 11475 ;; =============== function _ee_eraseNPos ends ============
 11476                           
 11477                           	signat	_ee_eraseNPos,4216
 11478                           	global	_Delay
 11479                           psect	text4268,local,class=CODE,delta=2
 11480                           global __ptext4268
 11481  153F                     __ptext4268:
 11482                           
 11483 ;; *************** function _Delay *****************
 11484 ;; Defined at:
 11485 ;;		line 71 in file "C:\Users\GauravLT\Desktop\Finger Print Sensor\R307\PIC16F877A_R307\eeprom.c"
 11486 ;; Parameters:    Size  Location     Type
 11487 ;;  d               2   13[BANK0 ] unsigned int 
 11488 ;; Auto vars:     Size  Location     Type
 11489 ;;  dd              4   19[BANK0 ] unsigned long 
 11490 ;; Return value:  Size  Location     Type
 11491 ;;		None               void
 11492 ;; Registers used:
 11493 ;;		wreg, status,2, status,0, pclath, cstack
 11494 ;; Tracked objects:
 11495 ;;		On entry : 0/0
 11496 ;;		On exit  : 0/0
 11497 ;;		Unchanged: 0/0
 11498 ;; Data sizes:     COMMON   BANK0   BANK1   BANK3   BANK2
 11499 ;;      Params:         0       2       0       0       0
 11500 ;;      Locals:         0       4       0       0       0
 11501 ;;      Temps:          0       4       0       0       0
 11502 ;;      Totals:         0      10       0       0       0
 11503 ;;Total ram usage:       10 bytes
 11504 ;; Hardware stack levels used:    1
 11505 ;; Hardware stack levels required when called:    3
 11506 ;; This function calls:
 11507 ;;		___lmul
 11508 ;; This function is called by:
 11509 ;;		_EraseAllUsersAfterAdminConfirm
 11510 ;;		_ControlAccess
 11511 ;;		_AlterAdminUser
 11512 ;;		_AddNewUserAfterAdminConfirm
 11513 ;;		_DeleteUserAfterAdminConfirm
 11514 ;;		_main
 11515 ;; This function uses a non-reentrant model
 11516 ;;
 11517                           psect	text4268
 11518                           	file	"C:\Users\GauravLT\Desktop\Finger Print Sensor\R307\PIC16F877A_R307\eeprom.c"
 11519                           	line	71
 11520                           	global	__size_of_Delay
 11521  0059                     	__size_of_Delay	equ	__end_of_Delay-_Delay
 11522                           	
 11523  153F                     _Delay:	
 11524                           	opt	stack 3
 11525                           ; Regs used in _Delay: [wreg+status,2+status,0+pclath+cstack]
 11526                           	line	72
 11527                           	
 11528  153F                     l13698:	
 11529                           ;eeprom.c: 72: unsigned long dd=99999;
 11530  153F  3000               	movlw	0
 11531  1540  1283               	bcf	status, 5	;RP0=0, select bank0
 11532  1541  1303               	bcf	status, 6	;RP1=0, select bank0
 11533  1542  00B6               	movwf	(Delay@dd+3)
 11534  1543  3001               	movlw	01h
 11535  1544  00B5               	movwf	(Delay@dd+2)
 11536  1545  3086               	movlw	086h
 11537  1546  00B4               	movwf	(Delay@dd+1)
 11538  1547  309F               	movlw	09Fh
 11539  1548  00B3               	movwf	(Delay@dd)
 11540                           
 11541                           	line	73
 11542                           	
 11543  1549                     l13700:	
 11544                           ;eeprom.c: 73: dd=d*dd;
 11545  1549  082D               	movf	(Delay@d),w
 11546  154A  00A0               	movwf	(?___lmul)
 11547  154B  082E               	movf	(Delay@d+1),w
 11548  154C  00A1               	movwf	((?___lmul))+1
 11549  154D  01A2               	clrf	2+((?___lmul))
 11550  154E  01A3               	clrf	3+((?___lmul))
 11551  154F  0836               	movf	(Delay@dd+3),w
 11552  1550  00A7               	movwf	3+(?___lmul)+04h
 11553  1551  0835               	movf	(Delay@dd+2),w
 11554  1552  00A6               	movwf	2+(?___lmul)+04h
 11555  1553  0834               	movf	(Delay@dd+1),w
 11556  1554  00A5               	movwf	1+(?___lmul)+04h
 11557  1555  0833               	movf	(Delay@dd),w
 11558  1556  00A4               	movwf	0+(?___lmul)+04h
 11559                           
 11560  1557  160A  118A  23B6   	fcall	___lmul
              160A  118A         
 11561  155C  1283               	bcf	status, 5	;RP0=0, select bank0
 11562  155D  1303               	bcf	status, 6	;RP1=0, select bank0
 11563  155E  0823               	movf	(3+(?___lmul)),w
 11564  155F  00B6               	movwf	(Delay@dd+3)
 11565  1560  0822               	movf	(2+(?___lmul)),w
 11566  1561  00B5               	movwf	(Delay@dd+2)
 11567  1562  0821               	movf	(1+(?___lmul)),w
 11568  1563  00B4               	movwf	(Delay@dd+1)
 11569  1564  0820               	movf	(0+(?___lmul)),w
 11570  1565  00B3               	movwf	(Delay@dd)
 11571                           
 11572                           	line	74
 11573                           ;eeprom.c: 74: while(dd--);
 11574  1566  2D68               	goto	l13702
 11575                           	
 11576  1567                     l3938:	
 11577  1567  2D68               	goto	l13702
 11578                           	
 11579  1568                     l3937:	
 11580                           	
 11581  1568                     l13702:	
 11582  1568  3001               	movlw	01h
 11583  1569  00AF               	movwf	((??_Delay+0)+0)
 11584  156A  3000               	movlw	0
 11585  156B  00B0               	movwf	((??_Delay+0)+0+1)
 11586  156C  3000               	movlw	0
 11587  156D  00B1               	movwf	((??_Delay+0)+0+2)
 11588  156E  3000               	movlw	0
 11589  156F  00B2               	movwf	((??_Delay+0)+0+3)
 11590  1570  082F               	movf	0+(??_Delay+0)+0,w
 11591  1571  02B3               	subwf	(Delay@dd),f
 11592  1572  0830               	movf	1+(??_Delay+0)+0,w
 11593  1573  1C03               	skipc
 11594  1574  0F30               	incfsz	1+(??_Delay+0)+0,w
 11595  1575  2D77               	goto	u13875
 11596  1576  2D78               	goto	u13876
 11597  1577                     u13875:
 11598  1577  02B4               	subwf	(Delay@dd+1),f
 11599  1578                     u13876:
 11600  1578  0831               	movf	2+(??_Delay+0)+0,w
 11601  1579  1C03               	skipc
 11602  157A  0F31               	incfsz	2+(??_Delay+0)+0,w
 11603  157B  2D7D               	goto	u13877
 11604  157C  2D7E               	goto	u13878
 11605  157D                     u13877:
 11606  157D  02B5               	subwf	(Delay@dd+2),f
 11607  157E                     u13878:
 11608  157E  0832               	movf	3+(??_Delay+0)+0,w
 11609  157F  1C03               	skipc
 11610  1580  0F32               	incfsz	3+(??_Delay+0)+0,w
 11611  1581  2D83               	goto	u13879
 11612  1582  2D84               	goto	u13870
 11613  1583                     u13879:
 11614  1583  02B6               	subwf	(Delay@dd+3),f
 11615  1584                     u13870:
 11616                           
 11617  1584  30FF               	movlw	0FFh
 11618  1585  0636               	xorwf	((Delay@dd+3)),w
 11619  1586  1D03               	skipz
 11620  1587  2D92               	goto	u13885
 11621  1588  30FF               	movlw	0FFh
 11622  1589  0635               	xorwf	((Delay@dd+2)),w
 11623  158A  1D03               	skipz
 11624  158B  2D92               	goto	u13885
 11625  158C  30FF               	movlw	0FFh
 11626  158D  0634               	xorwf	((Delay@dd+1)),w
 11627  158E  1D03               	skipz
 11628  158F  2D92               	goto	u13885
 11629  1590  30FF               	movlw	0FFh
 11630  1591  0633               	xorwf	((Delay@dd)),w
 11631  1592                     u13885:
 11632  1592  1D03               	skipz
 11633  1593  2D95               	goto	u13881
 11634  1594  2D96               	goto	u13880
 11635  1595                     u13881:
 11636  1595  2D68               	goto	l13702
 11637  1596                     u13880:
 11638  1596  2D97               	goto	l3940
 11639                           	
 11640  1597                     l3939:	
 11641                           	line	75
 11642                           	
 11643  1597                     l3940:	
 11644  1597  0008               	return
 11645                           	opt stack 0
 11646                           GLOBAL	__end_of_Delay
 11647  1598                     	__end_of_Delay:
 11648 ;; =============== function _Delay ends ============
 11649                           
 11650                           	signat	_Delay,4216
 11651                           	global	_SendByte
 11652                           psect	text4269,local,class=CODE,delta=2
 11653                           global __ptext4269
 11654  11FC                     __ptext4269:
 11655                           
 11656 ;; *************** function _SendByte *****************
 11657 ;; Defined at:
 11658 ;;		line 77 in file "C:\Users\GauravLT\Desktop\Finger Print Sensor\R307\PIC16F877A_R307\lcd.c"
 11659 ;; Parameters:    Size  Location     Type
 11660 ;;  Mode            1    wreg     enum E1090
 11661 ;;  val             1    2[BANK0 ] unsigned char 
 11662 ;; Auto vars:     Size  Location     Type
 11663 ;;  Mode            1    4[BANK0 ] enum E1090
 11664 ;; Return value:  Size  Location     Type
 11665 ;;		None               void
 11666 ;; Registers used:
 11667 ;;		wreg, status,2, status,0, pclath, cstack
 11668 ;; Tracked objects:
 11669 ;;		On entry : 0/0
 11670 ;;		On exit  : 0/0
 11671 ;;		Unchanged: 0/0
 11672 ;; Data sizes:     COMMON   BANK0   BANK1   BANK3   BANK2
 11673 ;;      Params:         0       1       0       0       0
 11674 ;;      Locals:         0       1       0       0       0
 11675 ;;      Temps:          0       1       0       0       0
 11676 ;;      Totals:         0       3       0       0       0
 11677 ;;Total ram usage:        3 bytes
 11678 ;; Hardware stack levels used:    1
 11679 ;; Hardware stack levels required when called:    3
 11680 ;; This function calls:
 11681 ;;		_LcdDelay
 11682 ;; This function is called by:
 11683 ;;		_LcdInit
 11684 ;;		_UploadLcdBuffer
 11685 ;;		_LcdClear
 11686 ;; This function uses a non-reentrant model
 11687 ;;
 11688                           psect	text4269
 11689                           	file	"C:\Users\GauravLT\Desktop\Finger Print Sensor\R307\PIC16F877A_R307\lcd.c"
 11690                           	line	77
 11691                           	global	__size_of_SendByte
 11692  0035                     	__size_of_SendByte	equ	__end_of_SendByte-_SendByte
 11693                           	
 11694  11FC                     _SendByte:	
 11695                           	opt	stack 1
 11696                           ; Regs used in _SendByte: [wreg+status,2+status,0+pclath+cstack]
 11697                           ;SendByte@Mode stored from wreg
 11698  11FC  1283               	bcf	status, 5	;RP0=0, select bank0
 11699  11FD  1303               	bcf	status, 6	;RP1=0, select bank0
 11700  11FE  00A4               	movwf	(SendByte@Mode)
 11701                           	line	78
 11702                           	
 11703  11FF                     l13682:	
 11704                           ;lcd.c: 78: if(Mode == Data && val == 0) val = ' ';
 11705  11FF  0824               	movf	(SendByte@Mode),w
 11706  1200  3A01               	xorlw	01h
 11707  1201  1D03               	skipz
 11708  1202  2A04               	goto	u13831
 11709  1203  2A05               	goto	u13830
 11710  1204                     u13831:
 11711  1204  2A0E               	goto	l728
 11712  1205                     u13830:
 11713                           	
 11714  1205                     l13684:	
 11715  1205  08A2               	movf	(SendByte@val),f
 11716  1206  1D03               	skipz
 11717  1207  2A09               	goto	u13841
 11718  1208  2A0A               	goto	u13840
 11719  1209                     u13841:
 11720  1209  2A0E               	goto	l728
 11721  120A                     u13840:
 11722                           	
 11723  120A                     l13686:	
 11724  120A  3020               	movlw	(020h)
 11725  120B  00A3               	movwf	(??_SendByte+0)+0
 11726  120C  0823               	movf	(??_SendByte+0)+0,w
 11727  120D  00A2               	movwf	(SendByte@val)
 11728                           	
 11729  120E                     l728:	
 11730                           	line	79
 11731                           ;lcd.c: 79: PORTD = val;
 11732  120E  0822               	movf	(SendByte@val),w
 11733  120F  0088               	movwf	(8)	;volatile
 11734                           	line	81
 11735                           	
 11736  1210                     l13688:	
 11737                           ;lcd.c: 81: RB2 = Mode;
 11738  1210  1824               	btfsc	(SendByte@Mode),0
 11739  1211  2A13               	goto	u13851
 11740  1212  2A17               	goto	u13850
 11741                           	
 11742  1213                     u13851:
 11743  1213  1283               	bcf	status, 5	;RP0=0, select bank0
 11744  1214  1303               	bcf	status, 6	;RP1=0, select bank0
 11745  1215  1506               	bsf	(50/8),(50)&7
 11746  1216  2A1A               	goto	u13864
 11747  1217                     u13850:
 11748  1217  1283               	bcf	status, 5	;RP0=0, select bank0
 11749  1218  1303               	bcf	status, 6	;RP1=0, select bank0
 11750  1219  1106               	bcf	(50/8),(50)&7
 11751  121A                     u13864:
 11752                           	line	82
 11753                           	
 11754  121A                     l13690:	
 11755                           ;lcd.c: 82: RB3=0;
 11756  121A  1186               	bcf	(51/8),(51)&7
 11757                           	line	83
 11758                           	
 11759  121B                     l13692:	
 11760                           ;lcd.c: 83: LcdDelay(250);
 11761  121B  30FA               	movlw	low(0FAh)
 11762  121C  00A0               	movwf	(?_LcdDelay)
 11763  121D  3000               	movlw	high(0FAh)
 11764  121E  00A1               	movwf	((?_LcdDelay))+1
 11765  121F  160A  158A  27D6   	fcall	_LcdDelay
              160A  118A         
 11766                           	line	84
 11767                           	
 11768  1224                     l13694:	
 11769                           ;lcd.c: 84: RB3=1;
 11770  1224  1283               	bcf	status, 5	;RP0=0, select bank0
 11771  1225  1303               	bcf	status, 6	;RP1=0, select bank0
 11772  1226  1586               	bsf	(51/8),(51)&7
 11773                           	line	85
 11774                           	
 11775  1227                     l13696:	
 11776                           ;lcd.c: 85: LcdDelay(250);
 11777  1227  30FA               	movlw	low(0FAh)
 11778  1228  00A0               	movwf	(?_LcdDelay)
 11779  1229  3000               	movlw	high(0FAh)
 11780  122A  00A1               	movwf	((?_LcdDelay))+1
 11781  122B  160A  158A  27D6   	fcall	_LcdDelay
              160A  118A         
 11782                           	line	86
 11783                           	
 11784  1230                     l729:	
 11785  1230  0008               	return
 11786                           	opt stack 0
 11787                           GLOBAL	__end_of_SendByte
 11788  1231                     	__end_of_SendByte:
 11789 ;; =============== function _SendByte ends ============
 11790                           
 11791                           	signat	_SendByte,8312
 11792                           	global	___lldiv
 11793                           psect	text4270,local,class=CODE,delta=2
 11794                           global __ptext4270
 11795  1790                     __ptext4270:
 11796                           
 11797 ;; *************** function ___lldiv *****************
 11798 ;; Defined at:
 11799 ;;		line 5 in file "C:\Program Files (x86)\HI-TECH Software\PICC\9.83\sources\lldiv.c"
 11800 ;; Parameters:    Size  Location     Type
 11801 ;;  divisor         4    0[BANK0 ] unsigned long 
 11802 ;;  dividend        4    4[BANK0 ] unsigned long 
 11803 ;; Auto vars:     Size  Location     Type
 11804 ;;  quotient        4   10[BANK0 ] unsigned long 
 11805 ;;  counter         1    9[BANK0 ] unsigned char 
 11806 ;; Return value:  Size  Location     Type
 11807 ;;                  4    0[BANK0 ] unsigned long 
 11808 ;; Registers used:
 11809 ;;		wreg, status,2, status,0
 11810 ;; Tracked objects:
 11811 ;;		On entry : 0/0
 11812 ;;		On exit  : 0/0
 11813 ;;		Unchanged: 0/0
 11814 ;; Data sizes:     COMMON   BANK0   BANK1   BANK3   BANK2
 11815 ;;      Params:         0       8       0       0       0
 11816 ;;      Locals:         0       5       0       0       0
 11817 ;;      Temps:          0       1       0       0       0
 11818 ;;      Totals:         0      14       0       0       0
 11819 ;;Total ram usage:       14 bytes
 11820 ;; Hardware stack levels used:    1
 11821 ;; Hardware stack levels required when called:    2
 11822 ;; This function calls:
 11823 ;;		Nothing
 11824 ;; This function is called by:
 11825 ;;		_TotDigits
 11826 ;;		_DecToStr
 11827 ;; This function uses a non-reentrant model
 11828 ;;
 11829                           psect	text4270
 11830                           	file	"C:\Program Files (x86)\HI-TECH Software\PICC\9.83\sources\lldiv.c"
 11831                           	line	5
 11832                           	global	__size_of___lldiv
 11833  0070                     	__size_of___lldiv	equ	__end_of___lldiv-___lldiv
 11834                           	
 11835  1790                     ___lldiv:	
 11836                           	opt	stack 3
 11837                           ; Regs used in ___lldiv: [wreg+status,2+status,0]
 11838                           	line	9
 11839                           	
 11840  1790                     l13658:	
 11841  1790  3000               	movlw	0
 11842  1791  1283               	bcf	status, 5	;RP0=0, select bank0
 11843  1792  1303               	bcf	status, 6	;RP1=0, select bank0
 11844  1793  00AD               	movwf	(___lldiv@quotient+3)
 11845  1794  3000               	movlw	0
 11846  1795  00AC               	movwf	(___lldiv@quotient+2)
 11847  1796  3000               	movlw	0
 11848  1797  00AB               	movwf	(___lldiv@quotient+1)
 11849  1798  3000               	movlw	0
 11850  1799  00AA               	movwf	(___lldiv@quotient)
 11851                           
 11852                           	line	10
 11853  179A  0823               	movf	(___lldiv@divisor+3),w
 11854  179B  0422               	iorwf	(___lldiv@divisor+2),w
 11855  179C  0421               	iorwf	(___lldiv@divisor+1),w
 11856  179D  0420               	iorwf	(___lldiv@divisor),w
 11857  179E  1903               	skipnz
 11858  179F  2FA1               	goto	u13761
 11859  17A0  2FA2               	goto	u13760
 11860  17A1                     u13761:
 11861  17A1  2FF6               	goto	l13678
 11862  17A2                     u13760:
 11863                           	line	11
 11864                           	
 11865  17A2                     l13660:	
 11866  17A2  01A9               	clrf	(___lldiv@counter)
 11867  17A3  1403               	bsf	status,0
 11868  17A4  0DA9               	rlf	(___lldiv@counter),f
 11869                           	line	12
 11870  17A5  2FB4               	goto	l13664
 11871                           	
 11872  17A6                     l4822:	
 11873                           	line	13
 11874                           	
 11875  17A6                     l13662:	
 11876  17A6  3001               	movlw	01h
 11877  17A7  00A8               	movwf	(??___lldiv+0)+0
 11878  17A8                     u13775:
 11879  17A8  1003               	clrc
 11880  17A9  0DA0               	rlf	(___lldiv@divisor),f
 11881  17AA  0DA1               	rlf	(___lldiv@divisor+1),f
 11882  17AB  0DA2               	rlf	(___lldiv@divisor+2),f
 11883  17AC  0DA3               	rlf	(___lldiv@divisor+3),f
 11884  17AD  0BA8               	decfsz	(??___lldiv+0)+0
 11885  17AE  2FA8               	goto	u13775
 11886                           	line	14
 11887  17AF  3001               	movlw	(01h)
 11888  17B0  00A8               	movwf	(??___lldiv+0)+0
 11889  17B1  0828               	movf	(??___lldiv+0)+0,w
 11890  17B2  07A9               	addwf	(___lldiv@counter),f
 11891  17B3  2FB4               	goto	l13664
 11892                           	line	15
 11893                           	
 11894  17B4                     l4821:	
 11895                           	line	12
 11896                           	
 11897  17B4                     l13664:	
 11898  17B4  1FA3               	btfss	(___lldiv@divisor+3),(31)&7
 11899  17B5  2FB7               	goto	u13781
 11900  17B6  2FB8               	goto	u13780
 11901  17B7                     u13781:
 11902  17B7  2FA6               	goto	l13662
 11903  17B8                     u13780:
 11904  17B8  2FBA               	goto	l13666
 11905                           	
 11906  17B9                     l4823:	
 11907  17B9  2FBA               	goto	l13666
 11908                           	line	16
 11909                           	
 11910  17BA                     l4824:	
 11911                           	line	17
 11912                           	
 11913  17BA                     l13666:	
 11914  17BA  3001               	movlw	01h
 11915  17BB  00A8               	movwf	(??___lldiv+0)+0
 11916  17BC                     u13795:
 11917  17BC  1003               	clrc
 11918  17BD  0DAA               	rlf	(___lldiv@quotient),f
 11919  17BE  0DAB               	rlf	(___lldiv@quotient+1),f
 11920  17BF  0DAC               	rlf	(___lldiv@quotient+2),f
 11921  17C0  0DAD               	rlf	(___lldiv@quotient+3),f
 11922  17C1  0BA8               	decfsz	(??___lldiv+0)+0
 11923  17C2  2FBC               	goto	u13795
 11924                           	line	18
 11925                           	
 11926  17C3                     l13668:	
 11927  17C3  0823               	movf	(___lldiv@divisor+3),w
 11928  17C4  0227               	subwf	(___lldiv@dividend+3),w
 11929  17C5  1D03               	skipz
 11930  17C6  2FD1               	goto	u13805
 11931  17C7  0822               	movf	(___lldiv@divisor+2),w
 11932  17C8  0226               	subwf	(___lldiv@dividend+2),w
 11933  17C9  1D03               	skipz
 11934  17CA  2FD1               	goto	u13805
 11935  17CB  0821               	movf	(___lldiv@divisor+1),w
 11936  17CC  0225               	subwf	(___lldiv@dividend+1),w
 11937  17CD  1D03               	skipz
 11938  17CE  2FD1               	goto	u13805
 11939  17CF  0820               	movf	(___lldiv@divisor),w
 11940  17D0  0224               	subwf	(___lldiv@dividend),w
 11941  17D1                     u13805:
 11942  17D1  1C03               	skipc
 11943  17D2  2FD4               	goto	u13801
 11944  17D3  2FD5               	goto	u13800
 11945  17D4                     u13801:
 11946  17D4  2FE5               	goto	l13674
 11947  17D5                     u13800:
 11948                           	line	19
 11949                           	
 11950  17D5                     l13670:	
 11951  17D5  0820               	movf	(___lldiv@divisor),w
 11952  17D6  02A4               	subwf	(___lldiv@dividend),f
 11953  17D7  0821               	movf	(___lldiv@divisor+1),w
 11954  17D8  1C03               	skipc
 11955  17D9  0F21               	incfsz	(___lldiv@divisor+1),w
 11956  17DA  02A5               	subwf	(___lldiv@dividend+1),f
 11957  17DB  0822               	movf	(___lldiv@divisor+2),w
 11958  17DC  1C03               	skipc
 11959  17DD  0F22               	incfsz	(___lldiv@divisor+2),w
 11960  17DE  02A6               	subwf	(___lldiv@dividend+2),f
 11961  17DF  0823               	movf	(___lldiv@divisor+3),w
 11962  17E0  1C03               	skipc
 11963  17E1  0F23               	incfsz	(___lldiv@divisor+3),w
 11964  17E2  02A7               	subwf	(___lldiv@dividend+3),f
 11965                           	line	20
 11966                           	
 11967  17E3                     l13672:	
 11968  17E3  142A               	bsf	(___lldiv@quotient)+(0/8),(0)&7
 11969  17E4  2FE5               	goto	l13674
 11970                           	line	21
 11971                           	
 11972  17E5                     l4825:	
 11973                           	line	22
 11974                           	
 11975  17E5                     l13674:	
 11976  17E5  3001               	movlw	01h
 11977  17E6                     u13815:
 11978  17E6  1003               	clrc
 11979  17E7  0CA3               	rrf	(___lldiv@divisor+3),f
 11980  17E8  0CA2               	rrf	(___lldiv@divisor+2),f
 11981  17E9  0CA1               	rrf	(___lldiv@divisor+1),f
 11982  17EA  0CA0               	rrf	(___lldiv@divisor),f
 11983  17EB  3EFF               	addlw	-1
 11984  17EC  1D03               	skipz
 11985  17ED  2FE6               	goto	u13815
 11986                           
 11987                           	line	23
 11988                           	
 11989  17EE                     l13676:	
 11990  17EE  3001               	movlw	low(01h)
 11991  17EF  02A9               	subwf	(___lldiv@counter),f
 11992  17F0  1D03               	btfss	status,2
 11993  17F1  2FF3               	goto	u13821
 11994  17F2  2FF4               	goto	u13820
 11995  17F3                     u13821:
 11996  17F3  2FBA               	goto	l13666
 11997  17F4                     u13820:
 11998  17F4  2FF6               	goto	l13678
 11999                           	
 12000  17F5                     l4826:	
 12001  17F5  2FF6               	goto	l13678
 12002                           	line	24
 12003                           	
 12004  17F6                     l4820:	
 12005                           	line	25
 12006                           	
 12007  17F6                     l13678:	
 12008  17F6  082D               	movf	(___lldiv@quotient+3),w
 12009  17F7  00A3               	movwf	(?___lldiv+3)
 12010  17F8  082C               	movf	(___lldiv@quotient+2),w
 12011  17F9  00A2               	movwf	(?___lldiv+2)
 12012  17FA  082B               	movf	(___lldiv@quotient+1),w
 12013  17FB  00A1               	movwf	(?___lldiv+1)
 12014  17FC  082A               	movf	(___lldiv@quotient),w
 12015  17FD  00A0               	movwf	(?___lldiv)
 12016                           
 12017  17FE  2FFF               	goto	l4827
 12018                           	
 12019  17FF                     l13680:	
 12020                           	line	26
 12021                           	
 12022  17FF                     l4827:	
 12023  17FF  0008               	return
 12024                           	opt stack 0
 12025                           GLOBAL	__end_of___lldiv
 12026  1800                     	__end_of___lldiv:
 12027 ;; =============== function ___lldiv ends ============
 12028                           
 12029                           	signat	___lldiv,8316
 12030                           	global	___llmod
 12031                           psect	text4271,local,class=CODE,delta=2
 12032                           global __ptext4271
 12033  1598                     __ptext4271:
 12034                           
 12035 ;; *************** function ___llmod *****************
 12036 ;; Defined at:
 12037 ;;		line 5 in file "C:\Program Files (x86)\HI-TECH Software\PICC\9.83\sources\llmod.c"
 12038 ;; Parameters:    Size  Location     Type
 12039 ;;  divisor         4    0[BANK0 ] unsigned long 
 12040 ;;  dividend        4    4[BANK0 ] unsigned long 
 12041 ;; Auto vars:     Size  Location     Type
 12042 ;;  counter         1    9[BANK0 ] unsigned char 
 12043 ;; Return value:  Size  Location     Type
 12044 ;;                  4    0[BANK0 ] unsigned long 
 12045 ;; Registers used:
 12046 ;;		wreg, status,2, status,0
 12047 ;; Tracked objects:
 12048 ;;		On entry : 0/0
 12049 ;;		On exit  : 0/0
 12050 ;;		Unchanged: 0/0
 12051 ;; Data sizes:     COMMON   BANK0   BANK1   BANK3   BANK2
 12052 ;;      Params:         0       8       0       0       0
 12053 ;;      Locals:         0       1       0       0       0
 12054 ;;      Temps:          0       1       0       0       0
 12055 ;;      Totals:         0      10       0       0       0
 12056 ;;Total ram usage:       10 bytes
 12057 ;; Hardware stack levels used:    1
 12058 ;; Hardware stack levels required when called:    2
 12059 ;; This function calls:
 12060 ;;		Nothing
 12061 ;; This function is called by:
 12062 ;;		_DecToStr
 12063 ;; This function uses a non-reentrant model
 12064 ;;
 12065                           psect	text4271
 12066                           	file	"C:\Program Files (x86)\HI-TECH Software\PICC\9.83\sources\llmod.c"
 12067                           	line	5
 12068                           	global	__size_of___llmod
 12069  005E                     	__size_of___llmod	equ	__end_of___llmod-___llmod
 12070                           	
 12071  1598                     ___llmod:	
 12072                           	opt	stack 3
 12073                           ; Regs used in ___llmod: [wreg+status,2+status,0]
 12074                           	line	8
 12075                           	
 12076  1598                     l13638:	
 12077  1598  1283               	bcf	status, 5	;RP0=0, select bank0
 12078  1599  1303               	bcf	status, 6	;RP1=0, select bank0
 12079  159A  0823               	movf	(___llmod@divisor+3),w
 12080  159B  0422               	iorwf	(___llmod@divisor+2),w
 12081  159C  0421               	iorwf	(___llmod@divisor+1),w
 12082  159D  0420               	iorwf	(___llmod@divisor),w
 12083  159E  1903               	skipnz
 12084  159F  2DA1               	goto	u13701
 12085  15A0  2DA2               	goto	u13700
 12086  15A1                     u13701:
 12087  15A1  2DEC               	goto	l13654
 12088  15A2                     u13700:
 12089                           	line	9
 12090                           	
 12091  15A2                     l13640:	
 12092  15A2  01A9               	clrf	(___llmod@counter)
 12093  15A3  1403               	bsf	status,0
 12094  15A4  0DA9               	rlf	(___llmod@counter),f
 12095                           	line	10
 12096  15A5  2DB4               	goto	l13644
 12097                           	
 12098  15A6                     l4803:	
 12099                           	line	11
 12100                           	
 12101  15A6                     l13642:	
 12102  15A6  3001               	movlw	01h
 12103  15A7  00A8               	movwf	(??___llmod+0)+0
 12104  15A8                     u13715:
 12105  15A8  1003               	clrc
 12106  15A9  0DA0               	rlf	(___llmod@divisor),f
 12107  15AA  0DA1               	rlf	(___llmod@divisor+1),f
 12108  15AB  0DA2               	rlf	(___llmod@divisor+2),f
 12109  15AC  0DA3               	rlf	(___llmod@divisor+3),f
 12110  15AD  0BA8               	decfsz	(??___llmod+0)+0
 12111  15AE  2DA8               	goto	u13715
 12112                           	line	12
 12113  15AF  3001               	movlw	(01h)
 12114  15B0  00A8               	movwf	(??___llmod+0)+0
 12115  15B1  0828               	movf	(??___llmod+0)+0,w
 12116  15B2  07A9               	addwf	(___llmod@counter),f
 12117  15B3  2DB4               	goto	l13644
 12118                           	line	13
 12119                           	
 12120  15B4                     l4802:	
 12121                           	line	10
 12122                           	
 12123  15B4                     l13644:	
 12124  15B4  1FA3               	btfss	(___llmod@divisor+3),(31)&7
 12125  15B5  2DB7               	goto	u13721
 12126  15B6  2DB8               	goto	u13720
 12127  15B7                     u13721:
 12128  15B7  2DA6               	goto	l13642
 12129  15B8                     u13720:
 12130  15B8  2DBA               	goto	l13646
 12131                           	
 12132  15B9                     l4804:	
 12133  15B9  2DBA               	goto	l13646
 12134                           	line	14
 12135                           	
 12136  15BA                     l4805:	
 12137                           	line	15
 12138                           	
 12139  15BA                     l13646:	
 12140  15BA  0823               	movf	(___llmod@divisor+3),w
 12141  15BB  0227               	subwf	(___llmod@dividend+3),w
 12142  15BC  1D03               	skipz
 12143  15BD  2DC8               	goto	u13735
 12144  15BE  0822               	movf	(___llmod@divisor+2),w
 12145  15BF  0226               	subwf	(___llmod@dividend+2),w
 12146  15C0  1D03               	skipz
 12147  15C1  2DC8               	goto	u13735
 12148  15C2  0821               	movf	(___llmod@divisor+1),w
 12149  15C3  0225               	subwf	(___llmod@dividend+1),w
 12150  15C4  1D03               	skipz
 12151  15C5  2DC8               	goto	u13735
 12152  15C6  0820               	movf	(___llmod@divisor),w
 12153  15C7  0224               	subwf	(___llmod@dividend),w
 12154  15C8                     u13735:
 12155  15C8  1C03               	skipc
 12156  15C9  2DCB               	goto	u13731
 12157  15CA  2DCC               	goto	u13730
 12158  15CB                     u13731:
 12159  15CB  2DDB               	goto	l13650
 12160  15CC                     u13730:
 12161                           	line	16
 12162                           	
 12163  15CC                     l13648:	
 12164  15CC  0820               	movf	(___llmod@divisor),w
 12165  15CD  02A4               	subwf	(___llmod@dividend),f
 12166  15CE  0821               	movf	(___llmod@divisor+1),w
 12167  15CF  1C03               	skipc
 12168  15D0  0F21               	incfsz	(___llmod@divisor+1),w
 12169  15D1  02A5               	subwf	(___llmod@dividend+1),f
 12170  15D2  0822               	movf	(___llmod@divisor+2),w
 12171  15D3  1C03               	skipc
 12172  15D4  0F22               	incfsz	(___llmod@divisor+2),w
 12173  15D5  02A6               	subwf	(___llmod@dividend+2),f
 12174  15D6  0823               	movf	(___llmod@divisor+3),w
 12175  15D7  1C03               	skipc
 12176  15D8  0F23               	incfsz	(___llmod@divisor+3),w
 12177  15D9  02A7               	subwf	(___llmod@dividend+3),f
 12178  15DA  2DDB               	goto	l13650
 12179                           	
 12180  15DB                     l4806:	
 12181                           	line	17
 12182                           	
 12183  15DB                     l13650:	
 12184  15DB  3001               	movlw	01h
 12185  15DC                     u13745:
 12186  15DC  1003               	clrc
 12187  15DD  0CA3               	rrf	(___llmod@divisor+3),f
 12188  15DE  0CA2               	rrf	(___llmod@divisor+2),f
 12189  15DF  0CA1               	rrf	(___llmod@divisor+1),f
 12190  15E0  0CA0               	rrf	(___llmod@divisor),f
 12191  15E1  3EFF               	addlw	-1
 12192  15E2  1D03               	skipz
 12193  15E3  2DDC               	goto	u13745
 12194                           
 12195                           	line	18
 12196                           	
 12197  15E4                     l13652:	
 12198  15E4  3001               	movlw	low(01h)
 12199  15E5  02A9               	subwf	(___llmod@counter),f
 12200  15E6  1D03               	btfss	status,2
 12201  15E7  2DE9               	goto	u13751
 12202  15E8  2DEA               	goto	u13750
 12203  15E9                     u13751:
 12204  15E9  2DBA               	goto	l13646
 12205  15EA                     u13750:
 12206  15EA  2DEC               	goto	l13654
 12207                           	
 12208  15EB                     l4807:	
 12209  15EB  2DEC               	goto	l13654
 12210                           	line	19
 12211                           	
 12212  15EC                     l4801:	
 12213                           	line	20
 12214                           	
 12215  15EC                     l13654:	
 12216  15EC  0827               	movf	(___llmod@dividend+3),w
 12217  15ED  00A3               	movwf	(?___llmod+3)
 12218  15EE  0826               	movf	(___llmod@dividend+2),w
 12219  15EF  00A2               	movwf	(?___llmod+2)
 12220  15F0  0825               	movf	(___llmod@dividend+1),w
 12221  15F1  00A1               	movwf	(?___llmod+1)
 12222  15F2  0824               	movf	(___llmod@dividend),w
 12223  15F3  00A0               	movwf	(?___llmod)
 12224                           
 12225  15F4  2DF5               	goto	l4808
 12226                           	
 12227  15F5                     l13656:	
 12228                           	line	21
 12229                           	
 12230  15F5                     l4808:	
 12231  15F5  0008               	return
 12232                           	opt stack 0
 12233                           GLOBAL	__end_of___llmod
 12234  15F6                     	__end_of___llmod:
 12235 ;; =============== function ___llmod ends ============
 12236                           
 12237                           	signat	___llmod,8316
 12238                           	global	___lmul
 12239                           psect	text4272,local,class=CODE,delta=2
 12240                           global __ptext4272
 12241  13B6                     __ptext4272:
 12242                           
 12243 ;; *************** function ___lmul *****************
 12244 ;; Defined at:
 12245 ;;		line 3 in file "C:\Program Files (x86)\HI-TECH Software\PICC\9.83\sources\lmul.c"
 12246 ;; Parameters:    Size  Location     Type
 12247 ;;  multiplier      4    0[BANK0 ] unsigned long 
 12248 ;;  multiplicand    4    4[BANK0 ] unsigned long 
 12249 ;; Auto vars:     Size  Location     Type
 12250 ;;  product         4    9[BANK0 ] unsigned long 
 12251 ;; Return value:  Size  Location     Type
 12252 ;;                  4    0[BANK0 ] unsigned long 
 12253 ;; Registers used:
 12254 ;;		wreg, status,2, status,0
 12255 ;; Tracked objects:
 12256 ;;		On entry : 0/0
 12257 ;;		On exit  : 0/0
 12258 ;;		Unchanged: 0/0
 12259 ;; Data sizes:     COMMON   BANK0   BANK1   BANK3   BANK2
 12260 ;;      Params:         0       8       0       0       0
 12261 ;;      Locals:         0       4       0       0       0
 12262 ;;      Temps:          0       1       0       0       0
 12263 ;;      Totals:         0      13       0       0       0
 12264 ;;Total ram usage:       13 bytes
 12265 ;; Hardware stack levels used:    1
 12266 ;; Hardware stack levels required when called:    2
 12267 ;; This function calls:
 12268 ;;		Nothing
 12269 ;; This function is called by:
 12270 ;;		_Delay
 12271 ;; This function uses a non-reentrant model
 12272 ;;
 12273                           psect	text4272
 12274                           	file	"C:\Program Files (x86)\HI-TECH Software\PICC\9.83\sources\lmul.c"
 12275                           	line	3
 12276                           	global	__size_of___lmul
 12277  004C                     	__size_of___lmul	equ	__end_of___lmul-___lmul
 12278                           	
 12279  13B6                     ___lmul:	
 12280                           	opt	stack 3
 12281                           ; Regs used in ___lmul: [wreg+status,2+status,0]
 12282                           	line	4
 12283                           	
 12284  13B6                     l13624:	
 12285  13B6  3000               	movlw	0
 12286  13B7  1283               	bcf	status, 5	;RP0=0, select bank0
 12287  13B8  1303               	bcf	status, 6	;RP1=0, select bank0
 12288  13B9  00AC               	movwf	(___lmul@product+3)
 12289  13BA  3000               	movlw	0
 12290  13BB  00AB               	movwf	(___lmul@product+2)
 12291  13BC  3000               	movlw	0
 12292  13BD  00AA               	movwf	(___lmul@product+1)
 12293  13BE  3000               	movlw	0
 12294  13BF  00A9               	movwf	(___lmul@product)
 12295                           
 12296  13C0  2BC1               	goto	l13626
 12297                           	line	6
 12298                           	
 12299  13C1                     l4723:	
 12300                           	line	7
 12301                           	
 12302  13C1                     l13626:	
 12303  13C1  1C20               	btfss	(___lmul@multiplier),(0)&7
 12304  13C2  2BC4               	goto	u13651
 12305  13C3  2BC5               	goto	u13650
 12306  13C4                     u13651:
 12307  13C4  2BDD               	goto	l13630
 12308  13C5                     u13650:
 12309                           	line	8
 12310                           	
 12311  13C5                     l13628:	
 12312  13C5  0824               	movf	(___lmul@multiplicand),w
 12313  13C6  07A9               	addwf	(___lmul@product),f
 12314  13C7  0825               	movf	(___lmul@multiplicand+1),w
 12315  13C8  1103               	clrz
 12316  13C9  1803               	skipnc
 12317  13CA  3E01               	addlw	1
 12318  13CB  1903               	skipnz
 12319  13CC  2BCE               	goto	u13661
 12320  13CD  07AA               	addwf	(___lmul@product+1),f
 12321  13CE                     u13661:
 12322  13CE  0826               	movf	(___lmul@multiplicand+2),w
 12323  13CF  1103               	clrz
 12324  13D0  1803               	skipnc
 12325  13D1  3E01               	addlw	1
 12326  13D2  1903               	skipnz
 12327  13D3  2BD5               	goto	u13662
 12328  13D4  07AB               	addwf	(___lmul@product+2),f
 12329  13D5                     u13662:
 12330  13D5  0827               	movf	(___lmul@multiplicand+3),w
 12331  13D6  1103               	clrz
 12332  13D7  1803               	skipnc
 12333  13D8  3E01               	addlw	1
 12334  13D9  1903               	skipnz
 12335  13DA  2BDC               	goto	u13663
 12336  13DB  07AC               	addwf	(___lmul@product+3),f
 12337  13DC                     u13663:
 12338                           
 12339  13DC  2BDD               	goto	l13630
 12340                           	
 12341  13DD                     l4724:	
 12342                           	line	9
 12343                           	
 12344  13DD                     l13630:	
 12345  13DD  3001               	movlw	01h
 12346  13DE  00A8               	movwf	(??___lmul+0)+0
 12347  13DF                     u13675:
 12348  13DF  1003               	clrc
 12349  13E0  0DA4               	rlf	(___lmul@multiplicand),f
 12350  13E1  0DA5               	rlf	(___lmul@multiplicand+1),f
 12351  13E2  0DA6               	rlf	(___lmul@multiplicand+2),f
 12352  13E3  0DA7               	rlf	(___lmul@multiplicand+3),f
 12353  13E4  0BA8               	decfsz	(??___lmul+0)+0
 12354  13E5  2BDF               	goto	u13675
 12355                           	line	10
 12356                           	
 12357  13E6                     l13632:	
 12358  13E6  3001               	movlw	01h
 12359  13E7                     u13685:
 12360  13E7  1003               	clrc
 12361  13E8  0CA3               	rrf	(___lmul@multiplier+3),f
 12362  13E9  0CA2               	rrf	(___lmul@multiplier+2),f
 12363  13EA  0CA1               	rrf	(___lmul@multiplier+1),f
 12364  13EB  0CA0               	rrf	(___lmul@multiplier),f
 12365  13EC  3EFF               	addlw	-1
 12366  13ED  1D03               	skipz
 12367  13EE  2BE7               	goto	u13685
 12368                           
 12369                           	line	11
 12370  13EF  0823               	movf	(___lmul@multiplier+3),w
 12371  13F0  0422               	iorwf	(___lmul@multiplier+2),w
 12372  13F1  0421               	iorwf	(___lmul@multiplier+1),w
 12373  13F2  0420               	iorwf	(___lmul@multiplier),w
 12374  13F3  1D03               	skipz
 12375  13F4  2BF6               	goto	u13691
 12376  13F5  2BF7               	goto	u13690
 12377  13F6                     u13691:
 12378  13F6  2BC1               	goto	l13626
 12379  13F7                     u13690:
 12380  13F7  2BF8               	goto	l13634
 12381                           	
 12382  13F8                     l4725:	
 12383                           	line	12
 12384                           	
 12385  13F8                     l13634:	
 12386  13F8  082C               	movf	(___lmul@product+3),w
 12387  13F9  00A3               	movwf	(?___lmul+3)
 12388  13FA  082B               	movf	(___lmul@product+2),w
 12389  13FB  00A2               	movwf	(?___lmul+2)
 12390  13FC  082A               	movf	(___lmul@product+1),w
 12391  13FD  00A1               	movwf	(?___lmul+1)
 12392  13FE  0829               	movf	(___lmul@product),w
 12393  13FF  00A0               	movwf	(?___lmul)
 12394                           
 12395  1400  2C01               	goto	l4726
 12396                           	
 12397  1401                     l13636:	
 12398                           	line	13
 12399                           	
 12400  1401                     l4726:	
 12401  1401  0008               	return
 12402                           	opt stack 0
 12403                           GLOBAL	__end_of___lmul
 12404  1402                     	__end_of___lmul:
 12405 ;; =============== function ___lmul ends ============
 12406                           
 12407                           	signat	___lmul,8316
 12408                           	global	_ToggleEndianFormat
 12409                           psect	text4273,local,class=CODE,delta=2
 12410                           global __ptext4273
 12411  0A27                     __ptext4273:
 12412                           
 12413 ;; *************** function _ToggleEndianFormat *****************
 12414 ;; Defined at:
 12415 ;;		line 122 in file "C:\Users\GauravLT\Desktop\Finger Print Sensor\R307\PIC16F877A_R307\FingerPrintSensor_R307.c"
 12416 ;; Parameters:    Size  Location     Type
 12417 ;;  val             4    0[BANK0 ] unsigned long 
 12418 ;;  size            1    4[BANK0 ] unsigned char 
 12419 ;; Auto vars:     Size  Location     Type
 12420 ;;  result          2   21[BANK0 ] unsigned int 
 12421 ;; Return value:  Size  Location     Type
 12422 ;;                  4    0[BANK0 ] unsigned long 
 12423 ;; Registers used:
 12424 ;;		wreg, status,2, status,0
 12425 ;; Tracked objects:
 12426 ;;		On entry : 0/0
 12427 ;;		On exit  : 0/0
 12428 ;;		Unchanged: 0/0
 12429 ;; Data sizes:     COMMON   BANK0   BANK1   BANK3   BANK2
 12430 ;;      Params:         0       5       0       0       0
 12431 ;;      Locals:         0       2       0       0       0
 12432 ;;      Temps:          0      16       0       0       0
 12433 ;;      Totals:         0      23       0       0       0
 12434 ;;Total ram usage:       23 bytes
 12435 ;; Hardware stack levels used:    1
 12436 ;; Hardware stack levels required when called:    2
 12437 ;; This function calls:
 12438 ;;		Nothing
 12439 ;; This function is called by:
 12440 ;;		_FillUpResponse
 12441 ;; This function uses a non-reentrant model
 12442 ;;
 12443                           psect	text4273
 12444                           	file	"C:\Users\GauravLT\Desktop\Finger Print Sensor\R307\PIC16F877A_R307\FingerPrintSen
                                 sor_R307.c"
 12445                           	line	122
 12446                           	global	__size_of_ToggleEndianFormat
 12447  00AF                     	__size_of_ToggleEndianFormat	equ	__end_of_ToggleEndianFormat-_ToggleEndianFormat
 12448                           	
 12449  0A27                     _ToggleEndianFormat:	
 12450                           	opt	stack 2
 12451                           ; Regs used in _ToggleEndianFormat: [wreg+status,2+status,0]
 12452                           	line	123
 12453                           	
 12454  0A27                     l13552:	
 12455                           ;FingerPrintSensor_R307.c: 123: if(size == 1){}
 12456  0A27  1283               	bcf	status, 5	;RP0=0, select bank0
 12457  0A28  1303               	bcf	status, 6	;RP1=0, select bank0
 12458  0A29  0824               	movf	(ToggleEndianFormat@size),w
 12459  0A2A  3A01               	xorlw	01h
 12460  0A2B  1D03               	skipz
 12461  0A2C  2A2E               	goto	u13491
 12462  0A2D  2A2F               	goto	u13490
 12463  0A2E                     u13491:
 12464  0A2E  2A31               	goto	l13556
 12465  0A2F                     u13490:
 12466  0A2F  2AD5               	goto	l3056
 12467                           	
 12468  0A30                     l13554:	
 12469  0A30  2AD5               	goto	l3056
 12470                           	line	124
 12471                           	
 12472  0A31                     l3055:	
 12473                           	
 12474  0A31                     l13556:	
 12475                           ;FingerPrintSensor_R307.c: 124: else if(size == 2)
 12476  0A31  0824               	movf	(ToggleEndianFormat@size),w
 12477  0A32  3A02               	xorlw	02h
 12478  0A33  1D03               	skipz
 12479  0A34  2A36               	goto	u13501
 12480  0A35  2A37               	goto	u13500
 12481  0A36                     u13501:
 12482  0A36  2A5A               	goto	l13566
 12483  0A37                     u13500:
 12484                           	line	126
 12485                           	
 12486  0A37                     l13558:	
 12487                           ;FingerPrintSensor_R307.c: 125: {
 12488                           ;FingerPrintSensor_R307.c: 126: unsigned int result=(unsigned int)val;
 12489  0A37  0821               	movf	(ToggleEndianFormat@val+1),w
 12490  0A38  01B6               	clrf	(ToggleEndianFormat@result+1)
 12491  0A39  07B6               	addwf	(ToggleEndianFormat@result+1)
 12492  0A3A  0820               	movf	(ToggleEndianFormat@val),w
 12493  0A3B  01B5               	clrf	(ToggleEndianFormat@result)
 12494  0A3C  07B5               	addwf	(ToggleEndianFormat@result)
 12495                           
 12496                           	line	127
 12497                           ;FingerPrintSensor_R307.c: 127: result = (result<<8 | result >> 8);
 12498  0A3D  0836               	movf	(ToggleEndianFormat@result+1),w
 12499  0A3E  00A6               	movwf	(??_ToggleEndianFormat+0)+0+1
 12500  0A3F  0835               	movf	(ToggleEndianFormat@result),w
 12501  0A40  00A5               	movwf	(??_ToggleEndianFormat+0)+0
 12502  0A41  3008               	movlw	08h
 12503  0A42                     u13515:
 12504  0A42  1003               	clrc
 12505  0A43  0CA6               	rrf	(??_ToggleEndianFormat+0)+1,f
 12506  0A44  0CA5               	rrf	(??_ToggleEndianFormat+0)+0,f
 12507  0A45  3EFF               	addlw	-1
 12508  0A46  1D03               	skipz
 12509  0A47  2A42               	goto	u13515
 12510  0A48  0835               	movf	(ToggleEndianFormat@result),w
 12511  0A49  00A8               	movwf	(??_ToggleEndianFormat+2)+0+1
 12512  0A4A  01A7               	clrf	(??_ToggleEndianFormat+2)+0
 12513  0A4B  0825               	movf	0+(??_ToggleEndianFormat+0)+0,w
 12514  0A4C  0427               	iorwf	0+(??_ToggleEndianFormat+2)+0,w
 12515  0A4D  00B5               	movwf	(ToggleEndianFormat@result)
 12516  0A4E  0826               	movf	1+(??_ToggleEndianFormat+0)+0,w
 12517  0A4F  0428               	iorwf	1+(??_ToggleEndianFormat+2)+0,w
 12518  0A50  00B6               	movwf	1+(ToggleEndianFormat@result)
 12519                           	line	128
 12520                           	
 12521  0A51                     l13560:	
 12522                           ;FingerPrintSensor_R307.c: 128: return result;
 12523  0A51  0835               	movf	(ToggleEndianFormat@result),w
 12524  0A52  00A0               	movwf	(?_ToggleEndianFormat)
 12525  0A53  0836               	movf	(ToggleEndianFormat@result+1),w
 12526  0A54  00A1               	movwf	((?_ToggleEndianFormat))+1
 12527  0A55  01A2               	clrf	2+((?_ToggleEndianFormat))
 12528  0A56  01A3               	clrf	3+((?_ToggleEndianFormat))
 12529  0A57  2AD5               	goto	l3058
 12530                           	
 12531  0A58                     l13562:	
 12532  0A58  2AD5               	goto	l3058
 12533                           	line	129
 12534                           	
 12535  0A59                     l13564:	
 12536                           ;FingerPrintSensor_R307.c: 129: }
 12537  0A59  2AD5               	goto	l3056
 12538                           	line	130
 12539                           	
 12540  0A5A                     l3057:	
 12541                           	
 12542  0A5A                     l13566:	
 12543                           ;FingerPrintSensor_R307.c: 130: else if(size == 4)
 12544  0A5A  0824               	movf	(ToggleEndianFormat@size),w
 12545  0A5B  3A04               	xorlw	04h
 12546  0A5C  1D03               	skipz
 12547  0A5D  2A5F               	goto	u13521
 12548  0A5E  2A60               	goto	u13520
 12549  0A5F                     u13521:
 12550  0A5F  2AD5               	goto	l3056
 12551  0A60                     u13520:
 12552                           	line	132
 12553                           	
 12554  0A60                     l13568:	
 12555                           ;FingerPrintSensor_R307.c: 131: {
 12556                           ;FingerPrintSensor_R307.c: 132: return (val<<24 | ((val>>8)<<16) | ((val>>16)<<8) | val>
                                 >24);
 12557  0A60  0820               	movf	(ToggleEndianFormat@val),w
 12558  0A61  00A5               	movwf	(??_ToggleEndianFormat+0)+0
 12559  0A62  0821               	movf	(ToggleEndianFormat@val+1),w
 12560  0A63  00A6               	movwf	((??_ToggleEndianFormat+0)+0+1)
 12561  0A64  0822               	movf	(ToggleEndianFormat@val+2),w
 12562  0A65  00A7               	movwf	((??_ToggleEndianFormat+0)+0+2)
 12563  0A66  0823               	movf	(ToggleEndianFormat@val+3),w
 12564  0A67  00A8               	movwf	((??_ToggleEndianFormat+0)+0+3)
 12565  0A68  3018               	movlw	018h
 12566  0A69                     u13535:
 12567  0A69  1003               	clrc
 12568  0A6A  0CA8               	rrf	(??_ToggleEndianFormat+0)+3,f
 12569  0A6B  0CA7               	rrf	(??_ToggleEndianFormat+0)+2,f
 12570  0A6C  0CA6               	rrf	(??_ToggleEndianFormat+0)+1,f
 12571  0A6D  0CA5               	rrf	(??_ToggleEndianFormat+0)+0,f
 12572  0A6E                     u13530:
 12573  0A6E  3EFF               	addlw	-1
 12574  0A6F  1D03               	skipz
 12575  0A70  2A69               	goto	u13535
 12576  0A71  0820               	movf	(ToggleEndianFormat@val),w
 12577  0A72  00A9               	movwf	(??_ToggleEndianFormat+4)+0
 12578  0A73  0821               	movf	(ToggleEndianFormat@val+1),w
 12579  0A74  00AA               	movwf	((??_ToggleEndianFormat+4)+0+1)
 12580  0A75  0822               	movf	(ToggleEndianFormat@val+2),w
 12581  0A76  00AB               	movwf	((??_ToggleEndianFormat+4)+0+2)
 12582  0A77  0823               	movf	(ToggleEndianFormat@val+3),w
 12583  0A78  00AC               	movwf	((??_ToggleEndianFormat+4)+0+3)
 12584  0A79  3010               	movlw	010h
 12585  0A7A                     u13545:
 12586  0A7A  1003               	clrc
 12587  0A7B  0CAC               	rrf	(??_ToggleEndianFormat+4)+3,f
 12588  0A7C  0CAB               	rrf	(??_ToggleEndianFormat+4)+2,f
 12589  0A7D  0CAA               	rrf	(??_ToggleEndianFormat+4)+1,f
 12590  0A7E  0CA9               	rrf	(??_ToggleEndianFormat+4)+0,f
 12591  0A7F                     u13540:
 12592  0A7F  3EFF               	addlw	-1
 12593  0A80  1D03               	skipz
 12594  0A81  2A7A               	goto	u13545
 12595  0A82  3008               	movlw	08h
 12596  0A83                     u13555:
 12597  0A83  1003               	clrc
 12598  0A84  0DA9               	rlf	(??_ToggleEndianFormat+4)+0,f
 12599  0A85  0DAA               	rlf	(??_ToggleEndianFormat+4)+1,f
 12600  0A86  0DAB               	rlf	(??_ToggleEndianFormat+4)+2,f
 12601  0A87  0DAC               	rlf	(??_ToggleEndianFormat+4)+3,f
 12602  0A88                     u13550:
 12603  0A88  3EFF               	addlw	-1
 12604  0A89  1D03               	skipz
 12605  0A8A  2A83               	goto	u13555
 12606  0A8B  0820               	movf	(ToggleEndianFormat@val),w
 12607  0A8C  00AD               	movwf	(??_ToggleEndianFormat+8)+0
 12608  0A8D  0821               	movf	(ToggleEndianFormat@val+1),w
 12609  0A8E  00AE               	movwf	((??_ToggleEndianFormat+8)+0+1)
 12610  0A8F  0822               	movf	(ToggleEndianFormat@val+2),w
 12611  0A90  00AF               	movwf	((??_ToggleEndianFormat+8)+0+2)
 12612  0A91  0823               	movf	(ToggleEndianFormat@val+3),w
 12613  0A92  00B0               	movwf	((??_ToggleEndianFormat+8)+0+3)
 12614  0A93  3008               	movlw	08h
 12615  0A94                     u13565:
 12616  0A94  1003               	clrc
 12617  0A95  0CB0               	rrf	(??_ToggleEndianFormat+8)+3,f
 12618  0A96  0CAF               	rrf	(??_ToggleEndianFormat+8)+2,f
 12619  0A97  0CAE               	rrf	(??_ToggleEndianFormat+8)+1,f
 12620  0A98  0CAD               	rrf	(??_ToggleEndianFormat+8)+0,f
 12621  0A99                     u13560:
 12622  0A99  3EFF               	addlw	-1
 12623  0A9A  1D03               	skipz
 12624  0A9B  2A94               	goto	u13565
 12625  0A9C  3010               	movlw	010h
 12626  0A9D                     u13575:
 12627  0A9D  1003               	clrc
 12628  0A9E  0DAD               	rlf	(??_ToggleEndianFormat+8)+0,f
 12629  0A9F  0DAE               	rlf	(??_ToggleEndianFormat+8)+1,f
 12630  0AA0  0DAF               	rlf	(??_ToggleEndianFormat+8)+2,f
 12631  0AA1  0DB0               	rlf	(??_ToggleEndianFormat+8)+3,f
 12632  0AA2                     u13570:
 12633  0AA2  3EFF               	addlw	-1
 12634  0AA3  1D03               	skipz
 12635  0AA4  2A9D               	goto	u13575
 12636  0AA5  0820               	movf	(ToggleEndianFormat@val),w
 12637  0AA6  00B1               	movwf	(??_ToggleEndianFormat+12)+0
 12638  0AA7  0821               	movf	(ToggleEndianFormat@val+1),w
 12639  0AA8  00B2               	movwf	((??_ToggleEndianFormat+12)+0+1)
 12640  0AA9  0822               	movf	(ToggleEndianFormat@val+2),w
 12641  0AAA  00B3               	movwf	((??_ToggleEndianFormat+12)+0+2)
 12642  0AAB  0823               	movf	(ToggleEndianFormat@val+3),w
 12643  0AAC  00B4               	movwf	((??_ToggleEndianFormat+12)+0+3)
 12644  0AAD  3018               	movlw	018h
 12645  0AAE                     u13585:
 12646  0AAE  1003               	clrc
 12647  0AAF  0DB1               	rlf	(??_ToggleEndianFormat+12)+0,f
 12648  0AB0  0DB2               	rlf	(??_ToggleEndianFormat+12)+1,f
 12649  0AB1  0DB3               	rlf	(??_ToggleEndianFormat+12)+2,f
 12650  0AB2  0DB4               	rlf	(??_ToggleEndianFormat+12)+3,f
 12651  0AB3                     u13580:
 12652  0AB3  3EFF               	addlw	-1
 12653  0AB4  1D03               	skipz
 12654  0AB5  2AAE               	goto	u13585
 12655  0AB6  0831               	movf	0+(??_ToggleEndianFormat+12)+0,w
 12656  0AB7  04AD               	iorwf	(??_ToggleEndianFormat+8)+0,f
 12657  0AB8  0832               	movf	1+(??_ToggleEndianFormat+12)+0,w
 12658  0AB9  04AE               	iorwf	(??_ToggleEndianFormat+8)+1,f
 12659  0ABA  0833               	movf	2+(??_ToggleEndianFormat+12)+0,w
 12660  0ABB  04AF               	iorwf	(??_ToggleEndianFormat+8)+2,f
 12661  0ABC  0834               	movf	3+(??_ToggleEndianFormat+12)+0,w
 12662  0ABD  04B0               	iorwf	(??_ToggleEndianFormat+8)+3,f
 12663  0ABE  082D               	movf	0+(??_ToggleEndianFormat+8)+0,w
 12664  0ABF  04A9               	iorwf	(??_ToggleEndianFormat+4)+0,f
 12665  0AC0  082E               	movf	1+(??_ToggleEndianFormat+8)+0,w
 12666  0AC1  04AA               	iorwf	(??_ToggleEndianFormat+4)+1,f
 12667  0AC2  082F               	movf	2+(??_ToggleEndianFormat+8)+0,w
 12668  0AC3  04AB               	iorwf	(??_ToggleEndianFormat+4)+2,f
 12669  0AC4  0830               	movf	3+(??_ToggleEndianFormat+8)+0,w
 12670  0AC5  04AC               	iorwf	(??_ToggleEndianFormat+4)+3,f
 12671  0AC6  0825               	movf	0+(??_ToggleEndianFormat+0)+0,w
 12672  0AC7  0429               	iorwf	0+(??_ToggleEndianFormat+4)+0,w
 12673  0AC8  00A0               	movwf	(?_ToggleEndianFormat)
 12674  0AC9  0826               	movf	1+(??_ToggleEndianFormat+0)+0,w
 12675  0ACA  042A               	iorwf	1+(??_ToggleEndianFormat+4)+0,w
 12676  0ACB  00A1               	movwf	1+(?_ToggleEndianFormat)
 12677  0ACC  0827               	movf	2+(??_ToggleEndianFormat+0)+0,w
 12678  0ACD  042B               	iorwf	2+(??_ToggleEndianFormat+4)+0,w
 12679  0ACE  00A2               	movwf	2+(?_ToggleEndianFormat)
 12680  0ACF  0828               	movf	3+(??_ToggleEndianFormat+0)+0,w
 12681  0AD0  042C               	iorwf	3+(??_ToggleEndianFormat+4)+0,w
 12682  0AD1  00A3               	movwf	3+(?_ToggleEndianFormat)
 12683  0AD2  2AD5               	goto	l3058
 12684                           	
 12685  0AD3                     l13570:	
 12686  0AD3  2AD5               	goto	l3058
 12687                           	line	133
 12688                           	
 12689  0AD4                     l3060:	
 12690  0AD4  2AD5               	goto	l3056
 12691                           	line	134
 12692                           	
 12693  0AD5                     l3059:	
 12694                           	
 12695  0AD5                     l3056:	
 12696                           ;FingerPrintSensor_R307.c: 133: }
 12697                           ;FingerPrintSensor_R307.c: 134: return val;
 12698                           	line	135
 12699                           	
 12700  0AD5                     l3058:	
 12701  0AD5  0008               	return
 12702                           	opt stack 0
 12703                           GLOBAL	__end_of_ToggleEndianFormat
 12704  0AD6                     	__end_of_ToggleEndianFormat:
 12705 ;; =============== function _ToggleEndianFormat ends ============
 12706                           
 12707                           	signat	_ToggleEndianFormat,8316
 12708                           	global	_GetUartByte
 12709                           psect	text4274,local,class=CODE,delta=2
 12710                           global __ptext4274
 12711  0802                     __ptext4274:
 12712                           
 12713 ;; *************** function _GetUartByte *****************
 12714 ;; Defined at:
 12715 ;;		line 81 in file "C:\Users\GauravLT\Desktop\Finger Print Sensor\R307\PIC16F877A_R307\FingerPrintSensor_R307.c"
 12716 ;; Parameters:    Size  Location     Type
 12717 ;;		None
 12718 ;; Auto vars:     Size  Location     Type
 12719 ;;  val             1    1[BANK0 ] unsigned char 
 12720 ;; Return value:  Size  Location     Type
 12721 ;;                  1    wreg      unsigned char 
 12722 ;; Registers used:
 12723 ;;		wreg, fsr0l, fsr0h, status,2, status,0
 12724 ;; Tracked objects:
 12725 ;;		On entry : 0/0
 12726 ;;		On exit  : 0/0
 12727 ;;		Unchanged: 0/0
 12728 ;; Data sizes:     COMMON   BANK0   BANK1   BANK3   BANK2
 12729 ;;      Params:         0       0       0       0       0
 12730 ;;      Locals:         0       1       0       0       0
 12731 ;;      Temps:          0       1       0       0       0
 12732 ;;      Totals:         0       2       0       0       0
 12733 ;;Total ram usage:        2 bytes
 12734 ;; Hardware stack levels used:    1
 12735 ;; Hardware stack levels required when called:    2
 12736 ;; This function calls:
 12737 ;;		Nothing
 12738 ;; This function is called by:
 12739 ;;		_FillUpResponse
 12740 ;; This function uses a non-reentrant model
 12741 ;;
 12742                           psect	text4274
 12743                           	file	"C:\Users\GauravLT\Desktop\Finger Print Sensor\R307\PIC16F877A_R307\FingerPrintSen
                                 sor_R307.c"
 12744                           	line	81
 12745                           	global	__size_of_GetUartByte
 12746  0019                     	__size_of_GetUartByte	equ	__end_of_GetUartByte-_GetUartByte
 12747                           	
 12748  0802                     _GetUartByte:	
 12749                           	opt	stack 2
 12750                           ; Regs used in _GetUartByte: [wreg-fsr0h+status,2+status,0]
 12751                           	line	82
 12752                           	
 12753  0802                     l13542:	
 12754                           ;FingerPrintSensor_R307.c: 82: unsigned char val = UartBuffer[UartOxPtr];
 12755  0802  0879               	movf	(_UartOxPtr),w
 12756  0803  3E10               	addlw	_UartBuffer&0ffh
 12757  0804  0084               	movwf	fsr0
 12758  0805  1783               	bsf	status, 7	;select IRP bank2
 12759  0806  0800               	movf	indf,w
 12760  0807  1283               	bcf	status, 5	;RP0=0, select bank0
 12761  0808  1303               	bcf	status, 6	;RP1=0, select bank0
 12762  0809  00A0               	movwf	(??_GetUartByte+0)+0
 12763  080A  0820               	movf	(??_GetUartByte+0)+0,w
 12764  080B  00A1               	movwf	(GetUartByte@val)
 12765                           	line	83
 12766                           	
 12767  080C                     l13544:	
 12768                           ;FingerPrintSensor_R307.c: 83: if(++UartOxPtr == 96)
 12769  080C  3001               	movlw	(01h)
 12770  080D  00A0               	movwf	(??_GetUartByte+0)+0
 12771  080E  0820               	movf	(??_GetUartByte+0)+0,w
 12772  080F  07F9               	addwf	(_UartOxPtr),f
 12773  0810  0879               	movf	((_UartOxPtr)),w
 12774  0811  3A60               	xorlw	060h
 12775  0812  1D03               	skipz
 12776  0813  2815               	goto	u13481
 12777  0814  2816               	goto	u13480
 12778  0815                     u13481:
 12779  0815  2818               	goto	l13548
 12780  0816                     u13480:
 12781                           	line	84
 12782                           	
 12783  0816                     l13546:	
 12784                           ;FingerPrintSensor_R307.c: 84: UartOxPtr = 0;
 12785  0816  01F9               	clrf	(_UartOxPtr)
 12786  0817  2818               	goto	l13548
 12787                           	
 12788  0818                     l3045:	
 12789                           	line	86
 12790                           	
 12791  0818                     l13548:	
 12792                           ;FingerPrintSensor_R307.c: 86: return val;
 12793  0818  0821               	movf	(GetUartByte@val),w
 12794  0819  281A               	goto	l3046
 12795                           	
 12796  081A                     l13550:	
 12797                           	line	87
 12798                           	
 12799  081A                     l3046:	
 12800  081A  0008               	return
 12801                           	opt stack 0
 12802                           GLOBAL	__end_of_GetUartByte
 12803  081B                     	__end_of_GetUartByte:
 12804 ;; =============== function _GetUartByte ends ============
 12805                           
 12806                           	signat	_GetUartByte,89
 12807                           	global	_IsUartBytePending
 12808                           psect	text4275,local,class=CODE,delta=2
 12809                           global __ptext4275
 12810  1F9F                     __ptext4275:
 12811                           
 12812 ;; *************** function _IsUartBytePending *****************
 12813 ;; Defined at:
 12814 ;;		line 71 in file "C:\Users\GauravLT\Desktop\Finger Print Sensor\R307\PIC16F877A_R307\FingerPrintSensor_R307.c"
 12815 ;; Parameters:    Size  Location     Type
 12816 ;;		None
 12817 ;; Auto vars:     Size  Location     Type
 12818 ;;		None
 12819 ;; Return value:  Size  Location     Type
 12820 ;;                  1    wreg      unsigned char 
 12821 ;; Registers used:
 12822 ;;		wreg
 12823 ;; Tracked objects:
 12824 ;;		On entry : 0/0
 12825 ;;		On exit  : 0/0
 12826 ;;		Unchanged: 0/0
 12827 ;; Data sizes:     COMMON   BANK0   BANK1   BANK3   BANK2
 12828 ;;      Params:         0       0       0       0       0
 12829 ;;      Locals:         0       0       0       0       0
 12830 ;;      Temps:          0       0       0       0       0
 12831 ;;      Totals:         0       0       0       0       0
 12832 ;;Total ram usage:        0 bytes
 12833 ;; Hardware stack levels used:    1
 12834 ;; Hardware stack levels required when called:    2
 12835 ;; This function calls:
 12836 ;;		Nothing
 12837 ;; This function is called by:
 12838 ;;		_FillUpResponse
 12839 ;; This function uses a non-reentrant model
 12840 ;;
 12841                           psect	text4275
 12842                           	file	"C:\Users\GauravLT\Desktop\Finger Print Sensor\R307\PIC16F877A_R307\FingerPrintSen
                                 sor_R307.c"
 12843                           	line	71
 12844                           	global	__size_of_IsUartBytePending
 12845  0007                     	__size_of_IsUartBytePending	equ	__end_of_IsUartBytePending-_IsUartBytePending
 12846                           	
 12847  1F9F                     _IsUartBytePending:	
 12848                           	opt	stack 2
 12849                           ; Regs used in _IsUartBytePending: [wreg]
 12850                           	line	72
 12851                           	
 12852  1F9F                     l13538:	
 12853                           ;FingerPrintSensor_R307.c: 72: return UartIxPtr != UartOxPtr;
 12854  1F9F  0878               	movf	(_UartIxPtr),w
 12855  1FA0  0679               	xorwf	(_UartOxPtr),w
 12856  1FA1  3000               	movlw	0
 12857  1FA2  1D03               	skipz
 12858  1FA3  3001               	movlw	1
 12859  1FA4  2FA5               	goto	l3038
 12860                           	
 12861  1FA5                     l13540:	
 12862                           	line	73
 12863                           	
 12864  1FA5                     l3038:	
 12865  1FA5  0008               	return
 12866                           	opt stack 0
 12867                           GLOBAL	__end_of_IsUartBytePending
 12868  1FA6                     	__end_of_IsUartBytePending:
 12869 ;; =============== function _IsUartBytePending ends ============
 12870                           
 12871                           	signat	_IsUartBytePending,89
 12872                           	global	_ClearUartBuffer
 12873                           psect	text4276,local,class=CODE,delta=2
 12874                           global __ptext4276
 12875  108E                     __ptext4276:
 12876                           
 12877 ;; *************** function _ClearUartBuffer *****************
 12878 ;; Defined at:
 12879 ;;		line 65 in file "C:\Users\GauravLT\Desktop\Finger Print Sensor\R307\PIC16F877A_R307\FingerPrintSensor_R307.c"
 12880 ;; Parameters:    Size  Location     Type
 12881 ;;		None
 12882 ;; Auto vars:     Size  Location     Type
 12883 ;;  i               1    1[BANK0 ] unsigned char 
 12884 ;; Return value:  Size  Location     Type
 12885 ;;		None               void
 12886 ;; Registers used:
 12887 ;;		wreg, fsr0l, fsr0h, status,2, status,0
 12888 ;; Tracked objects:
 12889 ;;		On entry : 0/0
 12890 ;;		On exit  : 0/0
 12891 ;;		Unchanged: 0/0
 12892 ;; Data sizes:     COMMON   BANK0   BANK1   BANK3   BANK2
 12893 ;;      Params:         0       0       0       0       0
 12894 ;;      Locals:         0       1       0       0       0
 12895 ;;      Temps:          0       1       0       0       0
 12896 ;;      Totals:         0       2       0       0       0
 12897 ;;Total ram usage:        2 bytes
 12898 ;; Hardware stack levels used:    1
 12899 ;; Hardware stack levels required when called:    2
 12900 ;; This function calls:
 12901 ;;		Nothing
 12902 ;; This function is called by:
 12903 ;;		_DeleteUser
 12904 ;;		_VerifyPswd
 12905 ;;		_ScanForImage
 12906 ;;		_GenCharacterFileFromImage
 12907 ;;		_HiSpeedScan
 12908 ;;		_EraseAllUsers
 12909 ;;		_AddUserA
 12910 ;;		_AddUserB
 12911 ;;		_AddUserC
 12912 ;;		_LoadFingerTemplate
 12913 ;;		_MatchTemplate
 12914 ;; This function uses a non-reentrant model
 12915 ;;
 12916                           psect	text4276
 12917                           	file	"C:\Users\GauravLT\Desktop\Finger Print Sensor\R307\PIC16F877A_R307\FingerPrintSen
                                 sor_R307.c"
 12918                           	line	65
 12919                           	global	__size_of_ClearUartBuffer
 12920  0021                     	__size_of_ClearUartBuffer	equ	__end_of_ClearUartBuffer-_ClearUartBuffer
 12921                           	
 12922  108E                     _ClearUartBuffer:	
 12923                           	opt	stack 3
 12924                           ; Regs used in _ClearUartBuffer: [wreg-fsr0h+status,2+status,0]
 12925                           	line	67
 12926                           	
 12927  108E                     l13524:	
 12928                           ;FingerPrintSensor_R307.c: 66: unsigned char i;
 12929                           ;FingerPrintSensor_R307.c: 67: for(i=0; i<96; i++) UartBuffer[i]=0;
 12930  108E  1283               	bcf	status, 5	;RP0=0, select bank0
 12931  108F  1303               	bcf	status, 6	;RP1=0, select bank0
 12932  1090  01A1               	clrf	(ClearUartBuffer@i)
 12933                           	
 12934  1091                     l13526:	
 12935  1091  3060               	movlw	(060h)
 12936  1092  0221               	subwf	(ClearUartBuffer@i),w
 12937  1093  1C03               	skipc
 12938  1094  2896               	goto	u13461
 12939  1095  2897               	goto	u13460
 12940  1096                     u13461:
 12941  1096  2899               	goto	l13530
 12942  1097                     u13460:
 12943  1097  28A9               	goto	l13536
 12944                           	
 12945  1098                     l13528:	
 12946  1098  28A9               	goto	l13536
 12947                           	
 12948  1099                     l3033:	
 12949                           	
 12950  1099                     l13530:	
 12951  1099  0821               	movf	(ClearUartBuffer@i),w
 12952  109A  3E10               	addlw	_UartBuffer&0ffh
 12953  109B  0084               	movwf	fsr0
 12954  109C  1783               	bsf	status, 7	;select IRP bank2
 12955  109D  0180               	clrf	indf
 12956                           	
 12957  109E                     l13532:	
 12958  109E  3001               	movlw	(01h)
 12959  109F  00A0               	movwf	(??_ClearUartBuffer+0)+0
 12960  10A0  0820               	movf	(??_ClearUartBuffer+0)+0,w
 12961  10A1  07A1               	addwf	(ClearUartBuffer@i),f
 12962                           	
 12963  10A2                     l13534:	
 12964  10A2  3060               	movlw	(060h)
 12965  10A3  0221               	subwf	(ClearUartBuffer@i),w
 12966  10A4  1C03               	skipc
 12967  10A5  28A7               	goto	u13471
 12968  10A6  28A8               	goto	u13470
 12969  10A7                     u13471:
 12970  10A7  2899               	goto	l13530
 12971  10A8                     u13470:
 12972  10A8  28A9               	goto	l13536
 12973                           	
 12974  10A9                     l3034:	
 12975                           	line	68
 12976                           	
 12977  10A9                     l13536:	
 12978                           ;FingerPrintSensor_R307.c: 68: UartIxPtr = UartOxPtr = 0;
 12979  10A9  3000               	movlw	(0)
 12980  10AA  00F9               	movwf	(_UartOxPtr)
 12981  10AB  00A0               	movwf	(??_ClearUartBuffer+0)+0
 12982  10AC  0820               	movf	(??_ClearUartBuffer+0)+0,w
 12983  10AD  00F8               	movwf	(_UartIxPtr)
 12984                           	line	69
 12985                           	
 12986  10AE                     l3035:	
 12987  10AE  0008               	return
 12988                           	opt stack 0
 12989                           GLOBAL	__end_of_ClearUartBuffer
 12990  10AF                     	__end_of_ClearUartBuffer:
 12991 ;; =============== function _ClearUartBuffer ends ============
 12992                           
 12993                           	signat	_ClearUartBuffer,88
 12994                           	global	_SendUartByte
 12995                           psect	text4277,local,class=CODE,delta=2
 12996                           global __ptext4277
 12997  1FA6                     __ptext4277:
 12998                           
 12999 ;; *************** function _SendUartByte *****************
 13000 ;; Defined at:
 13001 ;;		line 35 in file "C:\Users\GauravLT\Desktop\Finger Print Sensor\R307\PIC16F877A_R307\FingerPrintSensor_R307.c"
 13002 ;; Parameters:    Size  Location     Type
 13003 ;;  val             1    wreg     unsigned char 
 13004 ;; Auto vars:     Size  Location     Type
 13005 ;;  val             1    0[BANK0 ] unsigned char 
 13006 ;; Return value:  Size  Location     Type
 13007 ;;		None               void
 13008 ;; Registers used:
 13009 ;;		wreg
 13010 ;; Tracked objects:
 13011 ;;		On entry : 0/0
 13012 ;;		On exit  : 0/0
 13013 ;;		Unchanged: 0/0
 13014 ;; Data sizes:     COMMON   BANK0   BANK1   BANK3   BANK2
 13015 ;;      Params:         0       0       0       0       0
 13016 ;;      Locals:         0       1       0       0       0
 13017 ;;      Temps:          0       0       0       0       0
 13018 ;;      Totals:         0       1       0       0       0
 13019 ;;Total ram usage:        1 bytes
 13020 ;; Hardware stack levels used:    1
 13021 ;; Hardware stack levels required when called:    2
 13022 ;; This function calls:
 13023 ;;		Nothing
 13024 ;; This function is called by:
 13025 ;;		_SendUartValue
 13026 ;;		_sendPackage
 13027 ;;		_SendUartString
 13028 ;; This function uses a non-reentrant model
 13029 ;;
 13030                           psect	text4277
 13031                           	file	"C:\Users\GauravLT\Desktop\Finger Print Sensor\R307\PIC16F877A_R307\FingerPrintSen
                                 sor_R307.c"
 13032                           	line	35
 13033                           	global	__size_of_SendUartByte
 13034  000D                     	__size_of_SendUartByte	equ	__end_of_SendUartByte-_SendUartByte
 13035                           	
 13036  1FA6                     _SendUartByte:	
 13037                           	opt	stack 2
 13038                           ; Regs used in _SendUartByte: [wreg]
 13039                           ;SendUartByte@val stored from wreg
 13040                           	line	43
 13041  1FA6  1283               	bcf	status, 5	;RP0=0, select bank0
 13042  1FA7  1303               	bcf	status, 6	;RP1=0, select bank0
 13043  1FA8  00A0               	movwf	(SendUartByte@val)
 13044                           	
 13045  1FA9                     l13512:	
 13046                           ;FingerPrintSensor_R307.c: 42: {
 13047                           ;FingerPrintSensor_R307.c: 43: TXIF=0;
 13048  1FA9  120C               	bcf	(100/8),(100)&7
 13049                           	line	44
 13050                           	
 13051  1FAA                     l13514:	
 13052                           ;FingerPrintSensor_R307.c: 44: TXREG=val;
 13053  1FAA  0820               	movf	(SendUartByte@val),w
 13054  1FAB  0099               	movwf	(25)	;volatile
 13055                           	line	45
 13056                           ;FingerPrintSensor_R307.c: 45: while(TXIF==0);
 13057  1FAC  2FAD               	goto	l3013
 13058                           	
 13059  1FAD                     l3014:	
 13060                           	
 13061  1FAD                     l3013:	
 13062  1FAD  1E0C               	btfss	(100/8),(100)&7
 13063  1FAE  2FB0               	goto	u13441
 13064  1FAF  2FB1               	goto	u13440
 13065  1FB0                     u13441:
 13066  1FB0  2FAD               	goto	l3013
 13067  1FB1                     u13440:
 13068  1FB1  2FB2               	goto	l3016
 13069                           	
 13070  1FB2                     l3015:	
 13071                           	line	47
 13072                           	
 13073  1FB2                     l3016:	
 13074  1FB2  0008               	return
 13075                           	opt stack 0
 13076                           GLOBAL	__end_of_SendUartByte
 13077  1FB3                     	__end_of_SendUartByte:
 13078 ;; =============== function _SendUartByte ends ============
 13079                           
 13080                           	signat	_SendUartByte,4216
 13081                           	global	_UartInit
 13082                           psect	text4278,local,class=CODE,delta=2
 13083                           global __ptext4278
 13084  1FB3                     __ptext4278:
 13085                           
 13086 ;; *************** function _UartInit *****************
 13087 ;; Defined at:
 13088 ;;		line 20 in file "C:\Users\GauravLT\Desktop\Finger Print Sensor\R307\PIC16F877A_R307\FingerPrintSensor_R307.c"
 13089 ;; Parameters:    Size  Location     Type
 13090 ;;		None
 13091 ;; Auto vars:     Size  Location     Type
 13092 ;;		None
 13093 ;; Return value:  Size  Location     Type
 13094 ;;		None               void
 13095 ;; Registers used:
 13096 ;;		wreg
 13097 ;; Tracked objects:
 13098 ;;		On entry : 0/0
 13099 ;;		On exit  : 0/0
 13100 ;;		Unchanged: 0/0
 13101 ;; Data sizes:     COMMON   BANK0   BANK1   BANK3   BANK2
 13102 ;;      Params:         0       0       0       0       0
 13103 ;;      Locals:         0       0       0       0       0
 13104 ;;      Temps:          0       0       0       0       0
 13105 ;;      Totals:         0       0       0       0       0
 13106 ;;Total ram usage:        0 bytes
 13107 ;; Hardware stack levels used:    1
 13108 ;; Hardware stack levels required when called:    2
 13109 ;; This function calls:
 13110 ;;		Nothing
 13111 ;; This function is called by:
 13112 ;;		_main
 13113 ;; This function uses a non-reentrant model
 13114 ;;
 13115                           psect	text4278
 13116                           	file	"C:\Users\GauravLT\Desktop\Finger Print Sensor\R307\PIC16F877A_R307\FingerPrintSen
                                 sor_R307.c"
 13117                           	line	20
 13118                           	global	__size_of_UartInit
 13119  0010                     	__size_of_UartInit	equ	__end_of_UartInit-_UartInit
 13120                           	
 13121  1FB3                     _UartInit:	
 13122                           	opt	stack 5
 13123                           ; Regs used in _UartInit: [wreg]
 13124                           	line	22
 13125                           	
 13126  1FB3                     l12254:	
 13127                           ;FingerPrintSensor_R307.c: 22: GIE = 1;
 13128  1FB3  178B               	bsf	(95/8),(95)&7
 13129                           	line	23
 13130                           ;FingerPrintSensor_R307.c: 23: PEIE = 1;
 13131  1FB4  170B               	bsf	(94/8),(94)&7
 13132                           	line	24
 13133                           ;FingerPrintSensor_R307.c: 24: RCIE = 1;
 13134  1FB5  1683               	bsf	status, 5	;RP0=1, select bank1
 13135  1FB6  1303               	bcf	status, 6	;RP1=0, select bank1
 13136  1FB7  168C               	bsf	(1125/8)^080h,(1125)&7
 13137                           	line	27
 13138                           	
 13139  1FB8                     l12256:	
 13140                           ;FingerPrintSensor_R307.c: 27: TXSTA=0x24;
 13141  1FB8  3024               	movlw	(024h)
 13142  1FB9  0098               	movwf	(152)^080h	;volatile
 13143                           	line	28
 13144                           ;FingerPrintSensor_R307.c: 28: RCSTA=0x90;
 13145  1FBA  3090               	movlw	(090h)
 13146  1FBB  1283               	bcf	status, 5	;RP0=0, select bank0
 13147  1FBC  1303               	bcf	status, 6	;RP1=0, select bank0
 13148  1FBD  0098               	movwf	(24)	;volatile
 13149                           	line	29
 13150                           ;FingerPrintSensor_R307.c: 29: SPBRG=20;
 13151  1FBE  3014               	movlw	(014h)
 13152  1FBF  1683               	bsf	status, 5	;RP0=1, select bank1
 13153  1FC0  1303               	bcf	status, 6	;RP1=0, select bank1
 13154  1FC1  0099               	movwf	(153)^080h	;volatile
 13155                           	line	30
 13156                           	
 13157  1FC2                     l3010:	
 13158  1FC2  0008               	return
 13159                           	opt stack 0
 13160                           GLOBAL	__end_of_UartInit
 13161  1FC3                     	__end_of_UartInit:
 13162 ;; =============== function _UartInit ends ============
 13163                           
 13164                           	signat	_UartInit,88
 13165                           	global	_GetKey
 13166                           psect	text4279,local,class=CODE,delta=2
 13167                           global __ptext4279
 13168  1019                     __ptext4279:
 13169                           
 13170 ;; *************** function _GetKey *****************
 13171 ;; Defined at:
 13172 ;;		line 36 in file "C:\Users\GauravLT\Desktop\Finger Print Sensor\R307\PIC16F877A_R307\keypd.c"
 13173 ;; Parameters:    Size  Location     Type
 13174 ;;		None
 13175 ;; Auto vars:     Size  Location     Type
 13176 ;;  key             1    1[BANK0 ] unsigned char 
 13177 ;; Return value:  Size  Location     Type
 13178 ;;                  1    wreg      unsigned char 
 13179 ;; Registers used:
 13180 ;;		wreg, fsr0l, fsr0h, status,2, status,0
 13181 ;; Tracked objects:
 13182 ;;		On entry : 0/0
 13183 ;;		On exit  : 0/0
 13184 ;;		Unchanged: 0/0
 13185 ;; Data sizes:     COMMON   BANK0   BANK1   BANK3   BANK2
 13186 ;;      Params:         0       0       0       0       0
 13187 ;;      Locals:         0       1       0       0       0
 13188 ;;      Temps:          0       1       0       0       0
 13189 ;;      Totals:         0       2       0       0       0
 13190 ;;Total ram usage:        2 bytes
 13191 ;; Hardware stack levels used:    1
 13192 ;; Hardware stack levels required when called:    2
 13193 ;; This function calls:
 13194 ;;		Nothing
 13195 ;; This function is called by:
 13196 ;;		_DeleteUserAfterAdminConfirm
 13197 ;;		_menu
 13198 ;;		_HiSpeedScan0
 13199 ;;		_AddNewUser
 13200 ;; This function uses a non-reentrant model
 13201 ;;
 13202                           psect	text4279
 13203                           	file	"C:\Users\GauravLT\Desktop\Finger Print Sensor\R307\PIC16F877A_R307\keypd.c"
 13204                           	line	36
 13205                           	global	__size_of_GetKey
 13206  0019                     	__size_of_GetKey	equ	__end_of_GetKey-_GetKey
 13207                           	
 13208  1019                     _GetKey:	
 13209                           	opt	stack 4
 13210                           ; Regs used in _GetKey: [wreg-fsr0h+status,2+status,0]
 13211                           	line	37
 13212                           	
 13213  1019                     l13502:	
 13214                           ;keypd.c: 37: unsigned char key = KeypdBuffer[OxPtr];
 13215  1019  0877               	movf	(_OxPtr),w
 13216  101A  3E90               	addlw	_KeypdBuffer&0ffh
 13217  101B  0084               	movwf	fsr0
 13218  101C  1783               	bsf	status, 7	;select IRP bank3
 13219  101D  0800               	movf	indf,w
 13220  101E  1283               	bcf	status, 5	;RP0=0, select bank0
 13221  101F  1303               	bcf	status, 6	;RP1=0, select bank0
 13222  1020  00A0               	movwf	(??_GetKey+0)+0
 13223  1021  0820               	movf	(??_GetKey+0)+0,w
 13224  1022  00A1               	movwf	(GetKey@key)
 13225                           	line	38
 13226                           	
 13227  1023                     l13504:	
 13228                           ;keypd.c: 38: if(++OxPtr == 20)
 13229  1023  3001               	movlw	(01h)
 13230  1024  00A0               	movwf	(??_GetKey+0)+0
 13231  1025  0820               	movf	(??_GetKey+0)+0,w
 13232  1026  07F7               	addwf	(_OxPtr),f
 13233  1027  0877               	movf	((_OxPtr)),w
 13234  1028  3A14               	xorlw	014h
 13235  1029  1D03               	skipz
 13236  102A  282C               	goto	u13431
 13237  102B  282D               	goto	u13430
 13238  102C                     u13431:
 13239  102C  282F               	goto	l13508
 13240  102D                     u13430:
 13241                           	line	39
 13242                           	
 13243  102D                     l13506:	
 13244                           ;keypd.c: 39: OxPtr = 0;
 13245  102D  01F7               	clrf	(_OxPtr)
 13246  102E  282F               	goto	l13508
 13247                           	
 13248  102F                     l2275:	
 13249                           	line	41
 13250                           	
 13251  102F                     l13508:	
 13252                           ;keypd.c: 41: return key;
 13253  102F  0821               	movf	(GetKey@key),w
 13254  1030  2831               	goto	l2276
 13255                           	
 13256  1031                     l13510:	
 13257                           	line	42
 13258                           	
 13259  1031                     l2276:	
 13260  1031  0008               	return
 13261                           	opt stack 0
 13262                           GLOBAL	__end_of_GetKey
 13263  1032                     	__end_of_GetKey:
 13264 ;; =============== function _GetKey ends ============
 13265                           
 13266                           	signat	_GetKey,89
 13267                           	global	_IsKeyPending
 13268                           psect	text4280,local,class=CODE,delta=2
 13269                           global __ptext4280
 13270  1F98                     __ptext4280:
 13271                           
 13272 ;; *************** function _IsKeyPending *****************
 13273 ;; Defined at:
 13274 ;;		line 19 in file "C:\Users\GauravLT\Desktop\Finger Print Sensor\R307\PIC16F877A_R307\keypd.c"
 13275 ;; Parameters:    Size  Location     Type
 13276 ;;		None
 13277 ;; Auto vars:     Size  Location     Type
 13278 ;;		None
 13279 ;; Return value:  Size  Location     Type
 13280 ;;                  1    wreg      unsigned char 
 13281 ;; Registers used:
 13282 ;;		wreg
 13283 ;; Tracked objects:
 13284 ;;		On entry : 0/0
 13285 ;;		On exit  : 0/0
 13286 ;;		Unchanged: 0/0
 13287 ;; Data sizes:     COMMON   BANK0   BANK1   BANK3   BANK2
 13288 ;;      Params:         0       0       0       0       0
 13289 ;;      Locals:         0       0       0       0       0
 13290 ;;      Temps:          0       0       0       0       0
 13291 ;;      Totals:         0       0       0       0       0
 13292 ;;Total ram usage:        0 bytes
 13293 ;; Hardware stack levels used:    1
 13294 ;; Hardware stack levels required when called:    2
 13295 ;; This function calls:
 13296 ;;		Nothing
 13297 ;; This function is called by:
 13298 ;;		_DeleteUserAfterAdminConfirm
 13299 ;;		_menu
 13300 ;;		_HiSpeedScan0
 13301 ;;		_AddNewUser
 13302 ;; This function uses a non-reentrant model
 13303 ;;
 13304                           psect	text4280
 13305                           	file	"C:\Users\GauravLT\Desktop\Finger Print Sensor\R307\PIC16F877A_R307\keypd.c"
 13306                           	line	19
 13307                           	global	__size_of_IsKeyPending
 13308  0007                     	__size_of_IsKeyPending	equ	__end_of_IsKeyPending-_IsKeyPending
 13309                           	
 13310  1F98                     _IsKeyPending:	
 13311                           	opt	stack 4
 13312                           ; Regs used in _IsKeyPending: [wreg]
 13313                           	line	20
 13314                           	
 13315  1F98                     l13498:	
 13316                           ;keypd.c: 20: return IxPtr != OxPtr;
 13317  1F98  0876               	movf	(_IxPtr),w
 13318  1F99  0677               	xorwf	(_OxPtr),w
 13319  1F9A  3000               	movlw	0
 13320  1F9B  1D03               	skipz
 13321  1F9C  3001               	movlw	1
 13322  1F9D  2F9E               	goto	l2268
 13323                           	
 13324  1F9E                     l13500:	
 13325                           	line	21
 13326                           	
 13327  1F9E                     l2268:	
 13328  1F9E  0008               	return
 13329                           	opt stack 0
 13330                           GLOBAL	__end_of_IsKeyPending
 13331  1F9F                     	__end_of_IsKeyPending:
 13332 ;; =============== function _IsKeyPending ends ============
 13333                           
 13334                           	signat	_IsKeyPending,89
 13335                           	global	_ee_write
 13336                           psect	text4281,local,class=CODE,delta=2
 13337                           global __ptext4281
 13338  07D8                     __ptext4281:
 13339                           
 13340 ;; *************** function _ee_write *****************
 13341 ;; Defined at:
 13342 ;;		line 39 in file "C:\Users\GauravLT\Desktop\Finger Print Sensor\R307\PIC16F877A_R307\eeprom.c"
 13343 ;; Parameters:    Size  Location     Type
 13344 ;;  a               1    wreg     unsigned char 
 13345 ;;  d               1    3[BANK0 ] unsigned char 
 13346 ;; Auto vars:     Size  Location     Type
 13347 ;;  a               1    4[BANK0 ] unsigned char 
 13348 ;; Return value:  Size  Location     Type
 13349 ;;		None               void
 13350 ;; Registers used:
 13351 ;;		wreg
 13352 ;; Tracked objects:
 13353 ;;		On entry : 0/0
 13354 ;;		On exit  : 0/0
 13355 ;;		Unchanged: 0/0
 13356 ;; Data sizes:     COMMON   BANK0   BANK1   BANK3   BANK2
 13357 ;;      Params:         0       1       0       0       0
 13358 ;;      Locals:         0       1       0       0       0
 13359 ;;      Temps:          0       0       0       0       0
 13360 ;;      Totals:         0       2       0       0       0
 13361 ;;Total ram usage:        2 bytes
 13362 ;; Hardware stack levels used:    1
 13363 ;; Hardware stack levels required when called:    2
 13364 ;; This function calls:
 13365 ;;		Nothing
 13366 ;; This function is called by:
 13367 ;;		_EraseAllUsersAfterAdminConfirm
 13368 ;;		_ee_eraseNPos
 13369 ;;		_reserveEElocation
 13370 ;;		_releaseEElocation
 13371 ;; This function uses a non-reentrant model
 13372 ;;
 13373                           psect	text4281
 13374                           	file	"C:\Users\GauravLT\Desktop\Finger Print Sensor\R307\PIC16F877A_R307\eeprom.c"
 13375                           	line	39
 13376                           	global	__size_of_ee_write
 13377  0028                     	__size_of_ee_write	equ	__end_of_ee_write-_ee_write
 13378                           	
 13379  07D8                     _ee_write:	
 13380                           	opt	stack 3
 13381                           ; Regs used in _ee_write: [wreg]
 13382                           ;ee_write@a stored from wreg
 13383                           	line	41
 13384  07D8  1283               	bcf	status, 5	;RP0=0, select bank0
 13385  07D9  1303               	bcf	status, 6	;RP1=0, select bank0
 13386  07DA  00A4               	movwf	(ee_write@a)
 13387                           	line	40
 13388                           ;eeprom.c: 40: again:
 13389                           	
 13390  07DB                     l3923:	
 13391                           	line	41
 13392                           ;eeprom.c: 41: EEPGD=0;
 13393  07DB  1683               	bsf	status, 5	;RP0=1, select bank3
 13394  07DC  1703               	bsf	status, 6	;RP1=1, select bank3
 13395  07DD  138C               	bcf	(3175/8)^0180h,(3175)&7
 13396                           	line	42
 13397                           	
 13398  07DE                     l13488:	
 13399                           ;eeprom.c: 42: EEADR=a;
 13400  07DE  1283               	bcf	status, 5	;RP0=0, select bank0
 13401  07DF  1303               	bcf	status, 6	;RP1=0, select bank0
 13402  07E0  0824               	movf	(ee_write@a),w
 13403  07E1  1283               	bcf	status, 5	;RP0=0, select bank2
 13404  07E2  1703               	bsf	status, 6	;RP1=1, select bank2
 13405  07E3  008D               	movwf	(269)^0100h	;volatile
 13406                           	line	43
 13407                           ;eeprom.c: 43: EEDATA=d;
 13408  07E4  1283               	bcf	status, 5	;RP0=0, select bank0
 13409  07E5  1303               	bcf	status, 6	;RP1=0, select bank0
 13410  07E6  0823               	movf	(ee_write@d),w
 13411  07E7  1283               	bcf	status, 5	;RP0=0, select bank2
 13412  07E8  1703               	bsf	status, 6	;RP1=1, select bank2
 13413  07E9  008C               	movwf	(268)^0100h	;volatile
 13414                           	line	44
 13415                           	
 13416  07EA                     l13490:	
 13417                           ;eeprom.c: 44: WRERR=0;
 13418  07EA  1683               	bsf	status, 5	;RP0=1, select bank3
 13419  07EB  1703               	bsf	status, 6	;RP1=1, select bank3
 13420  07EC  118C               	bcf	(3171/8)^0180h,(3171)&7
 13421                           	line	45
 13422                           	
 13423  07ED                     l13492:	
 13424                           ;eeprom.c: 45: WREN=1;
 13425  07ED  150C               	bsf	(3170/8)^0180h,(3170)&7
 13426                           	line	46
 13427                           ;eeprom.c: 46: EECON2=0X55;
 13428  07EE  3055               	movlw	(055h)
 13429  07EF  008D               	movwf	(397)^0180h	;volatile
 13430                           	line	47
 13431                           ;eeprom.c: 47: EECON2=0XAA;
 13432  07F0  30AA               	movlw	(0AAh)
 13433  07F1  008D               	movwf	(397)^0180h	;volatile
 13434                           	line	48
 13435                           	
 13436  07F2                     l13494:	
 13437                           ;eeprom.c: 48: WR=1;
 13438  07F2  148C               	bsf	(3169/8)^0180h,(3169)&7
 13439                           	line	49
 13440                           ;eeprom.c: 49: while(WR==1)
 13441  07F3  2FF5               	goto	l3924
 13442                           	
 13443  07F4                     l3925:	
 13444                           	line	50
 13445                           ;eeprom.c: 50: WREN=0;
 13446  07F4  110C               	bcf	(3170/8)^0180h,(3170)&7
 13447                           	
 13448  07F5                     l3924:	
 13449                           	line	49
 13450  07F5  188C               	btfsc	(3169/8)^0180h,(3169)&7
 13451  07F6  2FF8               	goto	u13411
 13452  07F7  2FF9               	goto	u13410
 13453  07F8                     u13411:
 13454  07F8  2FF4               	goto	l3925
 13455  07F9                     u13410:
 13456                           	
 13457  07F9                     l3926:	
 13458                           	line	51
 13459                           ;eeprom.c: 51: if(WRERR==1)
 13460  07F9  1D8C               	btfss	(3171/8)^0180h,(3171)&7
 13461  07FA  2FFC               	goto	u13421
 13462  07FB  2FFD               	goto	u13420
 13463  07FC                     u13421:
 13464  07FC  2FFF               	goto	l3928
 13465  07FD                     u13420:
 13466  07FD  2FDB               	goto	l3923
 13467                           	line	53
 13468                           	
 13469  07FE                     l13496:	
 13470                           ;eeprom.c: 52: {
 13471                           ;eeprom.c: 53: goto again;
 13472  07FE  2FDB               	goto	l3923
 13473                           	line	54
 13474                           	
 13475  07FF                     l3927:	
 13476                           	line	55
 13477                           	
 13478  07FF                     l3928:	
 13479  07FF  0008               	return
 13480                           	opt stack 0
 13481                           GLOBAL	__end_of_ee_write
 13482  0800                     	__end_of_ee_write:
 13483 ;; =============== function _ee_write ends ============
 13484                           
 13485                           	signat	_ee_write,8312
 13486                           	global	_ee_read
 13487                           psect	text4282,local,class=CODE,delta=2
 13488                           global __ptext4282
 13489  106D                     __ptext4282:
 13490                           
 13491 ;; *************** function _ee_read *****************
 13492 ;; Defined at:
 13493 ;;		line 59 in file "C:\Users\GauravLT\Desktop\Finger Print Sensor\R307\PIC16F877A_R307\eeprom.c"
 13494 ;; Parameters:    Size  Location     Type
 13495 ;;  a               1    wreg     unsigned char 
 13496 ;; Auto vars:     Size  Location     Type
 13497 ;;  a               1    1[BANK0 ] unsigned char 
 13498 ;;  d               1    2[BANK0 ] unsigned char 
 13499 ;; Return value:  Size  Location     Type
 13500 ;;                  1    wreg      unsigned char 
 13501 ;; Registers used:
 13502 ;;		wreg
 13503 ;; Tracked objects:
 13504 ;;		On entry : 0/0
 13505 ;;		On exit  : 0/0
 13506 ;;		Unchanged: 0/0
 13507 ;; Data sizes:     COMMON   BANK0   BANK1   BANK3   BANK2
 13508 ;;      Params:         0       0       0       0       0
 13509 ;;      Locals:         0       2       0       0       0
 13510 ;;      Temps:          0       1       0       0       0
 13511 ;;      Totals:         0       3       0       0       0
 13512 ;;Total ram usage:        3 bytes
 13513 ;; Hardware stack levels used:    1
 13514 ;; Hardware stack levels required when called:    2
 13515 ;; This function calls:
 13516 ;;		Nothing
 13517 ;; This function is called by:
 13518 ;;		_EraseAllUsersAfterAdminConfirm
 13519 ;;		_AlterAdminUser
 13520 ;;		_AddNewUserAfterAdminConfirm
 13521 ;;		_DeleteUserAfterAdminConfirm
 13522 ;;		_getNextAvailLocation
 13523 ;;		_reserveEElocation
 13524 ;;		_releaseEElocation
 13525 ;; This function uses a non-reentrant model
 13526 ;;
 13527                           psect	text4282
 13528                           	file	"C:\Users\GauravLT\Desktop\Finger Print Sensor\R307\PIC16F877A_R307\eeprom.c"
 13529                           	line	59
 13530                           	global	__size_of_ee_read
 13531  0021                     	__size_of_ee_read	equ	__end_of_ee_read-_ee_read
 13532                           	
 13533  106D                     _ee_read:	
 13534                           	opt	stack 3
 13535                           ; Regs used in _ee_read: [wreg]
 13536                           ;ee_read@a stored from wreg
 13537                           	line	61
 13538  106D  1283               	bcf	status, 5	;RP0=0, select bank0
 13539  106E  1303               	bcf	status, 6	;RP1=0, select bank0
 13540  106F  00A1               	movwf	(ee_read@a)
 13541                           	
 13542  1070                     l13476:	
 13543                           ;eeprom.c: 60: unsigned char d;
 13544                           ;eeprom.c: 61: EEPGD=0;
 13545  1070  1683               	bsf	status, 5	;RP0=1, select bank3
 13546  1071  1703               	bsf	status, 6	;RP1=1, select bank3
 13547  1072  138C               	bcf	(3175/8)^0180h,(3175)&7
 13548                           	line	62
 13549                           	
 13550  1073                     l13478:	
 13551                           ;eeprom.c: 62: EEADR=a;
 13552  1073  1283               	bcf	status, 5	;RP0=0, select bank0
 13553  1074  1303               	bcf	status, 6	;RP1=0, select bank0
 13554  1075  0821               	movf	(ee_read@a),w
 13555  1076  1283               	bcf	status, 5	;RP0=0, select bank2
 13556  1077  1703               	bsf	status, 6	;RP1=1, select bank2
 13557  1078  008D               	movwf	(269)^0100h	;volatile
 13558                           	line	63
 13559                           	
 13560  1079                     l13480:	
 13561                           ;eeprom.c: 63: WREN=0;
 13562  1079  1683               	bsf	status, 5	;RP0=1, select bank3
 13563  107A  1703               	bsf	status, 6	;RP1=1, select bank3
 13564  107B  110C               	bcf	(3170/8)^0180h,(3170)&7
 13565                           	line	64
 13566                           	
 13567  107C                     l13482:	
 13568                           ;eeprom.c: 64: RD=1;
 13569  107C  140C               	bsf	(3168/8)^0180h,(3168)&7
 13570                           	line	65
 13571                           ;eeprom.c: 65: while(RD==1);
 13572  107D  287E               	goto	l3931
 13573                           	
 13574  107E                     l3932:	
 13575                           	
 13576  107E                     l3931:	
 13577  107E  180C               	btfsc	(3168/8)^0180h,(3168)&7
 13578  107F  2881               	goto	u13401
 13579  1080  2882               	goto	u13400
 13580  1081                     u13401:
 13581  1081  287E               	goto	l3931
 13582  1082                     u13400:
 13583  1082  2883               	goto	l13484
 13584                           	
 13585  1083                     l3933:	
 13586                           	line	66
 13587                           	
 13588  1083                     l13484:	
 13589                           ;eeprom.c: 66: d=EEDATA;
 13590  1083  1283               	bcf	status, 5	;RP0=0, select bank2
 13591  1084  1703               	bsf	status, 6	;RP1=1, select bank2
 13592  1085  080C               	movf	(268)^0100h,w	;volatile
 13593  1086  1283               	bcf	status, 5	;RP0=0, select bank0
 13594  1087  1303               	bcf	status, 6	;RP1=0, select bank0
 13595  1088  00A0               	movwf	(??_ee_read+0)+0
 13596  1089  0820               	movf	(??_ee_read+0)+0,w
 13597  108A  00A2               	movwf	(ee_read@d)
 13598                           	line	67
 13599                           ;eeprom.c: 67: return d;
 13600  108B  0822               	movf	(ee_read@d),w
 13601  108C  288D               	goto	l3934
 13602                           	
 13603  108D                     l13486:	
 13604                           	line	68
 13605                           	
 13606  108D                     l3934:	
 13607  108D  0008               	return
 13608                           	opt stack 0
 13609                           GLOBAL	__end_of_ee_read
 13610  108E                     	__end_of_ee_read:
 13611 ;; =============== function _ee_read ends ============
 13612                           
 13613                           	signat	_ee_read,4217
 13614                           	global	_memset1
 13615                           psect	text4283,local,class=CODE,delta=2
 13616                           global __ptext4283
 13617  10D0                     __ptext4283:
 13618                           
 13619 ;; *************** function _memset1 *****************
 13620 ;; Defined at:
 13621 ;;		line 87 in file "C:\Users\GauravLT\Desktop\Finger Print Sensor\R307\PIC16F877A_R307\eeprom.c"
 13622 ;; Parameters:    Size  Location     Type
 13623 ;;  str             2    0[BANK0 ] PTR unsigned char 
 13624 ;;		 -> FillUpResponse@_Response(12), ControlAccess@buff(10), LcdBuffer(32), 
 13625 ;;  data            1    2[BANK0 ] unsigned char 
 13626 ;;  len             2    3[BANK0 ] unsigned int 
 13627 ;; Auto vars:     Size  Location     Type
 13628 ;;		None
 13629 ;; Return value:  Size  Location     Type
 13630 ;;		None               void
 13631 ;; Registers used:
 13632 ;;		wreg, fsr0l, fsr0h, status,2, status,0
 13633 ;; Tracked objects:
 13634 ;;		On entry : 0/0
 13635 ;;		On exit  : 0/0
 13636 ;;		Unchanged: 0/0
 13637 ;; Data sizes:     COMMON   BANK0   BANK1   BANK3   BANK2
 13638 ;;      Params:         0       5       0       0       0
 13639 ;;      Locals:         0       0       0       0       0
 13640 ;;      Temps:          0       3       0       0       0
 13641 ;;      Totals:         0       8       0       0       0
 13642 ;;Total ram usage:        8 bytes
 13643 ;; Hardware stack levels used:    1
 13644 ;; Hardware stack levels required when called:    2
 13645 ;; This function calls:
 13646 ;;		Nothing
 13647 ;; This function is called by:
 13648 ;;		_LcdClear
 13649 ;;		_ControlAccess
 13650 ;;		_FillUpResponse
 13651 ;; This function uses a non-reentrant model
 13652 ;;
 13653                           psect	text4283
 13654                           	file	"C:\Users\GauravLT\Desktop\Finger Print Sensor\R307\PIC16F877A_R307\eeprom.c"
 13655                           	line	87
 13656                           	global	__size_of_memset1
 13657  0024                     	__size_of_memset1	equ	__end_of_memset1-_memset1
 13658                           	
 13659  10D0                     _memset1:	
 13660                           	opt	stack 2
 13661                           ; Regs used in _memset1: [wreg-fsr0h+status,2+status,0]
 13662                           	line	88
 13663                           	
 13664  10D0                     l13464:	
 13665                           ;eeprom.c: 88: while(len>0)
 13666  10D0  28EA               	goto	l13470
 13667                           	
 13668  10D1                     l3950:	
 13669                           	line	90
 13670                           	
 13671  10D1                     l13466:	
 13672                           ;eeprom.c: 89: {
 13673                           ;eeprom.c: 90: len--;
 13674  10D1  3001               	movlw	low(01h)
 13675  10D2  1283               	bcf	status, 5	;RP0=0, select bank0
 13676  10D3  1303               	bcf	status, 6	;RP1=0, select bank0
 13677  10D4  02A3               	subwf	(memset1@len),f
 13678  10D5  3000               	movlw	high(01h)
 13679  10D6  1C03               	skipc
 13680  10D7  03A4               	decf	(memset1@len+1),f
 13681  10D8  02A4               	subwf	(memset1@len+1),f
 13682                           	line	91
 13683                           	
 13684  10D9                     l13468:	
 13685                           ;eeprom.c: 91: *(str+len)=data;
 13686  10D9  0822               	movf	(memset1@data),w
 13687  10DA  00A5               	movwf	(??_memset1+0)+0
 13688  10DB  0823               	movf	(memset1@len),w
 13689  10DC  0720               	addwf	(memset1@str),w
 13690  10DD  00A6               	movwf	(??_memset1+1)+0
 13691  10DE  0821               	movf	(memset1@str+1),w
 13692  10DF  1803               	skipnc
 13693  10E0  3E01               	addlw	1
 13694  10E1  00A7               	movwf	1+((??_memset1+1)+0)
 13695  10E2  0826               	movf	0+(??_memset1+1)+0,w
 13696  10E3  0084               	movwf	fsr0
 13697  10E4  1783               	bsf	status,7
 13698  10E5  1C27               	btfss	1+(??_memset1+1)+0,0
 13699  10E6  1383               	bcf	status,7
 13700  10E7  0825               	movf	(??_memset1+0)+0,w
 13701  10E8  0080               	movwf	indf
 13702  10E9  28EA               	goto	l13470
 13703                           	line	92
 13704                           	
 13705  10EA                     l3949:	
 13706                           	line	88
 13707                           	
 13708  10EA                     l13470:	
 13709  10EA  1283               	bcf	status, 5	;RP0=0, select bank0
 13710  10EB  1303               	bcf	status, 6	;RP1=0, select bank0
 13711  10EC  0824               	movf	((memset1@len+1)),w
 13712  10ED  0423               	iorwf	((memset1@len)),w
 13713  10EE  1D03               	skipz
 13714  10EF  28F1               	goto	u13381
 13715  10F0  28F2               	goto	u13380
 13716  10F1                     u13381:
 13717  10F1  28D1               	goto	l13466
 13718  10F2                     u13380:
 13719  10F2  28F3               	goto	l3952
 13720                           	
 13721  10F3                     l3951:	
 13722                           	line	93
 13723                           	
 13724  10F3                     l3952:	
 13725  10F3  0008               	return
 13726                           	opt stack 0
 13727                           GLOBAL	__end_of_memset1
 13728  10F4                     	__end_of_memset1:
 13729 ;; =============== function _memset1 ends ============
 13730                           
 13731                           	signat	_memset1,12408
 13732                           	global	_LcdDelay
 13733                           psect	text4284,local,class=CODE,delta=2
 13734                           global __ptext4284
 13735  1FD6                     __ptext4284:
 13736                           
 13737 ;; *************** function _LcdDelay *****************
 13738 ;; Defined at:
 13739 ;;		line 72 in file "C:\Users\GauravLT\Desktop\Finger Print Sensor\R307\PIC16F877A_R307\lcd.c"
 13740 ;; Parameters:    Size  Location     Type
 13741 ;;  d               2    0[BANK0 ] unsigned int 
 13742 ;; Auto vars:     Size  Location     Type
 13743 ;;		None
 13744 ;; Return value:  Size  Location     Type
 13745 ;;		None               void
 13746 ;; Registers used:
 13747 ;;		wreg, status,2, status,0
 13748 ;; Tracked objects:
 13749 ;;		On entry : 0/0
 13750 ;;		On exit  : 0/0
 13751 ;;		Unchanged: 0/0
 13752 ;; Data sizes:     COMMON   BANK0   BANK1   BANK3   BANK2
 13753 ;;      Params:         0       2       0       0       0
 13754 ;;      Locals:         0       0       0       0       0
 13755 ;;      Temps:          0       0       0       0       0
 13756 ;;      Totals:         0       2       0       0       0
 13757 ;;Total ram usage:        2 bytes
 13758 ;; Hardware stack levels used:    1
 13759 ;; Hardware stack levels required when called:    2
 13760 ;; This function calls:
 13761 ;;		Nothing
 13762 ;; This function is called by:
 13763 ;;		_LcdInit
 13764 ;;		_SendByte
 13765 ;;		_PutKey
 13766 ;; This function uses a non-reentrant model
 13767 ;;
 13768                           psect	text4284
 13769                           	file	"C:\Users\GauravLT\Desktop\Finger Print Sensor\R307\PIC16F877A_R307\lcd.c"
 13770                           	line	72
 13771                           	global	__size_of_LcdDelay
 13772  0014                     	__size_of_LcdDelay	equ	__end_of_LcdDelay-_LcdDelay
 13773                           	
 13774  1FD6                     _LcdDelay:	
 13775                           	opt	stack 2
 13776                           ; Regs used in _LcdDelay: [wreg+status,2+status,0]
 13777                           	line	73
 13778                           	
 13779  1FD6                     l13458:	
 13780                           ;lcd.c: 73: while(d>0) d--;
 13781  1FD6  2FE0               	goto	l13462
 13782                           	
 13783  1FD7                     l723:	
 13784                           	
 13785  1FD7                     l13460:	
 13786  1FD7  3001               	movlw	low(01h)
 13787  1FD8  1283               	bcf	status, 5	;RP0=0, select bank0
 13788  1FD9  1303               	bcf	status, 6	;RP1=0, select bank0
 13789  1FDA  02A0               	subwf	(LcdDelay@d),f
 13790  1FDB  3000               	movlw	high(01h)
 13791  1FDC  1C03               	skipc
 13792  1FDD  03A1               	decf	(LcdDelay@d+1),f
 13793  1FDE  02A1               	subwf	(LcdDelay@d+1),f
 13794  1FDF  2FE0               	goto	l13462
 13795                           	
 13796  1FE0                     l722:	
 13797                           	
 13798  1FE0                     l13462:	
 13799  1FE0  1283               	bcf	status, 5	;RP0=0, select bank0
 13800  1FE1  1303               	bcf	status, 6	;RP1=0, select bank0
 13801  1FE2  0821               	movf	((LcdDelay@d+1)),w
 13802  1FE3  0420               	iorwf	((LcdDelay@d)),w
 13803  1FE4  1D03               	skipz
 13804  1FE5  2FE7               	goto	u13371
 13805  1FE6  2FE8               	goto	u13370
 13806  1FE7                     u13371:
 13807  1FE7  2FD7               	goto	l13460
 13808  1FE8                     u13370:
 13809  1FE8  2FE9               	goto	l725
 13810                           	
 13811  1FE9                     l724:	
 13812                           	line	74
 13813                           	
 13814  1FE9                     l725:	
 13815  1FE9  0008               	return
 13816                           	opt stack 0
 13817                           GLOBAL	__end_of_LcdDelay
 13818  1FEA                     	__end_of_LcdDelay:
 13819 ;; =============== function _LcdDelay ends ============
 13820                           
 13821                           	signat	_LcdDelay,4216
 13822                           	global	_isr
 13823                           psect	text4285,local,class=CODE,delta=2
 13824                           global __ptext4285
 13825  1000                     __ptext4285:
 13826                           
 13827 ;; *************** function _isr *****************
 13828 ;; Defined at:
 13829 ;;		line 327 in file "C:\Users\GauravLT\Desktop\Finger Print Sensor\R307\PIC16F877A_R307\main.c"
 13830 ;; Parameters:    Size  Location     Type
 13831 ;;		None
 13832 ;; Auto vars:     Size  Location     Type
 13833 ;;		None
 13834 ;; Return value:  Size  Location     Type
 13835 ;;		None               void
 13836 ;; Registers used:
 13837 ;;		wreg, fsr0l, fsr0h, status,2, status,0, pclath, cstack
 13838 ;; Tracked objects:
 13839 ;;		On entry : 0/0
 13840 ;;		On exit  : 0/0
 13841 ;;		Unchanged: 0/0
 13842 ;; Data sizes:     COMMON   BANK0   BANK1   BANK3   BANK2
 13843 ;;      Params:         0       0       0       0       0
 13844 ;;      Locals:         0       0       0       0       0
 13845 ;;      Temps:          4       0       0       0       0
 13846 ;;      Totals:         4       0       0       0       0
 13847 ;;Total ram usage:        4 bytes
 13848 ;; Hardware stack levels used:    1
 13849 ;; Hardware stack levels required when called:    1
 13850 ;; This function calls:
 13851 ;;		_PutUartByte
 13852 ;; This function is called by:
 13853 ;;		Interrupt level 1
 13854 ;; This function uses a non-reentrant model
 13855 ;;
 13856                           psect	text4285
 13857                           	file	"C:\Users\GauravLT\Desktop\Finger Print Sensor\R307\PIC16F877A_R307\main.c"
 13858                           	line	327
 13859                           	global	__size_of_isr
 13860  0019                     	__size_of_isr	equ	__end_of_isr-_isr
 13861                           	
 13862  1000                     _isr:	
 13863                           	opt	stack 0
 13864                           ; Regs used in _isr: [wreg-fsr0h+status,2+status,0+pclath+cstack]
 13865                           psect	intentry,class=CODE,delta=2
 13866                           global __pintentry
 13867  0004                     __pintentry:
 13868                           global interrupt_function
 13869  0004                     interrupt_function:
 13870                           	global saved_w
 13871  007E                     	saved_w	set	btemp+0
 13872  0004  00FE               	movwf	saved_w
 13873  0005  0E03               	swapf	status,w
 13874  0006  00F2               	movwf	(??_isr+0)
 13875  0007  0804               	movf	fsr0,w
 13876  0008  00F3               	movwf	(??_isr+1)
 13877  0009  080A               	movf	pclath,w
 13878  000A  00F4               	movwf	(??_isr+2)
 13879  000B  1283               	bcf	status, 5	;RP0=0, select bank0
 13880  000C  1303               	bcf	status, 6	;RP1=0, select bank0
 13881  000D  087F               	movf	btemp+1,w
 13882  000E  00F5               	movwf	(??_isr+3)
 13883  000F  160A  118A  2800   	ljmp	_isr
 13884                           psect	text4285
 13885                           	line	328
 13886                           	
 13887  1000                     i1l7210:	
 13888                           ;main.c: 328: if(RCIF == 1)
 13889  1000  1E8C               	btfss	(101/8),(101)&7
 13890  1001  2803               	goto	u402_21
 13891  1002  2804               	goto	u402_20
 13892  1003                     u402_21:
 13893  1003  280E               	goto	i1l1540
 13894  1004                     u402_20:
 13895                           	line	330
 13896                           	
 13897  1004                     i1l7212:	
 13898                           ;main.c: 329: {
 13899                           ;main.c: 330: PutUartByte(RCREG);
 13900  1004  081A               	movf	(26),w	;volatile
 13901  1005  160A  158A  27EA   	fcall	_PutUartByte
              160A  118A         
 13902                           	line	331
 13903                           	
 13904  100A                     i1l7214:	
 13905                           ;main.c: 331: RCIF = 0;
 13906  100A  1283               	bcf	status, 5	;RP0=0, select bank0
 13907  100B  1303               	bcf	status, 6	;RP1=0, select bank0
 13908  100C  128C               	bcf	(101/8),(101)&7
 13909  100D  280E               	goto	i1l1540
 13910                           	line	332
 13911                           	
 13912  100E                     i1l1539:	
 13913                           	line	333
 13914                           	
 13915  100E                     i1l1540:	
 13916  100E  0875               	movf	(??_isr+3),w
 13917  100F  00FF               	movwf	btemp+1
 13918  1010  0874               	movf	(??_isr+2),w
 13919  1011  008A               	movwf	pclath
 13920  1012  0873               	movf	(??_isr+1),w
 13921  1013  0084               	movwf	fsr0
 13922  1014  0E72               	swapf	(??_isr+0)^0FFFFFF80h,w
 13923  1015  0083               	movwf	status
 13924  1016  0EFE               	swapf	saved_w,f
 13925  1017  0E7E               	swapf	saved_w,w
 13926  1018  0009               	retfie
 13927                           	opt stack 0
 13928                           GLOBAL	__end_of_isr
 13929  1019                     	__end_of_isr:
 13930 ;; =============== function _isr ends ============
 13931                           
 13932                           	signat	_isr,88
 13933                           	global	_PutUartByte
 13934                           psect	text4286,local,class=CODE,delta=2
 13935                           global __ptext4286
 13936  1FEA                     __ptext4286:
 13937                           
 13938 ;; *************** function _PutUartByte *****************
 13939 ;; Defined at:
 13940 ;;		line 75 in file "C:\Users\GauravLT\Desktop\Finger Print Sensor\R307\PIC16F877A_R307\FingerPrintSensor_R307.c"
 13941 ;; Parameters:    Size  Location     Type
 13942 ;;  val             1    wreg     unsigned char 
 13943 ;; Auto vars:     Size  Location     Type
 13944 ;;  val             1    1[COMMON] unsigned char 
 13945 ;; Return value:  Size  Location     Type
 13946 ;;		None               void
 13947 ;; Registers used:
 13948 ;;		wreg, fsr0l, fsr0h, status,2, status,0
 13949 ;; Tracked objects:
 13950 ;;		On entry : 0/0
 13951 ;;		On exit  : 0/0
 13952 ;;		Unchanged: 0/0
 13953 ;; Data sizes:     COMMON   BANK0   BANK1   BANK3   BANK2
 13954 ;;      Params:         0       0       0       0       0
 13955 ;;      Locals:         1       0       0       0       0
 13956 ;;      Temps:          1       0       0       0       0
 13957 ;;      Totals:         2       0       0       0       0
 13958 ;;Total ram usage:        2 bytes
 13959 ;; Hardware stack levels used:    1
 13960 ;; This function calls:
 13961 ;;		Nothing
 13962 ;; This function is called by:
 13963 ;;		_isr
 13964 ;; This function uses a non-reentrant model
 13965 ;;
 13966                           psect	text4286
 13967                           	file	"C:\Users\GauravLT\Desktop\Finger Print Sensor\R307\PIC16F877A_R307\FingerPrintSen
                                 sor_R307.c"
 13968                           	line	75
 13969                           	global	__size_of_PutUartByte
 13970  0016                     	__size_of_PutUartByte	equ	__end_of_PutUartByte-_PutUartByte
 13971                           	
 13972  1FEA                     _PutUartByte:	
 13973                           	opt	stack 0
 13974                           ; Regs used in _PutUartByte: [wreg-fsr0h+status,2+status,0]
 13975                           ;PutUartByte@val stored from wreg
 13976  1FEA  00F1               	movwf	(PutUartByte@val)
 13977                           	line	76
 13978                           	
 13979  1FEB                     i1l7216:	
 13980                           ;FingerPrintSensor_R307.c: 76: UartBuffer[UartIxPtr] = val;
 13981  1FEB  0871               	movf	(PutUartByte@val),w
 13982  1FEC  00F0               	movwf	(??_PutUartByte+0)+0
 13983  1FED  0878               	movf	(_UartIxPtr),w
 13984  1FEE  3E10               	addlw	_UartBuffer&0ffh
 13985  1FEF  0084               	movwf	fsr0
 13986  1FF0  0870               	movf	(??_PutUartByte+0)+0,w
 13987  1FF1  1783               	bsf	status, 7	;select IRP bank2
 13988  1FF2  0080               	movwf	indf
 13989                           	line	77
 13990                           	
 13991  1FF3                     i1l7218:	
 13992                           ;FingerPrintSensor_R307.c: 77: if(++UartIxPtr == 96)
 13993  1FF3  3001               	movlw	(01h)
 13994  1FF4  00F0               	movwf	(??_PutUartByte+0)+0
 13995  1FF5  0870               	movf	(??_PutUartByte+0)+0,w
 13996  1FF6  07F8               	addwf	(_UartIxPtr),f
 13997  1FF7  0878               	movf	((_UartIxPtr)),w
 13998  1FF8  3A60               	xorlw	060h
 13999  1FF9  1D03               	skipz
 14000  1FFA  2FFC               	goto	u403_21
 14001  1FFB  2FFD               	goto	u403_20
 14002  1FFC                     u403_21:
 14003  1FFC  2FFF               	goto	i1l3042
 14004  1FFD                     u403_20:
 14005                           	line	78
 14006                           	
 14007  1FFD                     i1l7220:	
 14008                           ;FingerPrintSensor_R307.c: 78: UartIxPtr = 0;
 14009  1FFD  01F8               	clrf	(_UartIxPtr)
 14010  1FFE  2FFF               	goto	i1l3042
 14011                           	
 14012  1FFF                     i1l3041:	
 14013                           	line	79
 14014                           	
 14015  1FFF                     i1l3042:	
 14016  1FFF  0008               	return
 14017                           	opt stack 0
 14018                           GLOBAL	__end_of_PutUartByte
 14019  2000                     	__end_of_PutUartByte:
 14020 ;; =============== function _PutUartByte ends ============
 14021                           
 14022                           	signat	_PutUartByte,4216
 14023                           psect	text4287,local,class=CODE,delta=2
 14024                           global __ptext4287
 14025  0000                     __ptext4287:
 14026                           	global	btemp
 14027  007E                     	btemp set 07Eh
 14028                           
 14029                           	DABS	1,126,2	;btemp
 14030                           	global	wtemp0
 14031  007E                     	wtemp0 set btemp


HI-TECH Software PICC Macro Assembler V9.83 build 10920 
Symbol Table                                                                                   Mon Mar 11 10:28:50 2019

                          __end_of_HiSpeedScan 088F                                              pc 0002  
                         __end_of_HiSpeedScan0 153F                              HiSpeedScan@UserNo 0059  
                                           _RD 0C60                           __end_of_ee_eraseNPos 106D  
                                           _WR 0C61                            ?_ToggleEndianFormat 0020  
                                           fsr 0004                                            l700 16E3  
                                          l701 170B                                            l702 1722  
                                          l711 1779                                            l712 1724  
                                          l705 104D                                            l713 1744  
                                          l722 1FE0                                            l714 1741  
                                          l723 1FD7                                            l715 178A  
                                          l724 1FE9                                            l716 1743  
                                          l725 1FE9                                            l717 1773  
                                          l718 1772                                            l719 178F  
                                          l728 120E                                            l729 1230  
                                          l695 1193                                            l698 16DA  
                                          l699 1722                                            _GIE 005F  
                                          _RB1 0031                                            _RC0 0038  
                                          _RB2 0032                                            _RC1 0039  
                                          _RB3 0033                                            _RC2 003A  
                                          _RC3 003B                                            _RB5 0035  
                                          _RD6 0046                                            _isr 1000  
                                          fsr0 0004                                            indf 0000  
                           HiSpeedScan@dataOut 0063                                           l3010 1FC2  
                                         l3020 149B                                           l3100 13B3  
                                         l1500 0FD2                                           l3013 1FAD  
                                         l3021 1481                                           l3101 13B2  
                                         l1501 0FFC                                           l3014 1FAD  
                                         l3022 1491                                           l3102 13B5  
                                         l3110 144A                                           l1502 0FDD  
                                         l1510 020D                                           l3015 1FB2  
                                         l3023 1490                                           l3111 144D  
                                         l1503 0FFB                                           l1511 00DB  
                                         l3016 1FB2                                           l3024 149B  
                                         l3200 09B5                                           l1512 0173  
                                         l1520 012C                                           l3033 1099  
                                         l3201 0A26                                           l1521 012B  
                                         l1513 010C                                           l3034 10A9  
                                         l3050 0C6B                                           l3202 0A22  
                                         l3210 0A21                                           l1530 14E7  
                                         l1506 022E                                           l1522 0175  
                                         l1514 010B                                           l3035 10AE  
                                         l3019 1457                                           l3051 0CBA  
                                         l3211 0A23                                           l3203 09CB  
                                         l1531 14E6                                           l1523 0174  
                                         l1515 012E                                           l1507 0055  
                                         l3060 0AD4                                           l3052 0D0C  
                                         l3132 14F3                                           l3212 0A24  
                                         l3204 09E8                                           l1460 0498  
                                         l1524 01EE                                           l1516 011A  
                                         l1508 022E                                           l3045 0818  
                                         l3109 144B                                           l3133 1510  
                                         l3205 09E7                                           l1533 14E3  
                                         l1461 04B7                                           l1509 022D  
                                         l1525 020C                                           l1517 0119  
                                         l3038 1FA5                                           l3046 081A  
                                         l3070 02D1                                           l3134 150F  
                                         l3206 0A1F                                           l1534 14EB  
                                         l1462 04F3                                           l1470 0BB0  
                                         l1526 022C                                           l1518 012D  
                                         l1550 07C5                                           l3055 0A31  
                                         l2271 110A                                           l3071 03FC  
                                         l3063 03CB                                           l3135 153E  
                                         l3207 0A1B                                           l1535 14E8  
                                         l1471 0BAF                                           l1519 0123  
                                         l1551 075A                                           l1543 0710  
                                         l3056 0AD5                                           l2272 1117  
                                         l3072 03C9                                           l3064 0254  
                                         l2280 0925                                           l3136 153A  
                                         l3208 0A1E                                           l1536 14E9  
                                         l1456 04B9                                           l1472 0BB2  
                                         l1480 0DC3                                           l1560 07B3  
                                         l1552 0776                                           l1544 072C  
                                         l3057 0A5A                                           l3065 03CA  
                                         l3073 039D                                           l2281 0925  
                                         l3049 0C9F                                           l3137 1539  
                                         l3209 0A20                                           l1529 14B7  
                                         l1457 046A                                           l1473 0BB3  
                                         l1465 0ADE                                           l1481 0DA3  
                                         l1545 07D3                                           l1553 07C2  
                                         l1561 07B7                                           l3058 0AD5  
                                         l3066 0284                                           l2290 095D  
                                         l2282 092A                                           l3146 0884  
                                         l3138 153B                                           l1458 04F4  
                                         l1466 0B09                                           l1482 0DC2  
                                         l1546 07D2                                           l1570 07D0  
                                         l1554 07B8                                           l1562 07B6  
                                         l2275 102F                                           l3059 0AD5  
                                         l3075 039A                                           l3067 02D3  
                                         l2291 095D                                           l2283 0985  
                                         l3155 12A5                                           l3091 11FB  
                                         l3147 0883                                           l3139 153C  
                                         l1459 04B8                                           l1467 0BB3  
                                         l1483 0DE2                                           l1491 0F11  
                                         l1571 07D4                                           l1563 07C1  
                                         l1555 077F                                           l1547 0735  
                                         l2268 1F9E                                           l2276 1031  
                                         l3076 0429                                           l3068 02B7  
                                         l2292 0962                                           l2284 094B  
                                         l3156 12A4                                           l3084 1652  
                                         l3092 11FA                                           l3148 088E  
                                         l1468 0BB1                                           l1484 0E82  
                                         l1476 0DE4                                           l1492 0EC2  
                                         l1572 07D5                                           l1564 07C0  
                                         l1556 079B                                           l1548 0751  
                                         l3077 0427                                           l3069 02D2  
                                         l2293 0984                                           l2285 0941  
                                         l3157 12A5                                           l3085 1651  
                                         l3093 11FB                                           l1469 0B86  
                                         l1485 0E57                                           l1477 0D4D  
                                         l1493 0FFF                                           l1573 07D5  
                                         l1549 07CF                                           l1565 07C4  
                                         l1557 07B5                                           l2294 0983  
                                         l2286 0941                                           l3086 1654  
                                         l1486 0E81                                           l1478 0E83  
                                         l1494 0F10                                           l1566 07C3  
                                         l1558 07A9                                           l2295 0979  
                                         l2287 0946                                           l2279 092F  
                                         l3175 12E3                                           l1487 0E62  
                                         l1479 0DE3                                           l1495 0EF0  
                                         l1567 07CE                                           l1559 07B4  
                                         l2288 0985                                           l2296 0979  
                                         l3176 12E2                                           l3184 1321  
                                         l1488 0E80                                           l1496 0F0F  
                                         l1568 07CD                                           l2297 097E  
                                         l2289 0967                                           l3177 12E3  
                                         l3185 1320                                           l3193 16B5  
                                         l1497 0FFE                                           l1569 07D1  
                                         l2298 0990                                           l3186 1321  
                                         l3194 16B4                                           l1498 0F47  
                                         l2299 0990                                           l3195 16B7  
                                         l1499 0FFD                                           l3198 0999  
                                         l3199 09B6                                           l3901 1065  
                                         l3902 1054                                           l3910 1245  
                                         l3903 106C                                           l3911 1259  
                                         l3904 106C                                           l3912 1265  
                                         l3920 1164                                           l4801 15EC  
                                         l4802 15B4                                           l3931 107E  
                                         l3923 07DB                                           l4723 13C1  
                                         l4803 15A6                                           l3907 123F  
                                         l3915 113D                                           l3932 107E  
                                         l3924 07F5                                           l4724 13DD  
                                         l4804 15B9                                           l4820 17F6  
                                         l3940 1597                                           l3908 1267  
                                         l3916 113D                                           l3933 1083  
                                         l3925 07F4                                           l4725 13F8  
                                         l4805 15BA                                           l4821 17B4  
                                         l3909 125E                                           l3950 10D1  
                                         l3934 108D                                           l3926 07F9  
                                         l4726 1401                                           l4806 15DB  
                                         l4822 17A6                                           l3951 10F3  
                                         l3927 07FF                                           l4807 15EB  
                                         l4823 17B9                                           l3919 1164  
                                         l3952 10F3                                           l3928 07FF  
                                         l4808 15F5                                           l4824 17BA  
                                         l4825 17E5                                           l3937 1568  
                                         l3961 08AE                                           l4826 17F5  
                                         l3938 1567                                           l3962 0908  
                                         l4827 17FF                                           l3939 1597  
                                         l3955 11BC                                           l3963 08BE  
                                         l3956 1198                                           l3964 090F  
                                         l3949 10EA                                           l3957 11C5  
                                         l3965 090F                                           l3958 11C7  
                          __end_of_GetUartByte 081B                                           ?_isr 0070  
                                         STR_1 057A                                           STR_2 06BD  
                                         STR_3 0682                                           STR_4 065C  
                                         STR_5 0589                                           STR_6 0620  
                                         STR_7 06B0                                           STR_8 057A  
                                         STR_9 06BD                           ??_ToggleEndianFormat 0025  
                                         _PEIE 005E                                           _RCIE 0465  
                                         _RCIF 0065                                           _WREN 0C62  
                                         _TXIF 0064                            ScanForImage@dataOut 005C  
                                         _main 06DD                                           _menu 149C  
                      __end_of_UploadLcdBuffer 1723                                           btemp 007E  
                                         start 0012                                     _DeleteUser 15F6  
                            _IsUartBytePending 1F9F                                __end_of_LcdInit 1194  
            DeleteUserAfterAdminConfirm@UserNo 01D5                                __end_of_KeyScan 0991  
                           ?_IsUartBytePending 0070                                          ??_isr 0072  
                                 KeyScan@keyNo 0025              DeleteUserAfterAdminConfirm@result 01D4  
                                        l14000 0CBA                                          l14002 0CF7  
                                        l14010 1176                                          l14012 1182  
                                        l14004 1165                                          l14020 1734  
                                        l14100 1416                                          l12254 1FB3  
                                        l14014 118E                                          l14006 1169  
                                        l14030 1750                                          l14022 173F  
                                        l14110 1449                                          l14102 141B  
                                        l12256 1FB8                                          l14008 116D  
                                        l14032 176D                                          l14024 1740  
                                        l14016 1723                                          l14040 127C  
                                        l14112 144B                                          l14104 142F  
                                        l14120 0834                                          l14200 1520  
                                        l14034 1773                                          l14026 1744  
                                        l14018 1724                                          l14042 1281  
                                        l14050 15F9                                          l14114 144D  
                                        l14106 1440                                          l14130 0877  
                                        l14122 0846                                          l14202 152A  
                                        l14210 0994                                          l13500 1F9E  
                                        l14028 174A                                          l14036 178A  
                                        l14044 1295                                          l14060 164E  
                                        l14052 161D                                          l14108 1447  
                                        l14140 088E                                          l14132 0880  
                                        l14124 084B                                          l14116 081B  
                                        l14204 1538                                          l14220 09B4  
                                        l14212 0999                                          l14300 0469  
                                        l13510 1031                                          l13502 1019  
                                        l14046 12A2                                          l14038 1268  
                                        l14062 1650                                          l14054 1622  
                                        l14070 11D2                                          l14134 0882  
                                        l14126 085F                                          l14118 082E  
                                        l14150 12E0                                          l14142 12A6  
                                        l14206 153C                                          l14230 09DA  
                                        l14222 09B6                                          l14214 099E  
                                        l14310 0487                                          l14302 046A  
                                        l13504 1023                                          l13512 1FA9  
                                        l14048 12A3                                          l14064 1652  
                                        l14056 1636                                          l14072 11D7  
                                        l14080 136B                                          l14128 0870  
                                        l14136 0884                                          l14152 12E1  
                                        l14144 12BA                                          l14160 1311  
                                        l14208 153E                                          l14240 09F8  
                                        l14232 09E4                                          l14224 09C0  
                                        l14216 09A8                                          l14320 04B6  
                                        l14312 0492                                          l14304 0470  
                                        l14400 0D58                                          l13506 102D  
                                        l13514 1FAA                                          l13530 1099  
                                        l14066 1654                                          l14058 1647  
                                        l14074 11EB                                          l14090 13AF  
                                        l14082 137F                                          l14138 088C  
                                        l14146 12BF                                          l14162 131E  
                                        l14154 12E4                                          l14170 1685  
                                        l14242 0A0F                                          l14250 0A1B  
                                        l14234 09E6                                          l14226 09C6  
                                        l14218 09B2                                          l14330 04DA  
                                        l14306 0475                                          l14314 0498  
                                        l14322 04B9                                          l14410 0D85  
                                        l14402 0D5D                                          l13460 1FD7  
                                        l13508 102F                                          l13532 109E  
                                        l13524 108E                                          l13540 1FA5  
                                        l13700 1549                                          l14076 11F8  
                                        l14068 11C8                                          l14092 13B1  
                                        l14084 1384                                          l14148 12D3  
                                        l14164 131F                                          l14156 12F8  
                                        l14180 16B5                                          l14172 1699  
                                        l14252 0A1D                                          l14244 0A17  
                                        l14236 09E8                                          l14228 09D0  
                                        l14260 14A2                                          l14332 04E7  
                                        l14324 04C1                                          l14316 049D  
                                        l14308 047A                                          l14340 0AE3  
                                        l14420 0DB5                                          l14412 0D92  
                                        l14404 0D6A                                          l14500 0EF5  
                                        l13462 1FE0                                          l13470 10EA  
                                        l13534 10A2                                          l13526 1091  
                                        l13550 081A                                          l13542 0802  
                                        l13630 13DD                                          l13702 1568  
                                        l13710 1065                                          l14078 11F9  
                                        l14094 13B3                                          l14086 1397  
                                        l14158 12FD                                          l14182 16B7  
                                        l14174 16AA                                          l14166 1658  
                                        l14190 1502                                          l14254 0A24  
                                        l14246 0A19                                          l14238 09F2  
                                        l14270 14D0                                          l14262 14A7  
                                        l14334 04F4                                          l14326 04C6  
                                        l14318 04AA                                          l14350 0B09  
                                        l14342 0AF0                                          l14430 0DE1  
                                        l14422 0DC1                                          l14414 0D9D  
                                        l14406 0D75                                          l14510 0F23  
                                        l14502 0F02                                          l13464 10D0  
                                        l13480 1079                                          l13528 1098  
                                        l13536 10A9                                          l13544 080C  
                                        l13560 0A51                                          l13552 0A27  
                                        l13632 13E6                                          l13624 13B6  
                                        l13640 15A2                                          l13704 1051  
                                        l13720 1245                                          l13712 1231  
                                        l13800 029F                                          l14096 13B5  
                                        l14088 13A8                                          l14176 16B1  
                                        l14168 1680                                          l14192 150C  
                                        l14184 14EC                                          l14256 0A26  
                                        l14248 0A1A                                          l14280 14E9  
                                        l14272 14D6                                          l14264 14B7  
                                        l14328 04CC                                          l14360 0B78  
                                        l14352 0B0F                                          l14344 0B00  
                                        l14336 0AD6                                          l14440 0E09  
                                        l14408 0D80                                          l14416 0DA3  
                                        l14424 0DC3                                          l14432 0DE4  
                                        l14520 0F4C                                          l14512 0F29  
                                        l14504 0F0E                                          l14600 010C  
                                        l13458 1FD6                                          l13466 10D1  
                                        l13482 107C                                          l13490 07EA  
                                        l13538 1F9F                                          l13546 0816  
                                        l13570 0AD3                                          l13562 0A58  
                                        l13554 0A30                                          l13634 13F8  
                                        l13626 13C1                                          l13650 15DB  
                                        l13642 15A6                                          l13706 1054  
                                        l13722 1250                                          l13730 125E  
                                        l13714 123C                                          l13810 02C5  
                                        l13802 02A9                                          l14098 1402  
                                        l14178 16B3                                          l14194 150E  
                                        l14186 14F3                                          l14282 14EB  
                                        l14274 14DC                                          l14266 14BC  
                                        l14258 149C                                          l14290 043F  
                                        l14370 0B92                                          l14362 0B81  
                                        l14354 0B24                                          l14346 0B07  
                                        l14338 0ADE                                          l14450 0E3E  
                                        l14442 0E0E                                          l14434 0DEC  
                                        l14426 0DC8                                          l14418 0DA8  
                                        l14530 0F75                                          l14522 0F59  
                                        l14514 0F2E                                          l14506 0F11  
                                        l14610 0122                                          l14602 0112  
                                        l13468 10D9                                          l13484 1083  
                                        l13476 1070                                          l13492 07ED  
                                        l13548 0818                                          l13564 0A59  
                                        l13556 0A31                                          l13636 1401  
                                        l13628 13C5                                          l13652 15E4  
                                        l13644 15B4                                          l13660 17A2  
                                        l13708 105E                                          l13732 1265  
                                        l13724 1256                                          l13716 123E  
                                        l13740 1151                                          l13820 02F5  
                                        l13812 02D0                                          l13804 02AD  
                                        l13900 1715                                          l14196 1510  
                                        l14188 14F8                                          l14276 14E3  
                                        l14268 14C6                                          l14292 044C  
                                        l14284 042A                                          l14372 0B9F  
                                        l14364 0B85                                          l14356 0B31  
                                        l14348 0B08                                          l14460 0E62  
                                        l14452 0E4B                                          l14444 0E26  
                                        l14436 0DF1                                          l14428 0DD5  
                                        l14380 0D12                                          l14540 0FDC  
                                        l14532 0F82                                          l14524 0F5F  
                                        l14516 0F3B                                          l14508 0F19  
                                        l14620 0175                                          l14612 0123  
                                        l14604 0116                                          l14700 07C5  
                                        l13486 108D                                          l13478 1073  
                                        l13494 07F2                                          l13558 0A37  
                                        l13566 0A5A                                          l13646 15BA  
                                        l13654 15EC                                          l13638 1598  
                                        l13670 17D5                                          l13662 17A6  
                                        l13734 1267                                          l13726 1258  
                                        l13718 123F                                          l13750 1114  
                                        l13742 10F7                                          l13830 0367  
                                        l13822 0317                                          l13806 02B7  
                                        l13814 02D3                                          l13902 171B  
                                        l13910 08AE                                          l14198 151A  
                                        l14278 14E5                                          l14294 044F  
                                        l14286 042F                                          l14374 0BA2  
                                        l14358 0B75                                          l14366 0B86  
                                        l14462 0E67                                          l14454 0E57  
                                        l14446 0E33                                          l14438 0DFE  
                                        l14390 0D44                                          l14382 0D1D  
                                        l14542 0FDD                                          l14534 0FC6  
                                        l14526 0F6A                                          l14518 0F47  
                                        l14470 0E89                                          l14630 01E2  
                                        l14622 0182                                          l14614 012A  
                                        l14606 011A                                          l14550 0015  
                                        l14702 07CC                                          l13496 07FE  
                                        l13488 07DE                                          l13568 0A60  
                                        l13656 15F5                                          l13648 15CC  
                                        l13680 17FF                                          l13672 17E3  
                                        l13664 17B4                                          l13728 1259  
                                        l13736 1141                                          l13744 10FF  
                                        l13760 1481                                          l13752 144E  
                                        l13840 039D                                          l13832 0371  
                                        l13824 0332                                          l13816 02D8  
                                        l13808 02C1                                          l13920 0908  
                                        l13912 08BB                                          l13904 088F  
                                        l14296 0461                                          l14288 043A  
                                        l14376 0BAB                                          l14368 0B8D  
                                        l14464 0E74                                          l14456 0E60  
                                        l14448 0E39                                          l14392 0D4B  
                                        l14384 0D22                                          l14544 0FE2  
                                        l14528 0F70                                          l14536 0FD2  
                                        l14480 0EB9                                          l14472 0E94  
                                        l14640 0212                                          l14624 0187  
                                        l14632 01EE                                          l14608 0121  
                                        l14616 012E                                          l14560 003A  
                                        l14552 001A                                          l13498 1F98  
                                        l13674 17E5                                          l13666 17BA  
                                        l13658 1790                                          l13690 121A  
                                        l13682 11FF                                          l13738 114B  
                                        l13746 1109                                          l13762 1489  
                                        l13754 1456                                          l13850 0424  
                                        l13834 0393                                          l13826 0349  
                                        l13818 02DE                                          l13842 03CB  
                                        l13770 023A                                          l13914 08BE  
                                        l13906 08A3                                          l13930 0924  
                                        l13922 0910                                          l14298 0468  
                                        l14466 0E83                                          l14458 0E61  
                                        l14394 0D4C                                          l14386 0D2F  
                                        l14378 0D0D                                          l14546 0FEF  
                                        l14538 0FDB                                          l14490 0ECD  
                                        l14482 0EC0                                          l14474 0E99  
                                        l14642 021F                                          l14634 01F3  
                                        l14626 0194                                          l14618 015C  
                                        l14570 005B                                          l14562 004C  
                                        l14554 0025                                          l14650 06EC  
                                        l13676 17EE                                          l13668 17C3  
                                        l13692 121B                                          l13684 1205  
                                        l13748 110B                                          l13764 1491  
                                        l13756 1457                                          l13852 0426  
                                        l13836 039A                                          l13828 0364  
                                        l13844 03FC                                          l13780 0243  
                                        l13772 023B                                          l13860 1124  
                                        l13916 08E6                                          l13908 08A9  
                                        l13940 0940                                          l13932 092A  
                                        l13924 0917                                          l14396 0D4D  
                                        l14388 0D32                                          l14548 0FFF  
                                        l14492 0ED2                                          l14484 0EC1  
                                        l14476 0EA6                                          l14468 0E84  
                                        l14644 022B                                          l14636 0200  
                                        l14628 01DA                                          l14580 0082  
                                        l14572 0060                                          l14564 0053  
                                        l14556 002A                                          l14660 0710  
                                        l14652 06EF                                          l13678 17F6  
                                        l13694 1224                                          l13686 120A  
                                        l13766 1495                                          l13758 145D  
                                        l13854 0427                                          l13846 0413  
                                        l13838 039C                                          l13790 0270  
                                        l13782 0245                                          l13774 023C  
                                        l13862 112A                                          l13870 11BC  
                                        l13918 08E8                                          l13950 095C  
                                        l13942 0946                                          l13934 0933  
                                        l13926 091B                                          l14398 0D53  
                                        l14494 0EDF                                          l14486 0EC2  
                                        l14478 0EA9                                          l14590 00E0  
                                        l14582 0087                                          l14574 0065  
                                        l14638 020D                                          l14566 0054  
                                        l14558 0037                                          l14670 074B  
                                        l14662 0726                                          l14654 06FA  
                                        l14646 06DD                                          l13696 1227  
                                        l13688 1210                                          l13856 0429  
                                        l13848 041D                                          l13792 0275  
                                        l13784 0254                                          l13776 023D  
                                        l13768 0232                                          l13872 11C5  
                                        l13864 1194                                          l13880 16B8  
                                        l13960 0978                                          l13952 0962  
                                        l13944 094F                                          l13936 0937  
                                        l13928 091F                                          l14496 0EEA  
                                        l14488 0EC8                                          l14592 00EA  
                                        l14584 0094                                          l14576 0072  
                                        l14568 0055                                          l14680 0776  
                                        l14672 0751                                          l14664 072C  
                                        l14656 0705                                          l14648 06E7  
                                        l13698 153F                                          l13794 027F  
                                        l13786 025E                                          l13778 023E  
                                        l13858 111B                                          l13874 11C7  
                                        l13866 1198                                          l13890 16E2  
                                        l13882 16CF                                          l13962 097E  
                                        l13954 096B                                          l13946 0953  
                                        l13938 093B                                          l13970 0BC3  
                                        l14498 0EF0                                          l14594 00F6  
                                        l14586 00C4                                          l14578 007D  
                                        l14690 07A3                                          l14682 077F  
                                        l14674 075A                                          l14666 0735  
                                        l14658 070A                                          l13796 0284  
                                        l13788 0268                                          l13868 11B7  
                                        l13876 1032                                          l13892 16E3  
                                        l13884 16D2                                          l13964 0989  
                                        l13956 096F                                          l13948 0957  
                                        l13980 0C1B                                          l13972 0BD8  
                                        l14596 00FC                                          l14588 00DB  
                                        l14692 07A9                                          l14684 078F  
                                        l14676 076A                                          l14668 0745  
                                        l13798 028A                                          l13878 1042  
                                        l13894 16FE                                          l13886 16D9  
                                        l13958 0973                                          l13990 0C66  
                                        l13982 0C2A                                          l13974 0BE2  
                                        l13966 0BB7                                          l14598 0102  
                                        l14694 07B2                                          l14686 0795  
                                        l14678 0770                                          l13896 1704  
                                        l13888 16DB                                          l13992 0C6B  
                                        l13984 0C3F                                          l13976 0BFC  
                                        l13968 0BBD                                          l14688 079B  
                                        l14696 07B8                                          l13898 170B  
                                        l13994 0C7B                                          l13986 0C47  
                                        l13978 0C04                                          l14698 07BF  
                                        l13996 0C96                                          l13988 0C5E  
                                        l13998 0C9F                            ??_IsUartBytePending 0020  
                                        ?_main 0070                                          ?_menu 0033  
                                        _EEADR 010D                                          STR_10 0694  
                                        STR_11 0648                                          STR_12 0682  
                                        STR_20 066F                                          STR_21 05F5  
                                        STR_13 05AF                                          STR_14 0589  
                                        STR_30 06D5                                          STR_22 060B  
                                        STR_15 0634                                          STR_23 05C7  
                                        STR_31 053F                                          STR_24 057A  
                                        STR_16 0596                                          STR_32 0521  
                                        STR_25 06BD                                          STR_17 057A  
                                        STR_33 0500                                          STR_18 06BD  
                                        STR_26 06C9                                          STR_34 055D  
                                        STR_19 0682                                          STR_27 05DF  
                                        STR_28 06A2                                          STR_29 0682  
                                        _CARRY 0018                                          _EEPGD 0C67  
                              __end_of___lldiv 1800                                          u14000 149A  
                              __end_of___llmod 15F6                                          u14001 1499  
                                        u14010 025E                                          u14011 025D  
                                        u14100 0399                                          u14020 0275  
                                        u14101 0398                                          u14021 0274  
                                        u14030 028A                                          u14031 0289  
                                        u13400 1082                                          u14120 03E9  
                                        u14040 029F                                          u14200 170A  
                                        u15000 0F70                                          u13401 1081  
                                        u14041 029E                                          u14201 1709  
                                        u15001 0F6F                                          u13410 07F9  
                                        u14130 03FB                                          u14050 02CF  
                                        u14210 1721                                          u15010 0FDA  
                                        u13411 07F8                                          u14131 03FA  
                                        u14115 03A7                                          u14051 02CE  
                                        u14211 1720                                          u15011 0FD9  
                                        u13420 07FD                                          u13500 0A37  
                                        u14140 041D                                          u14060 02D8  
                                        u14220 08A9                                          u14300 0937  
                                        u15100 0116                                          u15020 0025  
                                        u13421 07FC                                          u13501 0A36  
                                        u14141 041C                                          u14125 03DC  
                                        u14061 02D7                                          u14045 029B  
                                        u14221 08A8                                          u14301 0936  
                                        u15021 0024                                          u13430 102D  
                                        u14126 03DD                                          u14070 02DE  
                                        u14150 112A                                          u14230 090E  
                                        u14310 093B                                          u15110 0120  
                                        u15030 0052                                          u13431 102C  
                                        u14135 03F7                                          u14127 03E2  
                                        u14071 02DD                                          u14231 090D  
                                        u14311 093A                                          u15111 011F  
                                        u15031 0051                                          u13440 1FB1  
                                        u13520 0A60                                          u14128 03E3  
                                        u14080 0371                                          u14160 11C4  
                                        u14400 096F                                          u14320 093F  
                                        u14240 0917                                          u15120 0129  
                                        u15040 005B                                          u15200 0795  
                                        u13441 1FB0                                          u13521 0A5F  
                                        u14145 0419                                          u14129 03E8  
                                        u14081 0370                                          u14161 11C3  
                                        u14401 096E                                          u14321 093E  
                                        u14241 0916                                          u15121 0128  
                                        u15041 005A                                          u15201 0794  
                                        u13370 1FE8                                          u13530 0A6E  
                                        u14090 0393                                          u14170 16D8  
                                        u14410 0973                                          u14330 0945  
                                        u14250 091B                                          u15130 0182  
                                        u15050 0060                                          u15210 07A3  
                                        u13371 1FE7                                          u13515 0A42  
                                        u14091 0392                                          u14171 16D7  
                                        u14411 0972                                          u14331 0944  
                                        u14251 091A                                          u15131 0181  
                                        u15051 005F                                          u15211 07A2  
                                        u13380 10F2                                          u13460 1097  
                                        u13540 0A7F                                          u13700 15A2  
                                        u14180 16E1                                          u14420 0977  
                                        u14340 094F                                          u14260 091F  
                                        u14500 1750                                          u15060 00EA  
                                        u15220 07B1                                          u15140 0726  
                                        u13381 10F1                                          u13461 1096  
                                        u13701 15A1                                          u14085 036D  
                                        u14181 16E0                                          u14421 0976  
                                        u14341 094E                                          u14261 091E  
                                        u14501 174F                                          u15061 00E9  
                                        u15221 07B0                                          u15141 0725  
                                        u13470 10A8                                          u13550 0A88  
                                        u14430 097D                                          u14350 0953  
                                        u14270 0923                                          u15070 00FC  
                                        u15230 07BE                                          u15150 0734  
                                        u13471 10A7                                          u13535 0A69  
                                        u14095 038F                                          u14431 097C  
                                        u14351 0952                                          u14271 0922  
                                        u15071 00FB                                          u15231 07BD  
                                        u15151 0733                                          u13480 0816  
                                        u13560 0A99                                          u13720 15B8  
                                        u13800 17D5                                          u14440 0989  
                                        u14360 0957                                          u14280 0929  
                                        u14520 1789                                          u14600 0877  
                                        u15080 0102                                          u15240 07CB  
                                        u15160 074B                                          u13481 0815  
                                        u13545 0A7A                                          u13721 15B7  
                                        u13801 17D4                                          u14361 0956  
                                        u14281 0928                                          u14521 1788  
                                        u14601 0876                                          u15081 0101  
                                        u15241 07CA                                          u15161 074A  
                                        u13570 0AA2                                          u13490 0A2F  
                                        u13650 13C5                                          u13730 15CC  
                                        u14370 095B                                          u14290 0933  
                                        u14450 0CB9                                          u14530 1647  
                                        u14610 16AA                                          u15090 0112  
                                        u15170 0759                                          u13555 0A83  
                                        u13491 0A2E                                          u13651 13C4  
                                        u13731 15CB                                          u13715 15A8  
                                        u14195 16E6                                          u14371 095A  
                                        u14291 0932                                          u14451 0CB8  
                                        u14515 175D                                          u14531 1646  
                                        u14611 16A9                                          u15091 0111  
                                        u15171 0758                                          u13580 0AB3  
                                        u13820 17F4                                          u13900 123C  
                                        u14380 0961                                          u14540 164E  
                                        u14620 16B1                                          u14700 09DA  
                                        u15180 0770                                          u13565 0A94  
                                        u13661 13CE                                          u13821 17F3  
                                        u13805 17D1                                          u13901 123B  
                                        u14381 0960                                          u14541 164D  
                                        u14621 16B0                                          u14701 09D9  
                                        u15181 076F                                          u13662 13D5  
                                        u13750 15EA                                          u13830 1205  
                                        u13910 1256                                          u14390 096B  
                                        u14470 1734                                          u14550 13A8  
                                        u14630 1502                                          u14710 09E4  
                                        u15190 077E                                          u13575 0A9D  
                                        u13663 13DC                                          u13751 15E9  
                                        u13735 15C8                                          u13815 17E6  
                                        u13831 1204                                          u13911 1255  
                                        u14391 096A                                          u14455 0CB5  
                                        u14471 1733                                          u14551 13A7  
                                        u14631 1501                                          u14711 09E3  
                                        u15191 077D                                          u13760 17A2  
                                        u13840 120A                                          u13920 1264  
                                        u14480 173E                                          u14560 13AF  
                                        u14640 150C                                          u14720 09F8  
                                        u14800 0470                                          u13585 0AAE  
                                        u13745 15DC                                          u13761 17A1  
                                        u13841 1209                                          u13921 1263  
                                        u14465 0CC4                                          u14481 173D  
                                        u14561 13AE                                          u14641 150B  
                                        u14721 09F7                                          u14801 046F  
                                        u13690 13F7                                          u13850 1217  
                                        u13930 1151                                          u14490 174A  
                                        u14570 1440                                          u14650 1520  
                                        u14730 0A0F                                          u14810 0475  
                                        u13691 13F6                                          u13675 13DF  
                                        u13851 1213                                          u14491 1749  
                                        u14571 143F                                          u14651 151F  
                                        u14731 0A0E                                          u14811 0474  
                                        u13780 17B8                                          u13940 1109  
                                        u14580 1447                                          u14660 152A  
                                        u14740 14C6                                          u14820 04C1  
                                        u14900 0D80                                          u13685 13E7  
                                        u13781 17B7                                          u13941 1108  
                                        u14581 1446                                          u14661 1529  
                                        u14741 14C5                                          u14821 04C0  
                                        u14901 0D7F                                          u13870 1584  
                                        u13950 1455                                          u14590 0870  
                                        u14670 09A8                                          u14750 14D6  
                                        u14830 0B06                                          u14910 0DEC  
                                        u13775 17A8                                          u13951 1454  
                                        u14591 086F                                          u14671 09A7  
                                        u14751 14D5                                          u14831 0B05  
                                        u14911 0DEB                                          u13864 121A  
                                        u13880 1596                                          u13960 145D  
                                        u14680 09B2                                          u14760 14DC  
                                        u14840 0B0F                                          u14920 0E39  
                                        u13881 1595                                          u13961 145C  
                                        u14681 09B1                                          u14761 14DB  
                                        u14841 0B0E                                          u14921 0E38  
                                        u13890 106B                                          u14690 09C6  
                                        u14770 14E2                                          u14850 0B8D  
                                        u14930 0E5F                                          u13795 17BC  
                                        u13875 1577                                          u13891 106A  
                                        u14691 09C5                                          u14771 14E1  
                                        u14851 0B8C                                          u14931 0E5E  
                                        u13876 1578                                          u13980 1477  
                                        u14780 043A                                          u14860 0D1D  
                                        u14940 0E94                                          u13885 1592  
                                        u13877 157D                                          u14781 0439  
                                        u14861 0D1C                                          u14941 0E93  
                                        u13878 157E                                          u13990 1489  
                                        u14790 0467                                          u14870 0D4A  
                                        u14950 0EBF                                          u13879 1583  
                                        u13991 1488                                          u13975 1468  
                                        u14791 0466                                          u14871 0D49  
                                        u14951 0EBE                                          u14880 0D53  
                                        u14960 0EC8                                          u13985 1472  
                                        u14881 0D52                                          u14961 0EC7  
                                        u14890 0D58                                          u14970 0ECD  
                                        u14891 0D57                                          u14971 0ECC  
                                        u14980 0F19                                          u14981 0F18  
                                        u14990 0F29                                          u14991 0F28  
                                        _RCREG 001A                                          _RCSTA 0018  
                                        _SPBRG 0099                                          _PORTD 0008  
                                        _TRISB 0086                                          _TRISC 0087  
                                        _TRISD 0088                       EraseAllUsers@contentData 005C  
                                        _WRERR 0C63                                          _TXREG 0019  
                              __end_of_ee_read 108E                                          _TXSTA 0098  
                                        _Delay 153F                          ToggleEndianFormat@val 0020  
                          ___lmul@multiplicand 0024                                          _IxPtr 0076  
               FillUpResponse@chkSumDigitCount 0041                                          _OxPtr 0077  
                      LoadFingerTemplate@F1312 00B1                        LoadFingerTemplate@F1309 00BE  
                              __end_of_memset1 10F4                                  ?_ScanForImage 0070  
                             __end_of_AddUserA 12E4                               __end_of_AddUserB 1322  
                             __end_of_AddUserC 16B8                                ??_ControlAccess 00D7  
                                        menu@s 0033                                          pclath 000A  
                             __end_of_DecToStr 0910                                 GetUartByte@val 0021  
                                  ?_AddNewUser 0070                                          status 0003  
                                        wtemp0 007E                      __end_of_IsUartBytePending 1FA6  
                             ?_ClearUartBuffer 0070                                    _HiSpeedScan 081B  
                             __end_of_LcdDelay 1FEA                               __end_of_LcdClear 104E  
                         __end_of_IsKeyPending 1F9F                               __end_of_LcdPrint 1790  
                                 __end_of_main 07D8                                   __end_of_menu 14EC  
                                 ?_sendPackage 002B                  __size_of_getNextAvailLocation 0037  
                                       ??_main 006E                               __end_of_SendByte 1231  
                                       ??_menu 0035                                 _AlterAdminUser 0D0D  
                             __end_of_UartInit 1FC3                                    _GetUartByte 0802  
                                       ?_Delay 002D                                 ??_ScanForImage 0059  
          __end_of_DeleteUserAfterAdminConfirm 022F                    _DeleteUserAfterAdminConfirm 0015  
                             ___llmod@dividend 0024                                         _EEDATA 010C  
                                       _EECON1 018C                                         _EECON2 018D  
                                AddUserA@F1335 00B6                                  AddUserA@F1338 00B7  
                                AddUserB@F1340 00B8                                  AddUserB@F1343 00B9  
                                AddUserC@F1346 00BA                                  AddUserC@F1349 00A5  
                                       i1l3041 1FFF                                         i1l3042 1FFF  
                                       i1l1540 100E                                         i1l1539 100E  
                                       Delay@d 002D                                         i1l7210 1000  
                                       i1l7220 1FFD                                         i1l7212 1004  
                                       i1l7214 100A                                         i1l7216 1FEB  
                                       i1l7218 1FF3                                         u402_20 1004  
                                       u402_21 1003                                         u403_20 1FFD  
                                       u403_21 1FFC                                      ??_LcdInit 0028  
                             ?_UploadLcdBuffer 0070                                      ??_KeyScan 0024  
                                       _GetKey 1019                                    ?_DeleteUser 0070  
                  ??_GenCharacterFileFromImage 0059                               __end_of_ee_write 0800  
                                   _UartBuffer 0110                         ToggleEndianFormat@size 0024  
                        __size_of_HiSpeedScan0 0053                          __size_of_ee_eraseNPos 001F  
                      __size_of_FillUpResponse 01FB                    AlterAdminUser@NewUserResult 00D9  
                                       _PutKey 10F4                                         ___lmul 13B6  
                                    ??___lldiv 0028                                      ??___llmod 0028  
                                    ??_ee_read 0020                                    memset1@data 0022  
                       __end_of_AlterAdminUser 0E84            AlterAdminUser@Create0thPositionUser 00D7  
                                       clrloop 04F6            __end_of_AddNewUserAfterAdminConfirm 1000  
                  _AddNewUserAfterAdminConfirm 0E84                            __size_of_AddNewUser 0096  
                                    ??_memset1 0025                                   __pdataCOMMON 007A  
                                   _VerifyPswd 11C8                             __size_of_TotDigits 0034  
                                       saved_w 007E                                  ?_SendUartByte 0070  
                            ScanForImage@F1300 00C0                              ScanForImage@F1298 00D2  
             ??_EraseAllUsersAfterAdminConfirm 006D                ?_EraseAllUsersAfterAdminConfirm 0070  
                                 _HiSpeedScan0 14EC                                  ??_PutUartByte 0070  
                                 _ee_eraseNPos 104E                           EraseAllUsers@dataOut 005D  
                                  SendByte@val 0022                     __size_of_IsUartBytePending 0007  
                                ee_eraseNPos@i 0027                                  ee_eraseNPos@n 0026  
                                __end_of_Delay 1598                                 __pcstackCOMMON 0070  
                     AddUserA@confirmationCode 005E                           releaseEElocation@loc 0026  
                                 __pidataBANK1 10AF                                   __pidataBANK3 1F93  
                                    ?_AddUserA 0070                                      ?_AddUserB 0070  
                                    ?_AddUserC 0070                                   DecToStr@dest 0038  
                              ?_AlterAdminUser 0070                                      ?_DecToStr 0034  
                                  _KeypdBuffer 0190                      _GenCharacterFileFromImage 1402  
                                      ??_Delay 002F                            __size_of_DeleteUser 005F  
                               ??_SendUartByte 0020                                      ?_LcdDelay 0020  
                                    ?_LcdClear 0070                                      ?_LcdPrint 002B  
                       __size_of_SendUartValue 004E                                     __pbssBANK1 00C1  
                                   __pbssBANK2 0110                                     __pbssBANK3 0190  
                        __size_of_IsKeyPending 0007                DeleteUserAfterAdminConfirm@buff 01CF  
                                      ?_GetKey 0070                                      ?_SendByte 0022  
                        __end_of_EraseAllUsers 12A6                              __end_of_TotDigits 11C8  
                           FillUpResponse@data 0040                            __end_of_PutUartByte 2000  
                          ControlAccess@UserNo 00E7                             FillUpResponse@wait 0042  
                                    ?_UartInit 0070                                     __pmaintext 06DD  
                                      ?_PutKey 0070                                SendUartByte@val 0020  
                                      ?___lmul 0020                  EraseAllUsers@confirmationCode 005E  
                         __end_of_ScanForImage 13B6                                     __pintentry 0004  
                                   __ptext4240 042A                                     __ptext4241 149C  
                                   __ptext4250 11C8                                     __ptext4242 0991  
                                   __ptext4251 15F6                                     __ptext4243 14EC  
                                   __ptext4260 1194                                     __ptext4252 1268  
                                   __ptext4244 1655                                     __ptext4236 0015  
                                   __ptext4261 1118                                     __ptext4253 1723  
                                   __ptext4245 12E4                                     __ptext4237 0E84  
                                   __ptext4270 1790                                     __ptext4262 022F  
                                   __ptext4254 1165                                     __ptext4246 12A6  
                                   __ptext4238 0D0D                                     __ptext4271 1598  
                                   __ptext4263 144E                                     __ptext4255 0BB4  
                                   __ptext4247 081B                                     __ptext4239 0AD6  
                                   __ptext4280 1F98                                     __ptext4272 13B6  
                                   __ptext4264 10F4                                     __ptext4256 0910  
                                   __ptext4248 1402                                     __ptext4281 07D8  
                                   __ptext4273 0A27                                     __ptext4265 113E  
                                   __ptext4257 088F                                     __ptext4249 136B  
                                   __ptext4282 106D                                     __ptext4274 0802  
                                   __ptext4266 1231                                     __ptext4258 16B8  
                                   __ptext4283 10D0                                     __ptext4275 1F9F  
                                   __ptext4267 104E                                     __ptext4259 1032  
                                   __ptext4284 1FD6                                     __ptext4276 108E  
                                   __ptext4268 153F                                     __ptext4285 1000  
                                   __ptext4277 1FA6                                     __ptext4269 11FC  
                                   __ptext4286 1FEA                                     __ptext4278 1FB3  
                                   __ptext4287 0000                                     __ptext4279 1019  
                          ControlAccess@result 00E6                                 ___lmul@product 0029  
                                   ??_AddUserA 0059                                     ??_AddUserB 0059  
                                   ??_AddUserC 0059                                     ??_DecToStr 003B  
                         __size_of_sendPackage 0159                                    ?_VerifyPswd 0070  
                                      Delay@dd 0033                                   _IsKeyPending 1F98  
                                   ??_LcdDelay 0022                                     ??_LcdClear 0028  
                                    ?_ee_write 0023                 DeleteUserAfterAdminConfirm@key 01D6  
                                   ??_LcdPrint 002F                    __size_of_ToggleEndianFormat 00AF  
                       sendPackage@instruction 002C                                        _LcdInit 1165  
                                 ??_AddNewUser 0063                                   ?_HiSpeedScan 0059  
                            VerifyPswd@dataOut 005C                                        _KeyScan 0910  
                       HiSpeedScan0@scanResult 006C                                     ??_SendByte 0023  
                              __size_of_GetKey 0019                                 _FillUpResponse 022F  
  AddNewUserAfterAdminConfirm@AddNewUserResult 00EA                                     ??_UartInit 0020  
                              __size_of_PutKey 0024        AddNewUserAfterAdminConfirm@isAddNewUser 00E6  
                              __size_of___lmul 004C                                        ___lldiv 1790  
                                      ___llmod 1598                                  _SendUartValue 144E  
                                      _ee_read 106D           DeleteUserAfterAdminConfirm@DelUserNo 01D7  
                            SendUartValue@size 0025                               _DefModuleAddress 00AD  
                                      _memset1 10D0                                   ?_GetUartByte 0070  
                                 __size_of_isr 0019                             __end_of_AddNewUser 0A27  
                                   ??_ee_write 0024                       AddUserB@confirmationCode 005E  
                         end_of_initialization 1367                   __end_of_getNextAvailLocation 1268  
                                  _PutUartByte 1FEA                                        init_ram 1FC7  
                        __end_of_ControlAccess 0BB4                                      LcdDelay@d 0020  
                       __end_of_FillUpResponse 042A                                   ??_DeleteUser 0059  
                                    GetKey@key 0021                                ___lldiv@divisor 0020  
                              ___lldiv@counter 0029                            __size_of_VerifyPswd 0034  
         __size_of_DeleteUserAfterAdminConfirm 021A                           __end_of_SendUartByte 1FB3  
                           AddNewUser@position 0064                                 ?_SendUartValue 0021  
                                    LcdPrint@s 002B                       __size_of_ClearUartBuffer 0021  
                                 __pstringtext 0500                              sendPackage@length 002B  
      DeleteUserAfterAdminConfirm@isDeleteUser 01CE                              _releaseEElocation 113E  
                           ?_releaseEElocation 0070                                   SendByte@Mode 0024  
                           __end_of_DeleteUser 1655                            ??_releaseEElocation 0025  
 AddNewUserAfterAdminConfirm@_availSpaceResult 00E8                        FillUpResponse@_Response 004D  
           __size_of_GenCharacterFileFromImage 004C           __size_of_AddNewUserAfterAdminConfirm 017C  
                              ?_FillUpResponse 0037                               main@menuResponse 006F  
                        __size_of_ScanForImage 004B                     getNextAvailLocation@result 0024  
                               __end_of_GetKey 1032                                      _LcdBuffer 01A4  
                             ??_AlterAdminUser 006D                               DecToStr@minDigit 003A  
                    __end_of_releaseEElocation 1165                                 __end_of_PutKey 1118  
                     __size_of_UploadLcdBuffer 006B                                 __end_of___lmul 1402  
              AddNewUserAfterAdminConfirm@buff 00DC                                  __pidataCOMMON 04FD  
         EraseAllUsersAfterAdminConfirm@UserNo 00D9                        FillUpResponse@chkLength 004A  
                            __size_of_AddUserA 003E                              __size_of_AddUserB 003E  
                            __size_of_AddUserC 0063           DeleteUserAfterAdminConfirm@buff_2234 01C4  
                          start_initialization 1322                              __size_of_DecToStr 0081  
         GenCharacterFileFromImage@contentData 005C           EraseAllUsersAfterAdminConfirm@result 00D8  
                                  __end_of_isr 1019                              __size_of_LcdDelay 0014  
                            __size_of_LcdClear 001C                                VerifyPswd@F1294 007B  
                                 _ScanForImage 136B                         HiSpeedScan@contentData 005E  
                            __size_of_LcdPrint 006D                                  LcdPrint@colNo 002E  
                              ___llmod@divisor 0020                                ___llmod@counter 0029  
                                   menu@keyHit 0036                                       ??_GetKey 0020  
                                LcdPrint@rowNo 002D                           __size_of_HiSpeedScan 0074  
                              ??_SendUartValue 0026                                      _UartIxPtr 0078  
                                    _UartOxPtr 0079                                       ??_PutKey 0022  
                            __size_of_SendByte 0035                       AddUserC@confirmationCode 0062  
                                     ??___lmul 0028                                      PutKey@key 0023  
               GenCharacterFileFromImage@F1303 00BC                 GenCharacterFileFromImage@F1305 00BD  
                                   memset1@len 0023                                      _TotDigits 1194  
                            __size_of_UartInit 0010                                     memset1@str 0020  
                        sendPackage@identifier 0036                                    __pdataBANK1 00A0  
                                  __pdataBANK3 01D8                          getNextAvailLocation@i 0025  
                         _getNextAvailLocation 1231                                 _buzzOffCounter 00CE  
                                 ??_VerifyPswd 0059                              ??_ClearUartBuffer 0020  
                             AddUserC@position 0060                                    __pbssCOMMON 0076  
                            _reserveEElocation 1118                                  __pcstackBANK0 0020  
                                __pcstackBANK1 00D7                                  __pcstackBANK3 01C4  
                         __size_of_GetUartByte 0019                             ?_reserveEElocation 0070  
                                  DecToStr@len 003E                                    DecToStr@val 0034  
                            __size_of_ee_write 0028                               ClearUartBuffer@i 0021  
                         reserveEElocation@loc 0026                                       ?_LcdInit 0070  
                          AddUserA@contentData 005D                            ??_reserveEElocation 0025  
                        __size_of_SendUartByte 000D                   ScanForImage@confirmationCode 005D  
                                     ?_KeyScan 0070                          FillUpResponse@respPtr 0049  
    GenCharacterFileFromImage@confirmationCode 005E                                FillUpResponse@c 004C  
                              FillUpResponse@i 004B                                FillUpResponse@l 0048  
                           __end_of_VerifyPswd 11FC                                   sendPackage@i 0037  
                            DeleteUser@dataOut 0061                     __size_of_releaseEElocation 0027  
                                     ?___lldiv 0020                                     ?_TotDigits 002E  
                                     ?___llmod 0020                                       ?_ee_read 0070  
                                ??_sendPackage 002E                          ?_getNextAvailLocation 0070  
                                    __pstrings 1800                      __end_of_reserveEElocation 113E  
             GenCharacterFileFromImage@dataOut 005D                              ??_UploadLcdBuffer 0025  
                                     ?_memset1 0020                                 __size_of_Delay 0059  
                       __size_of_EraseAllUsers 003E                                   _SendUartByte 1FA6  
                   __end_of_ToggleEndianFormat 0AD6                 FillUpResponse@confirmationCode 0037  
                 ?_DeleteUserAfterAdminConfirm 0070                                   ?_PutUartByte 0070  
                            interrupt_function 0004                                 PutUartByte@val 0071  
                          AddUserB@contentData 005D                                      ee_write@a 0024  
                                    ee_write@d 0023                                       _AddUserA 12A6  
                                     _AddUserB 12E4                                       _AddUserC 1655  
                                  __stringbase 1812                                       _DecToStr 088F  
EraseAllUsersAfterAdminConfirm@isEraseAllUsers 00D7                   ?_AddNewUserAfterAdminConfirm 0070  
                                     _LcdDelay 1FD6                                       _LcdClear 1032  
                          __end_of_sendPackage 0D0D              AddNewUserAfterAdminConfirm@UserNo 00EB  
                                     _LcdPrint 1723                              ___lmul@multiplier 0020  
                             ??_FillUpResponse 0038                                  ?_HiSpeedScan0 0069  
                                ?_ee_eraseNPos 0070                       ToggleEndianFormat@result 0035  
                              AddUserA@dataOut 005C                  ??_DeleteUserAfterAdminConfirm 00D7  
            AddNewUserAfterAdminConfirm@result 00E7                                AddUserB@dataOut 005C  
                             __size_of_LcdInit 002F                            AddUserC@contentData 005C  
                              AddUserC@dataOut 0061    AddNewUserAfterAdminConfirm@availSpaceResult 00E9  
                           EraseAllUsers@F1330 00BB                             EraseAllUsers@F1327 00D0  
                                     __Package 00C1                                       _SendByte 11FC  
                             __size_of_KeyScan 0081                                       _UartInit 1FB3  
                                _EraseAllUsers 1268                                      init_fetch 1FC3  
                                  ??_TotDigits 0032                         ??_getNextAvailLocation 0023  
                             __size_of___lldiv 0070                           AddNewUser@scanResult 0065  
                             __size_of___llmod 005E                               __size_of_ee_read 0021  
                   __size_of_reserveEElocation 0026                         __size_of_ControlAccess 00DE  
                   VerifyPswd@confirmationCode 005D                               __size_of_memset1 0024  
                             DeleteUser@UserNo 0060                  ??_AddNewUserAfterAdminConfirm 00D7  
                                     _ee_write 07D8                              ControlAccess@buff 00DC  
                           SendUartValue@value 0021                                 ??_HiSpeedScan0 006B  
                               ??_ee_eraseNPos 0025                     DeleteUser@confirmationCode 0062  
                                     ee_read@a 0021                                  __size_of_main 00FB  
                                     ee_read@d 0022                                  __size_of_menu 0050  
                           MatchTemplate@F1314 00BF                             MatchTemplate@F1317 00D1  
                                     clear_ram 04F5                                 ?_EraseAllUsers 0070  
                  HiSpeedScan@confirmationCode 0068                                _ClearUartBuffer 108E  
                                 TotDigits@val 002E                                    _sendPackage 0BB4  
                        DeleteUser@contentData 005C                              _DefModulePassword 00D3  
                         AlterAdminUser@UserNo 00DA                                  ?_IsKeyPending 0070  
                              DeleteUser@F1292 007A                                DeleteUser@F1289 00A9  
                         AlterAdminUser@result 00D8                               UploadLcdBuffer@i 0029  
                             UploadLcdBuffer@j 002A                                       intlevel1 0000  
                             ___lldiv@dividend 0024                                  ??_HiSpeedScan 005B  
                                _ControlAccess 0AD6                           __size_of_PutUartByte 0016  
                   ?_GenCharacterFileFromImage 0070                                      stringcode 180A  
                              _UploadLcdBuffer 16B8                          __end_of_SendUartValue 149C  
             FillUpResponse@checkSumCalculated 0046         __end_of_EraseAllUsersAfterAdminConfirm 04F5  
      __size_of_EraseAllUsersAfterAdminConfirm 00CB                 _EraseAllUsersAfterAdminConfirm 042A  
                           HiSpeedScan0@UserNo 0069                             sendPackage@content 002D  
                               ??_IsKeyPending 0020                                  ??_GetUartByte 0020  
                             ___lldiv@quotient 002A                        __size_of_AlterAdminUser 0177  
                      ScanForImage@contentData 005B                                       stringtab 1800  
                                _PackageHeader 00B4                                TotDigits@result 0033  
                               ?_ControlAccess 0070                               HiSpeedScan@F1322 00A0  
                                   _AddNewUser 0991                               HiSpeedScan@F1325 01D8  
                      __end_of_ClearUartBuffer 10AF                                ??_EraseAllUsers 0059  
            __end_of_GenCharacterFileFromImage 144E                             _ToggleEndianFormat 0A27  
