opt subtitle "HI-TECH Software Omniscient Code Generator (Lite mode) build 10920"

opt pagewidth 120

	opt lm

	processor	16F877A
clrc	macro
	bcf	3,0
	endm
clrz	macro
	bcf	3,2
	endm
setc	macro
	bsf	3,0
	endm
setz	macro
	bsf	3,2
	endm
skipc	macro
	btfss	3,0
	endm
skipz	macro
	btfss	3,2
	endm
skipnc	macro
	btfsc	3,0
	endm
skipnz	macro
	btfsc	3,2
	endm
indf	equ	0
indf0	equ	0
pc	equ	2
pcl	equ	2
status	equ	3
fsr	equ	4
fsr0	equ	4
c	equ	1
z	equ	0
pclath	equ	10
# 8 "C:\Users\GauravLT\Desktop\Finger Print Sensor\R307\PIC16F877A_R307\main.c"
	psect config,class=CONFIG,delta=2 ;#
# 8 "C:\Users\GauravLT\Desktop\Finger Print Sensor\R307\PIC16F877A_R307\main.c"
	dw 0x3F3A ;#
	FNCALL	_main,_LcdInit
	FNCALL	_main,_LcdPrint
	FNCALL	_main,_Delay
	FNCALL	_main,_UartInit
	FNCALL	_main,_VerifyPswd
	FNCALL	_main,_menu
	FNCALL	_main,_ControlAccess
	FNCALL	_main,_AlterAdminUser
	FNCALL	_main,_AddNewUserAfterAdminConfirm
	FNCALL	_main,_EraseAllUsersAfterAdminConfirm
	FNCALL	_main,_DeleteUserAfterAdminConfirm
	FNCALL	_DeleteUserAfterAdminConfirm,_ee_read
	FNCALL	_DeleteUserAfterAdminConfirm,_LcdClear
	FNCALL	_DeleteUserAfterAdminConfirm,_LcdPrint
	FNCALL	_DeleteUserAfterAdminConfirm,_HiSpeedScan0
	FNCALL	_DeleteUserAfterAdminConfirm,_Delay
	FNCALL	_DeleteUserAfterAdminConfirm,_DecToStr
	FNCALL	_DeleteUserAfterAdminConfirm,_KeyScan
	FNCALL	_DeleteUserAfterAdminConfirm,_IsKeyPending
	FNCALL	_DeleteUserAfterAdminConfirm,_GetKey
	FNCALL	_DeleteUserAfterAdminConfirm,_DeleteUser
	FNCALL	_DeleteUserAfterAdminConfirm,_releaseEElocation
	FNCALL	_AddNewUserAfterAdminConfirm,_ee_read
	FNCALL	_AddNewUserAfterAdminConfirm,_LcdClear
	FNCALL	_AddNewUserAfterAdminConfirm,_LcdPrint
	FNCALL	_AddNewUserAfterAdminConfirm,_HiSpeedScan0
	FNCALL	_AddNewUserAfterAdminConfirm,_Delay
	FNCALL	_AddNewUserAfterAdminConfirm,_getNextAvailLocation
	FNCALL	_AddNewUserAfterAdminConfirm,_AddNewUser
	FNCALL	_AddNewUserAfterAdminConfirm,_DecToStr
	FNCALL	_AlterAdminUser,_ee_read
	FNCALL	_AlterAdminUser,_LcdClear
	FNCALL	_AlterAdminUser,_LcdPrint
	FNCALL	_AlterAdminUser,_HiSpeedScan0
	FNCALL	_AlterAdminUser,_Delay
	FNCALL	_AlterAdminUser,_DeleteUser
	FNCALL	_AlterAdminUser,_AddNewUser
	FNCALL	_ControlAccess,_LcdClear
	FNCALL	_ControlAccess,_LcdPrint
	FNCALL	_ControlAccess,_HiSpeedScan0
	FNCALL	_ControlAccess,_memset1
	FNCALL	_ControlAccess,_DecToStr
	FNCALL	_ControlAccess,_Delay
	FNCALL	_EraseAllUsersAfterAdminConfirm,_ee_read
	FNCALL	_EraseAllUsersAfterAdminConfirm,_LcdClear
	FNCALL	_EraseAllUsersAfterAdminConfirm,_LcdPrint
	FNCALL	_EraseAllUsersAfterAdminConfirm,_HiSpeedScan0
	FNCALL	_EraseAllUsersAfterAdminConfirm,_Delay
	FNCALL	_EraseAllUsersAfterAdminConfirm,_EraseAllUsers
	FNCALL	_EraseAllUsersAfterAdminConfirm,_ee_eraseNPos
	FNCALL	_EraseAllUsersAfterAdminConfirm,_ee_write
	FNCALL	_menu,_LcdClear
	FNCALL	_menu,_LcdPrint
	FNCALL	_menu,_KeyScan
	FNCALL	_menu,_IsKeyPending
	FNCALL	_menu,_GetKey
	FNCALL	_AddNewUser,_KeyScan
	FNCALL	_AddNewUser,_IsKeyPending
	FNCALL	_AddNewUser,_GetKey
	FNCALL	_AddNewUser,_ScanForImage
	FNCALL	_AddNewUser,_GenCharacterFileFromImage
	FNCALL	_AddNewUser,_AddUserA
	FNCALL	_AddNewUser,_AddUserB
	FNCALL	_AddNewUser,_AddUserC
	FNCALL	_AddNewUser,_reserveEElocation
	FNCALL	_HiSpeedScan0,_KeyScan
	FNCALL	_HiSpeedScan0,_IsKeyPending
	FNCALL	_HiSpeedScan0,_GetKey
	FNCALL	_HiSpeedScan0,_ScanForImage
	FNCALL	_HiSpeedScan0,_GenCharacterFileFromImage
	FNCALL	_HiSpeedScan0,_HiSpeedScan
	FNCALL	_AddUserC,_ClearUartBuffer
	FNCALL	_AddUserC,_sendPackage
	FNCALL	_AddUserC,_FillUpResponse
	FNCALL	_AddUserB,_ClearUartBuffer
	FNCALL	_AddUserB,_sendPackage
	FNCALL	_AddUserB,_FillUpResponse
	FNCALL	_AddUserA,_ClearUartBuffer
	FNCALL	_AddUserA,_sendPackage
	FNCALL	_AddUserA,_FillUpResponse
	FNCALL	_HiSpeedScan,_ClearUartBuffer
	FNCALL	_HiSpeedScan,_sendPackage
	FNCALL	_HiSpeedScan,_FillUpResponse
	FNCALL	_GenCharacterFileFromImage,_ClearUartBuffer
	FNCALL	_GenCharacterFileFromImage,_sendPackage
	FNCALL	_GenCharacterFileFromImage,_FillUpResponse
	FNCALL	_ScanForImage,_ClearUartBuffer
	FNCALL	_ScanForImage,_sendPackage
	FNCALL	_ScanForImage,_FillUpResponse
	FNCALL	_VerifyPswd,_ClearUartBuffer
	FNCALL	_VerifyPswd,_sendPackage
	FNCALL	_VerifyPswd,_FillUpResponse
	FNCALL	_DeleteUser,_ClearUartBuffer
	FNCALL	_DeleteUser,_sendPackage
	FNCALL	_DeleteUser,_FillUpResponse
	FNCALL	_EraseAllUsers,_ClearUartBuffer
	FNCALL	_EraseAllUsers,_sendPackage
	FNCALL	_EraseAllUsers,_FillUpResponse
	FNCALL	_LcdPrint,_UploadLcdBuffer
	FNCALL	_LcdInit,_LcdDelay
	FNCALL	_LcdInit,_SendByte
	FNCALL	_LcdInit,_LcdClear
	FNCALL	_sendPackage,_SendUartValue
	FNCALL	_sendPackage,_SendUartByte
	FNCALL	_KeyScan,_PutKey
	FNCALL	_DecToStr,_TotDigits
	FNCALL	_DecToStr,___llmod
	FNCALL	_DecToStr,___lldiv
	FNCALL	_UploadLcdBuffer,_SendByte
	FNCALL	_LcdClear,_memset1
	FNCALL	_LcdClear,_SendByte
	FNCALL	_TotDigits,___lldiv
	FNCALL	_reserveEElocation,_ee_write
	FNCALL	_reserveEElocation,_ee_read
	FNCALL	_FillUpResponse,_memset1
	FNCALL	_FillUpResponse,_IsUartBytePending
	FNCALL	_FillUpResponse,_GetUartByte
	FNCALL	_FillUpResponse,_ToggleEndianFormat
	FNCALL	_SendUartValue,_SendUartByte
	FNCALL	_PutKey,_LcdDelay
	FNCALL	_releaseEElocation,_ee_write
	FNCALL	_releaseEElocation,_ee_read
	FNCALL	_getNextAvailLocation,_ee_read
	FNCALL	_ee_eraseNPos,_ee_write
	FNCALL	_Delay,___lmul
	FNCALL	_SendByte,_LcdDelay
	FNROOT	_main
	FNCALL	_isr,_PutUartByte
	FNCALL	intlevel1,_isr
	global	intlevel1
	FNROOT	intlevel1
	global	HiSpeedScan@F1325
	global	DeleteUser@F1292
	global	VerifyPswd@F1294
	global	HiSpeedScan@F1322
	global	AddUserC@F1349
	global	DeleteUser@F1289
	global	_DefModuleAddress
	global	LoadFingerTemplate@F1312
	global	_PackageHeader
	global	AddUserA@F1335
	global	AddUserA@F1338
	global	AddUserB@F1340
	global	AddUserB@F1343
	global	AddUserC@F1346
	global	EraseAllUsers@F1330
	global	GenCharacterFileFromImage@F1303
	global	GenCharacterFileFromImage@F1305
	global	LoadFingerTemplate@F1309
	global	MatchTemplate@F1314
	global	ScanForImage@F1300
psect	idataBANK3,class=CODE,space=0,delta=2
global __pidataBANK3
__pidataBANK3:
	file	"C:\Users\GauravLT\Desktop\Finger Print Sensor\R307\PIC16F877A_R307\FingerPrintSensor_R307.c"
	line	343

;initializer for HiSpeedScan@F1325
	retlw	01h
	retlw	0
	retlw	0
	retlw	03h
	retlw	0E9h
psect	idataCOMMON,class=CODE,space=0,delta=2
global __pidataCOMMON
__pidataCOMMON:
	line	215

;initializer for DeleteUser@F1292
	retlw	0FFh
	line	229

;initializer for VerifyPswd@F1294
	retlw	0FFh
psect	idataBANK1,class=CODE,space=0,delta=2
global __pidataBANK1
__pidataBANK1:
	line	341

;initializer for HiSpeedScan@F1322
	retlw	0FFh
	retlw	0FFh
	retlw	0FFh
	retlw	0FFh
	retlw	0
	line	438

;initializer for AddUserC@F1349
	retlw	02h
	retlw	0
	retlw	0
	retlw	0
	line	213

;initializer for DeleteUser@F1289
	retlw	0
	retlw	0
	retlw	0
	retlw	01h
	line	11

;initializer for _DefModuleAddress
	retlw	0FFh
	retlw	0FFh
	retlw	0FFh
	retlw	0FFh

	line	272

;initializer for LoadFingerTemplate@F1312
	retlw	02h
	retlw	0
	retlw	0
	line	10

;initializer for _PackageHeader
	retlw	01h
	retlw	0EFh

	line	408

;initializer for AddUserA@F1335
	retlw	0FFh
	line	410

;initializer for AddUserA@F1338
	retlw	02h
	line	422

;initializer for AddUserB@F1340
	retlw	0FFh
	line	424

;initializer for AddUserB@F1343
	retlw	05h
	line	436

;initializer for AddUserC@F1346
	retlw	0FFh
	line	365

;initializer for EraseAllUsers@F1330
	retlw	0FFh
	line	256

;initializer for GenCharacterFileFromImage@F1303
	retlw	01h
	line	257

;initializer for GenCharacterFileFromImage@F1305
	retlw	0FFh
	line	270

;initializer for LoadFingerTemplate@F1309
	retlw	0FFh
	line	285

;initializer for MatchTemplate@F1314
	retlw	0FFh
	line	243

;initializer for ScanForImage@F1300
	retlw	0FFh
	global	_UartBuffer
	global	_KeypdBuffer
	global	_IxPtr
	global	_OxPtr
	global	_UartIxPtr
	global	_UartOxPtr
	global	__Package
	global	_buzzOffCounter
	global	EraseAllUsers@F1327
	global	MatchTemplate@F1317
	global	ScanForImage@F1298
	global	_LcdBuffer
	global	_DefModulePassword
	global	_PORTD
_PORTD	set	8
	global	_RCREG
_RCREG	set	26
	global	_RCSTA
_RCSTA	set	24
	global	_TXREG
_TXREG	set	25
	global	_CARRY
_CARRY	set	24
	global	_GIE
_GIE	set	95
	global	_PEIE
_PEIE	set	94
	global	_RB1
_RB1	set	49
	global	_RB2
_RB2	set	50
	global	_RB3
_RB3	set	51
	global	_RB5
_RB5	set	53
	global	_RC0
_RC0	set	56
	global	_RC1
_RC1	set	57
	global	_RC2
_RC2	set	58
	global	_RC3
_RC3	set	59
	global	_RCIF
_RCIF	set	101
	global	_RD6
_RD6	set	70
	global	_TXIF
_TXIF	set	100
	global	_SPBRG
_SPBRG	set	153
	global	_TRISB
_TRISB	set	134
	global	_TRISC
_TRISC	set	135
	global	_TRISD
_TRISD	set	136
	global	_TXSTA
_TXSTA	set	152
	global	_RCIE
_RCIE	set	1125
	global	_EEADR
_EEADR	set	269
	global	_EEDATA
_EEDATA	set	268
	global	_EECON1
_EECON1	set	396
	global	_EECON2
_EECON2	set	397
	global	_EEPGD
_EEPGD	set	3175
	global	_RD
_RD	set	3168
	global	_WR
_WR	set	3169
	global	_WREN
_WREN	set	3170
	global	_WRERR
_WRERR	set	3171
psect	strings,class=STRING,delta=2
global __pstrings
__pstrings:
;	global	stringtab,__stringbase
stringtab:
;	String table - string pointers are 2 bytes each
	btfsc	(btemp+1),7
	ljmp	stringcode
	bcf	status,7
	btfsc	(btemp+1),0
	bsf	status,7
	movf	indf,w
	incf fsr
skipnz
incf btemp+1
	return
stringcode:
	movf btemp+1,w
andlw 7Fh
movwf	pclath
	movf	fsr,w
incf fsr
skipnz
incf btemp+1
	movwf pc
__stringbase:
psect	stringtext,class=STRCODE,delta=2,reloc=256
global __pstringtext
__pstringtext:
	
STR_33:	
	retlw	49	;'1'
	retlw	32	;' '
	retlw	65	;'A'
	retlw	100	;'d'
	retlw	100	;'d'
	retlw	32	;' '
	retlw	78	;'N'
	retlw	101	;'e'
	retlw	119	;'w'
	retlw	32	;' '
	retlw	85	;'U'
	retlw	115	;'s'
	retlw	101	;'e'
	retlw	114	;'r'
	retlw	10
	retlw	50	;'2'
	retlw	32	;' '
	retlw	68	;'D'
	retlw	101	;'e'
	retlw	108	;'l'
	retlw	101	;'e'
	retlw	116	;'t'
	retlw	101	;'e'
	retlw	32	;' '
	retlw	79	;'O'
	retlw	108	;'l'
	retlw	100	;'d'
	retlw	32	;' '
	retlw	85	;'U'
	retlw	115	;'s'
	retlw	101	;'e'
	retlw	114	;'r'
	retlw	0
psect	stringtext
	
STR_32:	
	retlw	49	;'1'
	retlw	32	;' '
	retlw	67	;'C'
	retlw	104	;'h'
	retlw	97	;'a'
	retlw	110	;'n'
	retlw	103	;'g'
	retlw	101	;'e'
	retlw	32	;' '
	retlw	65	;'A'
	retlw	100	;'d'
	retlw	109	;'m'
	retlw	105	;'i'
	retlw	110	;'n'
	retlw	10
	retlw	50	;'2'
	retlw	32	;' '
	retlw	65	;'A'
	retlw	100	;'d'
	retlw	100	;'d'
	retlw	47	;'/'
	retlw	68	;'D'
	retlw	101	;'e'
	retlw	108	;'l'
	retlw	32	;' '
	retlw	85	;'U'
	retlw	115	;'s'
	retlw	101	;'e'
	retlw	114	;'r'
	retlw	0
psect	stringtext
	
STR_31:	
	retlw	49	;'1'
	retlw	32	;' '
	retlw	70	;'F'
	retlw	111	;'o'
	retlw	114	;'r'
	retlw	32	;' '
	retlw	65	;'A'
	retlw	99	;'c'
	retlw	99	;'c'
	retlw	101	;'e'
	retlw	115	;'s'
	retlw	115	;'s'
	retlw	10
	retlw	50	;'2'
	retlw	32	;' '
	retlw	70	;'F'
	retlw	111	;'o'
	retlw	114	;'r'
	retlw	32	;' '
	retlw	65	;'A'
	retlw	108	;'l'
	retlw	116	;'t'
	retlw	101	;'e'
	retlw	114	;'r'
	retlw	32	;' '
	retlw	85	;'U'
	retlw	115	;'s'
	retlw	101	;'e'
	retlw	114	;'r'
	retlw	0
psect	stringtext
	
STR_34:	
	retlw	49	;'1'
	retlw	32	;' '
	retlw	68	;'D'
	retlw	101	;'e'
	retlw	108	;'l'
	retlw	101	;'e'
	retlw	116	;'t'
	retlw	101	;'e'
	retlw	32	;' '
	retlw	65	;'A'
	retlw	108	;'l'
	retlw	108	;'l'
	retlw	10
	retlw	50	;'2'
	retlw	32	;' '
	retlw	68	;'D'
	retlw	101	;'e'
	retlw	108	;'l'
	retlw	101	;'e'
	retlw	116	;'t'
	retlw	101	;'e'
	retlw	32	;' '
	retlw	83	;'S'
	retlw	105	;'i'
	retlw	110	;'n'
	retlw	103	;'g'
	retlw	108	;'l'
	retlw	101	;'e'
	retlw	0
psect	stringtext
	
STR_1:	
	retlw	65	;'A'
	retlw	100	;'d'
	retlw	109	;'m'
	retlw	105	;'i'
	retlw	110	;'n'
	retlw	32	;' '
	retlw	82	;'R'
	retlw	101	;'e'
	retlw	113	;'q'
	retlw	117	;'u'
	retlw	105	;'i'
	retlw	114	;'r'
	retlw	101	;'e'
	retlw	100	;'d'
	retlw	10
	retlw	80	;'P'
	retlw	108	;'l'
	retlw	97	;'a'
	retlw	99	;'c'
	retlw	101	;'e'
	retlw	32	;' '
	retlw	70	;'F'
	retlw	105	;'i'
	retlw	110	;'n'
	retlw	103	;'g'
	retlw	101	;'e'
	retlw	114	;'r'
	retlw	0
psect	stringtext
	
STR_16:	
	retlw	69	;'E'
	retlw	114	;'r'
	retlw	114	;'r'
	retlw	111	;'o'
	retlw	114	;'r'
	retlw	32	;' '
	retlw	73	;'I'
	retlw	110	;'n'
	retlw	10
	retlw	32	;' '
	retlw	32	;' '
	retlw	82	;'R'
	retlw	101	;'e'
	retlw	103	;'g'
	retlw	105	;'i'
	retlw	115	;'s'
	retlw	116	;'t'
	retlw	101	;'e'
	retlw	114	;'r'
	retlw	97	;'a'
	retlw	116	;'t'
	retlw	105	;'i'
	retlw	111	;'o'
	retlw	110	;'n'
	retlw	0
psect	stringtext
	
STR_13:	
	retlw	80	;'P'
	retlw	108	;'l'
	retlw	122	;'z'
	retlw	32	;' '
	retlw	82	;'R'
	retlw	101	;'e'
	retlw	103	;'g'
	retlw	105	;'i'
	retlw	115	;'s'
	retlw	116	;'t'
	retlw	101	;'e'
	retlw	114	;'r'
	retlw	10
	retlw	32	;' '
	retlw	110	;'n'
	retlw	101	;'e'
	retlw	119	;'w'
	retlw	32	;' '
	retlw	65	;'A'
	retlw	100	;'d'
	retlw	109	;'m'
	retlw	105	;'i'
	retlw	110	;'n'
	retlw	0
psect	stringtext
	
STR_23:	
	retlw	69	;'E'
	retlw	114	;'r'
	retlw	114	;'r'
	retlw	111	;'o'
	retlw	114	;'r'
	retlw	32	;' '
	retlw	73	;'I'
	retlw	110	;'n'
	retlw	10
	retlw	32	;' '
	retlw	85	;'U'
	retlw	115	;'s'
	retlw	101	;'e'
	retlw	114	;'r'
	retlw	32	;' '
	retlw	67	;'C'
	retlw	114	;'r'
	retlw	101	;'e'
	retlw	97	;'a'
	retlw	116	;'t'
	retlw	105	;'i'
	retlw	111	;'o'
	retlw	110	;'n'
	retlw	0
psect	stringtext
	
STR_27:	
	retlw	85	;'U'
	retlw	115	;'s'
	retlw	101	;'e'
	retlw	114	;'r'
	retlw	32	;' '
	retlw	68	;'D'
	retlw	101	;'e'
	retlw	108	;'l'
	retlw	101	;'e'
	retlw	116	;'t'
	retlw	101	;'e'
	retlw	100	;'d'
	retlw	10
	retlw	85	;'U'
	retlw	115	;'s'
	retlw	101	;'e'
	retlw	114	;'r'
	retlw	32	;' '
	retlw	78	;'N'
	retlw	111	;'o'
	retlw	58	;':'
	retlw	0
psect	stringtext
	
STR_21:	
	retlw	78	;'N'
	retlw	101	;'e'
	retlw	119	;'w'
	retlw	32	;' '
	retlw	85	;'U'
	retlw	115	;'s'
	retlw	101	;'e'
	retlw	114	;'r'
	retlw	10
	retlw	80	;'P'
	retlw	108	;'l'
	retlw	97	;'a'
	retlw	99	;'c'
	retlw	101	;'e'
	retlw	32	;' '
	retlw	70	;'F'
	retlw	105	;'i'
	retlw	110	;'n'
	retlw	103	;'g'
	retlw	101	;'e'
	retlw	114	;'r'
	retlw	0
psect	stringtext
	
STR_22:	
	retlw	78	;'N'
	retlw	101	;'e'
	retlw	119	;'w'
	retlw	32	;' '
	retlw	85	;'U'
	retlw	115	;'s'
	retlw	101	;'e'
	retlw	114	;'r'
	retlw	10
	retlw	32	;' '
	retlw	67	;'C'
	retlw	114	;'r'
	retlw	101	;'e'
	retlw	97	;'a'
	retlw	116	;'t'
	retlw	101	;'e'
	retlw	100	;'d'
	retlw	32	;' '
	retlw	64	;'@'
	retlw	58	;':'
	retlw	0
psect	stringtext
	
STR_6:	
	retlw	85	;'U'
	retlw	115	;'s'
	retlw	101	;'e'
	retlw	114	;'r'
	retlw	32	;' '
	retlw	86	;'V'
	retlw	97	;'a'
	retlw	108	;'l'
	retlw	105	;'i'
	retlw	100	;'d'
	retlw	10
	retlw	85	;'U'
	retlw	115	;'s'
	retlw	101	;'e'
	retlw	114	;'r'
	retlw	32	;' '
	retlw	78	;'N'
	retlw	111	;'o'
	retlw	58	;':'
	retlw	0
psect	stringtext
	
STR_15:	
	retlw	65	;'A'
	retlw	100	;'d'
	retlw	109	;'m'
	retlw	105	;'i'
	retlw	110	;'n'
	retlw	32	;' '
	retlw	10
	retlw	32	;' '
	retlw	32	;' '
	retlw	82	;'R'
	retlw	101	;'e'
	retlw	103	;'g'
	retlw	105	;'i'
	retlw	115	;'s'
	retlw	116	;'t'
	retlw	101	;'e'
	retlw	114	;'r'
	retlw	101	;'e'
	retlw	100	;'d'
	retlw	0
psect	stringtext
	
STR_11:	
	retlw	67	;'C'
	retlw	97	;'a'
	retlw	110	;'n'
	retlw	39	;'''
	retlw	116	;'t'
	retlw	32	;' '
	retlw	68	;'D'
	retlw	101	;'e'
	retlw	108	;'l'
	retlw	101	;'e'
	retlw	116	;'t'
	retlw	101	;'e'
	retlw	10
	retlw	32	;' '
	retlw	65	;'A'
	retlw	100	;'d'
	retlw	109	;'m'
	retlw	105	;'i'
	retlw	110	;'n'
	retlw	0
psect	stringtext
	
STR_4:	
	retlw	65	;'A'
	retlw	108	;'l'
	retlw	108	;'l'
	retlw	32	;' '
	retlw	85	;'U'
	retlw	115	;'s'
	retlw	101	;'e'
	retlw	114	;'r'
	retlw	115	;'s'
	retlw	10
	retlw	32	;' '
	retlw	68	;'D'
	retlw	101	;'e'
	retlw	108	;'l'
	retlw	101	;'e'
	retlw	116	;'t'
	retlw	101	;'e'
	retlw	100	;'d'
	retlw	0
psect	stringtext
	
STR_20:	
	retlw	78	;'N'
	retlw	111	;'o'
	retlw	116	;'t'
	retlw	32	;' '
	retlw	69	;'E'
	retlw	110	;'n'
	retlw	111	;'o'
	retlw	117	;'u'
	retlw	103	;'g'
	retlw	104	;'h'
	retlw	10
	retlw	32	;' '
	retlw	77	;'M'
	retlw	101	;'e'
	retlw	109	;'m'
	retlw	111	;'o'
	retlw	114	;'r'
	retlw	121	;'y'
	retlw	0
psect	stringtext
	
STR_3:	
	retlw	65	;'A'
	retlw	100	;'d'
	retlw	109	;'m'
	retlw	105	;'i'
	retlw	110	;'n'
	retlw	32	;' '
	retlw	78	;'N'
	retlw	111	;'o'
	retlw	116	;'t'
	retlw	10
	retlw	32	;' '
	retlw	32	;' '
	retlw	102	;'f'
	retlw	111	;'o'
	retlw	117	;'u'
	retlw	110	;'n'
	retlw	100	;'d'
	retlw	0
psect	stringtext
	
STR_10:	
	retlw	65	;'A'
	retlw	100	;'d'
	retlw	109	;'m'
	retlw	105	;'i'
	retlw	110	;'n'
	retlw	32	;' '
	retlw	68	;'D'
	retlw	101	;'e'
	retlw	108	;'l'
	retlw	101	;'e'
	retlw	116	;'t'
	retlw	101	;'e'
	retlw	100	;'d'
	retlw	0
psect	stringtext
	
STR_28:	
	retlw	67	;'C'
	retlw	97	;'a'
	retlw	110	;'n'
	retlw	110	;'n'
	retlw	111	;'o'
	retlw	116	;'t'
	retlw	32	;' '
	retlw	68	;'D'
	retlw	101	;'e'
	retlw	108	;'l'
	retlw	101	;'e'
	retlw	116	;'t'
	retlw	101	;'e'
	retlw	0
psect	stringtext
	
STR_7:	
	retlw	73	;'I'
	retlw	110	;'n'
	retlw	118	;'v'
	retlw	97	;'a'
	retlw	108	;'l'
	retlw	105	;'i'
	retlw	100	;'d'
	retlw	32	;' '
	retlw	85	;'U'
	retlw	115	;'s'
	retlw	101	;'e'
	retlw	114	;'r'
	retlw	0
psect	stringtext
	
STR_2:	
	retlw	65	;'A'
	retlw	100	;'d'
	retlw	109	;'m'
	retlw	105	;'i'
	retlw	110	;'n'
	retlw	32	;' '
	retlw	102	;'f'
	retlw	111	;'o'
	retlw	117	;'u'
	retlw	110	;'n'
	retlw	100	;'d'
	retlw	0
psect	stringtext
	
STR_26:	
	retlw	83	;'S'
	retlw	101	;'e'
	retlw	108	;'l'
	retlw	101	;'e'
	retlw	99	;'c'
	retlw	116	;'t'
	retlw	32	;' '
	retlw	85	;'U'
	retlw	115	;'s'
	retlw	101	;'e'
	retlw	114	;'r'
	retlw	0
psect	stringtext
	
STR_30:	
	retlw	87	;'W'
	retlw	101	;'e'
	retlw	108	;'l'
	retlw	99	;'c'
	retlw	111	;'o'
	retlw	109	;'m'
	retlw	101	;'e'
	retlw	0
psect	stringtext
STR_8	equ	STR_1+0
STR_17	equ	STR_1+0
STR_24	equ	STR_1+0
STR_5	equ	STR_1+15
STR_14	equ	STR_1+15
STR_9	equ	STR_2+0
STR_18	equ	STR_2+0
STR_25	equ	STR_2+0
STR_12	equ	STR_3+0
STR_19	equ	STR_3+0
STR_29	equ	STR_3+0
	file	"proj.as"
	line	#
psect cinit,class=CODE,delta=2
global start_initialization
start_initialization:

psect	bssCOMMON,class=COMMON,space=1
global __pbssCOMMON
__pbssCOMMON:
_IxPtr:
       ds      1

_OxPtr:
       ds      1

_UartIxPtr:
       ds      1

_UartOxPtr:
       ds      1

psect	dataCOMMON,class=COMMON,space=1
global __pdataCOMMON
__pdataCOMMON:
	file	"C:\Users\GauravLT\Desktop\Finger Print Sensor\R307\PIC16F877A_R307\FingerPrintSensor_R307.c"
	line	215
DeleteUser@F1292:
       ds      1

psect	dataCOMMON
	file	"C:\Users\GauravLT\Desktop\Finger Print Sensor\R307\PIC16F877A_R307\FingerPrintSensor_R307.c"
	line	229
VerifyPswd@F1294:
       ds      1

psect	bssBANK1,class=BANK1,space=1
global __pbssBANK1
__pbssBANK1:
__Package:
       ds      13

_buzzOffCounter:
       ds      2

EraseAllUsers@F1327:
       ds      1

MatchTemplate@F1317:
       ds      1

ScanForImage@F1298:
       ds      1

_DefModulePassword:
       ds      4

psect	dataBANK1,class=BANK1,space=1
global __pdataBANK1
__pdataBANK1:
	file	"C:\Users\GauravLT\Desktop\Finger Print Sensor\R307\PIC16F877A_R307\FingerPrintSensor_R307.c"
	line	341
HiSpeedScan@F1322:
       ds      5

psect	dataBANK1
	file	"C:\Users\GauravLT\Desktop\Finger Print Sensor\R307\PIC16F877A_R307\FingerPrintSensor_R307.c"
	line	438
AddUserC@F1349:
       ds      4

psect	dataBANK1
	file	"C:\Users\GauravLT\Desktop\Finger Print Sensor\R307\PIC16F877A_R307\FingerPrintSensor_R307.c"
	line	213
DeleteUser@F1289:
       ds      4

psect	dataBANK1
	file	"C:\Users\GauravLT\Desktop\Finger Print Sensor\R307\PIC16F877A_R307\FingerPrintSensor_R307.c"
	line	11
_DefModuleAddress:
       ds      4

psect	dataBANK1
	file	"C:\Users\GauravLT\Desktop\Finger Print Sensor\R307\PIC16F877A_R307\FingerPrintSensor_R307.c"
	line	272
LoadFingerTemplate@F1312:
       ds      3

psect	dataBANK1
	file	"C:\Users\GauravLT\Desktop\Finger Print Sensor\R307\PIC16F877A_R307\FingerPrintSensor_R307.c"
	line	10
_PackageHeader:
       ds      2

psect	dataBANK1
	file	"C:\Users\GauravLT\Desktop\Finger Print Sensor\R307\PIC16F877A_R307\FingerPrintSensor_R307.c"
	line	408
AddUserA@F1335:
       ds      1

psect	dataBANK1
	file	"C:\Users\GauravLT\Desktop\Finger Print Sensor\R307\PIC16F877A_R307\FingerPrintSensor_R307.c"
	line	410
AddUserA@F1338:
       ds      1

psect	dataBANK1
	file	"C:\Users\GauravLT\Desktop\Finger Print Sensor\R307\PIC16F877A_R307\FingerPrintSensor_R307.c"
	line	422
AddUserB@F1340:
       ds      1

psect	dataBANK1
	file	"C:\Users\GauravLT\Desktop\Finger Print Sensor\R307\PIC16F877A_R307\FingerPrintSensor_R307.c"
	line	424
AddUserB@F1343:
       ds      1

psect	dataBANK1
	file	"C:\Users\GauravLT\Desktop\Finger Print Sensor\R307\PIC16F877A_R307\FingerPrintSensor_R307.c"
	line	436
AddUserC@F1346:
       ds      1

psect	dataBANK1
	file	"C:\Users\GauravLT\Desktop\Finger Print Sensor\R307\PIC16F877A_R307\FingerPrintSensor_R307.c"
	line	365
EraseAllUsers@F1330:
       ds      1

psect	dataBANK1
	file	"C:\Users\GauravLT\Desktop\Finger Print Sensor\R307\PIC16F877A_R307\FingerPrintSensor_R307.c"
	line	256
GenCharacterFileFromImage@F1303:
       ds      1

psect	dataBANK1
	file	"C:\Users\GauravLT\Desktop\Finger Print Sensor\R307\PIC16F877A_R307\FingerPrintSensor_R307.c"
	line	257
GenCharacterFileFromImage@F1305:
       ds      1

psect	dataBANK1
	file	"C:\Users\GauravLT\Desktop\Finger Print Sensor\R307\PIC16F877A_R307\FingerPrintSensor_R307.c"
	line	270
LoadFingerTemplate@F1309:
       ds      1

psect	dataBANK1
	file	"C:\Users\GauravLT\Desktop\Finger Print Sensor\R307\PIC16F877A_R307\FingerPrintSensor_R307.c"
	line	285
MatchTemplate@F1314:
       ds      1

psect	dataBANK1
	file	"C:\Users\GauravLT\Desktop\Finger Print Sensor\R307\PIC16F877A_R307\FingerPrintSensor_R307.c"
	line	243
ScanForImage@F1300:
       ds      1

psect	bssBANK3,class=BANK3,space=1
global __pbssBANK3
__pbssBANK3:
_KeypdBuffer:
       ds      20

_LcdBuffer:
       ds      32

psect	dataBANK3,class=BANK3,space=1
global __pdataBANK3
__pdataBANK3:
	file	"C:\Users\GauravLT\Desktop\Finger Print Sensor\R307\PIC16F877A_R307\FingerPrintSensor_R307.c"
	line	343
HiSpeedScan@F1325:
       ds      5

psect	bssBANK2,class=BANK2,space=1
global __pbssBANK2
__pbssBANK2:
_UartBuffer:
       ds      96

psect clrtext,class=CODE,delta=2
global clear_ram
;	Called with FSR containing the base address, and
;	W with the last address+1
clear_ram:
	clrwdt			;clear the watchdog before getting into this loop
clrloop:
	clrf	indf		;clear RAM location pointed to by FSR
	incf	fsr,f		;increment pointer
	xorwf	fsr,w		;XOR with final address
	btfsc	status,2	;have we reached the end yet?
	retlw	0		;all done for this memory range, return
	xorwf	fsr,w		;XOR again to restore value
	goto	clrloop		;do the next byte

; Clear objects allocated to COMMON
psect cinit,class=CODE,delta=2
	clrf	((__pbssCOMMON)+0)&07Fh
	clrf	((__pbssCOMMON)+1)&07Fh
	clrf	((__pbssCOMMON)+2)&07Fh
	clrf	((__pbssCOMMON)+3)&07Fh
; Clear objects allocated to BANK1
psect cinit,class=CODE,delta=2
	bcf	status, 7	;select IRP bank0
	movlw	low(__pbssBANK1)
	movwf	fsr
	movlw	low((__pbssBANK1)+016h)
	fcall	clear_ram
; Clear objects allocated to BANK3
psect cinit,class=CODE,delta=2
	bsf	status, 7	;select IRP bank2
	movlw	low(__pbssBANK3)
	movwf	fsr
	movlw	low((__pbssBANK3)+034h)
	fcall	clear_ram
; Clear objects allocated to BANK2
psect cinit,class=CODE,delta=2
	movlw	low(__pbssBANK2)
	movwf	fsr
	movlw	low((__pbssBANK2)+060h)
	fcall	clear_ram
global btemp
psect inittext,class=CODE,delta=2
global init_fetch,btemp
;	Called with low address in FSR and high address in W
init_fetch:
	movf btemp,w
	movwf pclath
	movf btemp+1,w
	movwf pc
global init_ram
;Called with:
;	high address of idata address in btemp 
;	low address of idata address in btemp+1 
;	low address of data in FSR
;	high address + 1 of data in btemp-1
init_ram:
	fcall init_fetch
	movwf indf,f
	incf fsr,f
	movf fsr,w
	xorwf btemp-1,w
	btfsc status,2
	retlw 0
	incf btemp+1,f
	btfsc status,2
	incf btemp,f
	goto init_ram
; Initialize objects allocated to BANK3
psect cinit,class=CODE,delta=2
global init_ram, __pidataBANK3
	movlw low(__pdataBANK3+5)
	movwf btemp-1,f
	movlw high(__pidataBANK3)
	movwf btemp,f
	movlw low(__pidataBANK3)
	movwf btemp+1,f
	movlw low(__pdataBANK3)
	movwf fsr,f
	fcall init_ram
; Initialize objects allocated to BANK1
psect cinit,class=CODE,delta=2
global init_ram, __pidataBANK1
	bcf	status, 7	;select IRP bank0
	movlw low(__pdataBANK1+33)
	movwf btemp-1,f
	movlw high(__pidataBANK1)
	movwf btemp,f
	movlw low(__pidataBANK1)
	movwf btemp+1,f
	movlw low(__pdataBANK1)
	movwf fsr,f
	fcall init_ram
; Initialize objects allocated to COMMON
	global __pidataCOMMON
psect cinit,class=CODE,delta=2
	fcall	__pidataCOMMON+0		;fetch initializer
	movwf	__pdataCOMMON+0&07fh		
	fcall	__pidataCOMMON+1		;fetch initializer
	movwf	__pdataCOMMON+1&07fh		
psect cinit,class=CODE,delta=2
global end_of_initialization

;End of C runtime variable initialization code

end_of_initialization:
clrf status
ljmp _main	;jump to C main() function
psect	cstackBANK3,class=BANK3,space=1
global __pcstackBANK3
__pcstackBANK3:
	global	DeleteUserAfterAdminConfirm@buff_2234
DeleteUserAfterAdminConfirm@buff_2234:	; 10 bytes @ 0x0
	ds	10
	global	DeleteUserAfterAdminConfirm@isDeleteUser
DeleteUserAfterAdminConfirm@isDeleteUser:	; 1 bytes @ 0xA
	ds	1
	global	DeleteUserAfterAdminConfirm@buff
DeleteUserAfterAdminConfirm@buff:	; 5 bytes @ 0xB
	ds	5
	global	DeleteUserAfterAdminConfirm@result
DeleteUserAfterAdminConfirm@result:	; 1 bytes @ 0x10
	ds	1
	global	DeleteUserAfterAdminConfirm@UserNo
DeleteUserAfterAdminConfirm@UserNo:	; 1 bytes @ 0x11
	ds	1
	global	DeleteUserAfterAdminConfirm@key
DeleteUserAfterAdminConfirm@key:	; 1 bytes @ 0x12
	ds	1
	global	DeleteUserAfterAdminConfirm@DelUserNo
DeleteUserAfterAdminConfirm@DelUserNo:	; 1 bytes @ 0x13
	ds	1
psect	cstackBANK1,class=BANK1,space=1
global __pcstackBANK1
__pcstackBANK1:
	global	??_ControlAccess
??_ControlAccess:	; 0 bytes @ 0x0
	global	??_AddNewUserAfterAdminConfirm
??_AddNewUserAfterAdminConfirm:	; 0 bytes @ 0x0
	global	??_DeleteUserAfterAdminConfirm
??_DeleteUserAfterAdminConfirm:	; 0 bytes @ 0x0
	global	EraseAllUsersAfterAdminConfirm@isEraseAllUsers
EraseAllUsersAfterAdminConfirm@isEraseAllUsers:	; 1 bytes @ 0x0
	global	AlterAdminUser@Create0thPositionUser
AlterAdminUser@Create0thPositionUser:	; 1 bytes @ 0x0
	ds	1
	global	EraseAllUsersAfterAdminConfirm@result
EraseAllUsersAfterAdminConfirm@result:	; 1 bytes @ 0x1
	global	AlterAdminUser@result
AlterAdminUser@result:	; 1 bytes @ 0x1
	ds	1
	global	EraseAllUsersAfterAdminConfirm@UserNo
EraseAllUsersAfterAdminConfirm@UserNo:	; 1 bytes @ 0x2
	global	AlterAdminUser@NewUserResult
AlterAdminUser@NewUserResult:	; 1 bytes @ 0x2
	ds	1
	global	AlterAdminUser@UserNo
AlterAdminUser@UserNo:	; 1 bytes @ 0x3
	ds	2
	global	ControlAccess@buff
ControlAccess@buff:	; 10 bytes @ 0x5
	global	AddNewUserAfterAdminConfirm@buff
AddNewUserAfterAdminConfirm@buff:	; 10 bytes @ 0x5
	ds	10
	global	ControlAccess@result
ControlAccess@result:	; 1 bytes @ 0xF
	global	AddNewUserAfterAdminConfirm@isAddNewUser
AddNewUserAfterAdminConfirm@isAddNewUser:	; 1 bytes @ 0xF
	ds	1
	global	ControlAccess@UserNo
ControlAccess@UserNo:	; 1 bytes @ 0x10
	global	AddNewUserAfterAdminConfirm@result
AddNewUserAfterAdminConfirm@result:	; 1 bytes @ 0x10
	ds	1
	global	AddNewUserAfterAdminConfirm@_availSpaceResult
AddNewUserAfterAdminConfirm@_availSpaceResult:	; 1 bytes @ 0x11
	ds	1
	global	AddNewUserAfterAdminConfirm@availSpaceResult
AddNewUserAfterAdminConfirm@availSpaceResult:	; 1 bytes @ 0x12
	ds	1
	global	AddNewUserAfterAdminConfirm@AddNewUserResult
AddNewUserAfterAdminConfirm@AddNewUserResult:	; 1 bytes @ 0x13
	ds	1
	global	AddNewUserAfterAdminConfirm@UserNo
AddNewUserAfterAdminConfirm@UserNo:	; 1 bytes @ 0x14
	ds	1
psect	cstackCOMMON,class=COMMON,space=1
global __pcstackCOMMON
__pcstackCOMMON:
	global	?_LcdClear
?_LcdClear:	; 0 bytes @ 0x0
	global	?_ee_eraseNPos
?_ee_eraseNPos:	; 0 bytes @ 0x0
	global	?_KeyScan
?_KeyScan:	; 0 bytes @ 0x0
	global	?_releaseEElocation
?_releaseEElocation:	; 0 bytes @ 0x0
	global	?_PutUartByte
?_PutUartByte:	; 0 bytes @ 0x0
	global	??_PutUartByte
??_PutUartByte:	; 0 bytes @ 0x0
	global	?_UartInit
?_UartInit:	; 0 bytes @ 0x0
	global	?_reserveEElocation
?_reserveEElocation:	; 0 bytes @ 0x0
	global	?_LcdInit
?_LcdInit:	; 0 bytes @ 0x0
	global	?_UploadLcdBuffer
?_UploadLcdBuffer:	; 0 bytes @ 0x0
	global	?_isr
?_isr:	; 0 bytes @ 0x0
	global	?_main
?_main:	; 0 bytes @ 0x0
	global	?_PutKey
?_PutKey:	; 0 bytes @ 0x0
	global	?_SendUartByte
?_SendUartByte:	; 0 bytes @ 0x0
	global	?_ClearUartBuffer
?_ClearUartBuffer:	; 0 bytes @ 0x0
	global	?_ee_read
?_ee_read:	; 1 bytes @ 0x0
	global	?_EraseAllUsers
?_EraseAllUsers:	; 1 bytes @ 0x0
	global	?_DeleteUser
?_DeleteUser:	; 1 bytes @ 0x0
	global	?_AddNewUser
?_AddNewUser:	; 1 bytes @ 0x0
	global	?_getNextAvailLocation
?_getNextAvailLocation:	; 1 bytes @ 0x0
	global	?_IsKeyPending
?_IsKeyPending:	; 1 bytes @ 0x0
	global	?_GetKey
?_GetKey:	; 1 bytes @ 0x0
	global	?_VerifyPswd
?_VerifyPswd:	; 1 bytes @ 0x0
	global	?_EraseAllUsersAfterAdminConfirm
?_EraseAllUsersAfterAdminConfirm:	; 1 bytes @ 0x0
	global	?_ControlAccess
?_ControlAccess:	; 1 bytes @ 0x0
	global	?_AlterAdminUser
?_AlterAdminUser:	; 1 bytes @ 0x0
	global	?_AddNewUserAfterAdminConfirm
?_AddNewUserAfterAdminConfirm:	; 1 bytes @ 0x0
	global	?_DeleteUserAfterAdminConfirm
?_DeleteUserAfterAdminConfirm:	; 1 bytes @ 0x0
	global	?_IsUartBytePending
?_IsUartBytePending:	; 1 bytes @ 0x0
	global	?_GetUartByte
?_GetUartByte:	; 1 bytes @ 0x0
	global	?_ScanForImage
?_ScanForImage:	; 1 bytes @ 0x0
	global	?_GenCharacterFileFromImage
?_GenCharacterFileFromImage:	; 1 bytes @ 0x0
	global	?_AddUserA
?_AddUserA:	; 1 bytes @ 0x0
	global	?_AddUserB
?_AddUserB:	; 1 bytes @ 0x0
	global	?_AddUserC
?_AddUserC:	; 1 bytes @ 0x0
	ds	1
	global	PutUartByte@val
PutUartByte@val:	; 1 bytes @ 0x1
	ds	1
	global	??_isr
??_isr:	; 0 bytes @ 0x2
	ds	4
psect	cstackBANK0,class=BANK0,space=1
global __pcstackBANK0
__pcstackBANK0:
	global	?_LcdDelay
?_LcdDelay:	; 0 bytes @ 0x0
	global	?_memset1
?_memset1:	; 0 bytes @ 0x0
	global	??_ee_read
??_ee_read:	; 0 bytes @ 0x0
	global	??_IsKeyPending
??_IsKeyPending:	; 0 bytes @ 0x0
	global	??_GetKey
??_GetKey:	; 0 bytes @ 0x0
	global	??_UartInit
??_UartInit:	; 0 bytes @ 0x0
	global	??_SendUartByte
??_SendUartByte:	; 0 bytes @ 0x0
	global	??_ClearUartBuffer
??_ClearUartBuffer:	; 0 bytes @ 0x0
	global	??_IsUartBytePending
??_IsUartBytePending:	; 0 bytes @ 0x0
	global	??_GetUartByte
??_GetUartByte:	; 0 bytes @ 0x0
	global	?_ToggleEndianFormat
?_ToggleEndianFormat:	; 4 bytes @ 0x0
	global	?___lmul
?___lmul:	; 4 bytes @ 0x0
	global	?___llmod
?___llmod:	; 4 bytes @ 0x0
	global	?___lldiv
?___lldiv:	; 4 bytes @ 0x0
	global	SendUartByte@val
SendUartByte@val:	; 1 bytes @ 0x0
	global	LcdDelay@d
LcdDelay@d:	; 2 bytes @ 0x0
	global	memset1@str
memset1@str:	; 2 bytes @ 0x0
	global	ToggleEndianFormat@val
ToggleEndianFormat@val:	; 4 bytes @ 0x0
	global	___lmul@multiplier
___lmul@multiplier:	; 4 bytes @ 0x0
	global	___llmod@divisor
___llmod@divisor:	; 4 bytes @ 0x0
	global	___lldiv@divisor
___lldiv@divisor:	; 4 bytes @ 0x0
	ds	1
	global	?_SendUartValue
?_SendUartValue:	; 0 bytes @ 0x1
	global	GetKey@key
GetKey@key:	; 1 bytes @ 0x1
	global	ClearUartBuffer@i
ClearUartBuffer@i:	; 1 bytes @ 0x1
	global	GetUartByte@val
GetUartByte@val:	; 1 bytes @ 0x1
	global	ee_read@a
ee_read@a:	; 1 bytes @ 0x1
	global	SendUartValue@value
SendUartValue@value:	; 4 bytes @ 0x1
	ds	1
	global	??_LcdDelay
??_LcdDelay:	; 0 bytes @ 0x2
	global	?_SendByte
?_SendByte:	; 0 bytes @ 0x2
	global	??_PutKey
??_PutKey:	; 0 bytes @ 0x2
	global	SendByte@val
SendByte@val:	; 1 bytes @ 0x2
	global	ee_read@d
ee_read@d:	; 1 bytes @ 0x2
	global	memset1@data
memset1@data:	; 1 bytes @ 0x2
	ds	1
	global	??_SendByte
??_SendByte:	; 0 bytes @ 0x3
	global	?_ee_write
?_ee_write:	; 0 bytes @ 0x3
	global	??_getNextAvailLocation
??_getNextAvailLocation:	; 0 bytes @ 0x3
	global	PutKey@key
PutKey@key:	; 1 bytes @ 0x3
	global	ee_write@d
ee_write@d:	; 1 bytes @ 0x3
	global	memset1@len
memset1@len:	; 2 bytes @ 0x3
	ds	1
	global	??_ee_write
??_ee_write:	; 0 bytes @ 0x4
	global	??_KeyScan
??_KeyScan:	; 0 bytes @ 0x4
	global	SendByte@Mode
SendByte@Mode:	; 1 bytes @ 0x4
	global	ToggleEndianFormat@size
ToggleEndianFormat@size:	; 1 bytes @ 0x4
	global	getNextAvailLocation@result
getNextAvailLocation@result:	; 1 bytes @ 0x4
	global	ee_write@a
ee_write@a:	; 1 bytes @ 0x4
	global	___lmul@multiplicand
___lmul@multiplicand:	; 4 bytes @ 0x4
	global	___llmod@dividend
___llmod@dividend:	; 4 bytes @ 0x4
	global	___lldiv@dividend
___lldiv@dividend:	; 4 bytes @ 0x4
	ds	1
	global	??_memset1
??_memset1:	; 0 bytes @ 0x5
	global	??_ee_eraseNPos
??_ee_eraseNPos:	; 0 bytes @ 0x5
	global	??_releaseEElocation
??_releaseEElocation:	; 0 bytes @ 0x5
	global	??_reserveEElocation
??_reserveEElocation:	; 0 bytes @ 0x5
	global	??_UploadLcdBuffer
??_UploadLcdBuffer:	; 0 bytes @ 0x5
	global	??_ToggleEndianFormat
??_ToggleEndianFormat:	; 0 bytes @ 0x5
	global	KeyScan@keyNo
KeyScan@keyNo:	; 1 bytes @ 0x5
	global	SendUartValue@size
SendUartValue@size:	; 1 bytes @ 0x5
	global	getNextAvailLocation@i
getNextAvailLocation@i:	; 1 bytes @ 0x5
	ds	1
	global	??_SendUartValue
??_SendUartValue:	; 0 bytes @ 0x6
	global	ee_eraseNPos@n
ee_eraseNPos@n:	; 1 bytes @ 0x6
	global	reserveEElocation@loc
reserveEElocation@loc:	; 1 bytes @ 0x6
	global	releaseEElocation@loc
releaseEElocation@loc:	; 1 bytes @ 0x6
	ds	1
	global	ee_eraseNPos@i
ee_eraseNPos@i:	; 1 bytes @ 0x7
	ds	1
	global	??_LcdClear
??_LcdClear:	; 0 bytes @ 0x8
	global	??_LcdInit
??_LcdInit:	; 0 bytes @ 0x8
	global	??___lmul
??___lmul:	; 0 bytes @ 0x8
	global	??___llmod
??___llmod:	; 0 bytes @ 0x8
	global	??___lldiv
??___lldiv:	; 0 bytes @ 0x8
	ds	1
	global	UploadLcdBuffer@i
UploadLcdBuffer@i:	; 1 bytes @ 0x9
	global	___llmod@counter
___llmod@counter:	; 1 bytes @ 0x9
	global	___lldiv@counter
___lldiv@counter:	; 1 bytes @ 0x9
	global	___lmul@product
___lmul@product:	; 4 bytes @ 0x9
	ds	1
	global	UploadLcdBuffer@j
UploadLcdBuffer@j:	; 1 bytes @ 0xA
	global	___lldiv@quotient
___lldiv@quotient:	; 4 bytes @ 0xA
	ds	1
	global	?_LcdPrint
?_LcdPrint:	; 0 bytes @ 0xB
	global	?_sendPackage
?_sendPackage:	; 0 bytes @ 0xB
	global	sendPackage@length
sendPackage@length:	; 1 bytes @ 0xB
	global	LcdPrint@s
LcdPrint@s:	; 2 bytes @ 0xB
	ds	1
	global	sendPackage@instruction
sendPackage@instruction:	; 1 bytes @ 0xC
	ds	1
	global	?_Delay
?_Delay:	; 0 bytes @ 0xD
	global	LcdPrint@rowNo
LcdPrint@rowNo:	; 1 bytes @ 0xD
	global	sendPackage@content
sendPackage@content:	; 1 bytes @ 0xD
	global	Delay@d
Delay@d:	; 2 bytes @ 0xD
	ds	1
	global	??_sendPackage
??_sendPackage:	; 0 bytes @ 0xE
	global	?_TotDigits
?_TotDigits:	; 1 bytes @ 0xE
	global	LcdPrint@colNo
LcdPrint@colNo:	; 1 bytes @ 0xE
	global	TotDigits@val
TotDigits@val:	; 4 bytes @ 0xE
	ds	1
	global	??_Delay
??_Delay:	; 0 bytes @ 0xF
	global	??_LcdPrint
??_LcdPrint:	; 0 bytes @ 0xF
	ds	3
	global	??_TotDigits
??_TotDigits:	; 0 bytes @ 0x12
	ds	1
	global	?_menu
?_menu:	; 1 bytes @ 0x13
	global	TotDigits@result
TotDigits@result:	; 1 bytes @ 0x13
	global	menu@s
menu@s:	; 2 bytes @ 0x13
	global	Delay@dd
Delay@dd:	; 4 bytes @ 0x13
	ds	1
	global	?_DecToStr
?_DecToStr:	; 0 bytes @ 0x14
	global	DecToStr@val
DecToStr@val:	; 4 bytes @ 0x14
	ds	1
	global	??_menu
??_menu:	; 0 bytes @ 0x15
	global	ToggleEndianFormat@result
ToggleEndianFormat@result:	; 2 bytes @ 0x15
	ds	1
	global	menu@keyHit
menu@keyHit:	; 1 bytes @ 0x16
	global	sendPackage@identifier
sendPackage@identifier:	; 1 bytes @ 0x16
	ds	1
	global	?_FillUpResponse
?_FillUpResponse:	; 1 bytes @ 0x17
	global	FillUpResponse@confirmationCode
FillUpResponse@confirmationCode:	; 1 bytes @ 0x17
	global	sendPackage@i
sendPackage@i:	; 2 bytes @ 0x17
	ds	1
	global	??_FillUpResponse
??_FillUpResponse:	; 0 bytes @ 0x18
	global	DecToStr@dest
DecToStr@dest:	; 2 bytes @ 0x18
	ds	2
	global	DecToStr@minDigit
DecToStr@minDigit:	; 1 bytes @ 0x1A
	ds	1
	global	??_DecToStr
??_DecToStr:	; 0 bytes @ 0x1B
	ds	3
	global	DecToStr@len
DecToStr@len:	; 1 bytes @ 0x1E
	ds	2
	global	FillUpResponse@data
FillUpResponse@data:	; 1 bytes @ 0x20
	ds	1
	global	FillUpResponse@chkSumDigitCount
FillUpResponse@chkSumDigitCount:	; 1 bytes @ 0x21
	ds	1
	global	FillUpResponse@wait
FillUpResponse@wait:	; 4 bytes @ 0x22
	ds	4
	global	FillUpResponse@checkSumCalculated
FillUpResponse@checkSumCalculated:	; 2 bytes @ 0x26
	ds	2
	global	FillUpResponse@l
FillUpResponse@l:	; 1 bytes @ 0x28
	ds	1
	global	FillUpResponse@respPtr
FillUpResponse@respPtr:	; 1 bytes @ 0x29
	ds	1
	global	FillUpResponse@chkLength
FillUpResponse@chkLength:	; 1 bytes @ 0x2A
	ds	1
	global	FillUpResponse@i
FillUpResponse@i:	; 1 bytes @ 0x2B
	ds	1
	global	FillUpResponse@c
FillUpResponse@c:	; 1 bytes @ 0x2C
	ds	1
	global	FillUpResponse@_Response
FillUpResponse@_Response:	; 12 bytes @ 0x2D
	ds	12
	global	??_EraseAllUsers
??_EraseAllUsers:	; 0 bytes @ 0x39
	global	??_DeleteUser
??_DeleteUser:	; 0 bytes @ 0x39
	global	??_VerifyPswd
??_VerifyPswd:	; 0 bytes @ 0x39
	global	??_ScanForImage
??_ScanForImage:	; 0 bytes @ 0x39
	global	??_GenCharacterFileFromImage
??_GenCharacterFileFromImage:	; 0 bytes @ 0x39
	global	??_AddUserA
??_AddUserA:	; 0 bytes @ 0x39
	global	??_AddUserB
??_AddUserB:	; 0 bytes @ 0x39
	global	??_AddUserC
??_AddUserC:	; 0 bytes @ 0x39
	global	?_HiSpeedScan
?_HiSpeedScan:	; 1 bytes @ 0x39
	global	HiSpeedScan@UserNo
HiSpeedScan@UserNo:	; 2 bytes @ 0x39
	ds	2
	global	??_HiSpeedScan
??_HiSpeedScan:	; 0 bytes @ 0x3B
	global	ScanForImage@contentData
ScanForImage@contentData:	; 1 bytes @ 0x3B
	ds	1
	global	VerifyPswd@dataOut
VerifyPswd@dataOut:	; 1 bytes @ 0x3C
	global	ScanForImage@dataOut
ScanForImage@dataOut:	; 1 bytes @ 0x3C
	global	GenCharacterFileFromImage@contentData
GenCharacterFileFromImage@contentData:	; 1 bytes @ 0x3C
	global	EraseAllUsers@contentData
EraseAllUsers@contentData:	; 1 bytes @ 0x3C
	global	AddUserA@dataOut
AddUserA@dataOut:	; 1 bytes @ 0x3C
	global	AddUserB@dataOut
AddUserB@dataOut:	; 1 bytes @ 0x3C
	global	DeleteUser@contentData
DeleteUser@contentData:	; 4 bytes @ 0x3C
	global	AddUserC@contentData
AddUserC@contentData:	; 4 bytes @ 0x3C
	ds	1
	global	VerifyPswd@confirmationCode
VerifyPswd@confirmationCode:	; 1 bytes @ 0x3D
	global	ScanForImage@confirmationCode
ScanForImage@confirmationCode:	; 1 bytes @ 0x3D
	global	GenCharacterFileFromImage@dataOut
GenCharacterFileFromImage@dataOut:	; 1 bytes @ 0x3D
	global	EraseAllUsers@dataOut
EraseAllUsers@dataOut:	; 1 bytes @ 0x3D
	global	AddUserA@contentData
AddUserA@contentData:	; 1 bytes @ 0x3D
	global	AddUserB@contentData
AddUserB@contentData:	; 1 bytes @ 0x3D
	ds	1
	global	GenCharacterFileFromImage@confirmationCode
GenCharacterFileFromImage@confirmationCode:	; 1 bytes @ 0x3E
	global	EraseAllUsers@confirmationCode
EraseAllUsers@confirmationCode:	; 1 bytes @ 0x3E
	global	AddUserA@confirmationCode
AddUserA@confirmationCode:	; 1 bytes @ 0x3E
	global	AddUserB@confirmationCode
AddUserB@confirmationCode:	; 1 bytes @ 0x3E
	global	HiSpeedScan@contentData
HiSpeedScan@contentData:	; 5 bytes @ 0x3E
	ds	2
	global	DeleteUser@UserNo
DeleteUser@UserNo:	; 1 bytes @ 0x40
	global	AddUserC@position
AddUserC@position:	; 1 bytes @ 0x40
	ds	1
	global	DeleteUser@dataOut
DeleteUser@dataOut:	; 1 bytes @ 0x41
	global	AddUserC@dataOut
AddUserC@dataOut:	; 1 bytes @ 0x41
	ds	1
	global	DeleteUser@confirmationCode
DeleteUser@confirmationCode:	; 1 bytes @ 0x42
	global	AddUserC@confirmationCode
AddUserC@confirmationCode:	; 1 bytes @ 0x42
	ds	1
	global	??_AddNewUser
??_AddNewUser:	; 0 bytes @ 0x43
	global	HiSpeedScan@dataOut
HiSpeedScan@dataOut:	; 5 bytes @ 0x43
	ds	1
	global	AddNewUser@position
AddNewUser@position:	; 1 bytes @ 0x44
	ds	1
	global	AddNewUser@scanResult
AddNewUser@scanResult:	; 1 bytes @ 0x45
	ds	3
	global	HiSpeedScan@confirmationCode
HiSpeedScan@confirmationCode:	; 1 bytes @ 0x48
	ds	1
	global	?_HiSpeedScan0
?_HiSpeedScan0:	; 1 bytes @ 0x49
	global	HiSpeedScan0@UserNo
HiSpeedScan0@UserNo:	; 2 bytes @ 0x49
	ds	2
	global	??_HiSpeedScan0
??_HiSpeedScan0:	; 0 bytes @ 0x4B
	ds	1
	global	HiSpeedScan0@scanResult
HiSpeedScan0@scanResult:	; 1 bytes @ 0x4C
	ds	1
	global	??_EraseAllUsersAfterAdminConfirm
??_EraseAllUsersAfterAdminConfirm:	; 0 bytes @ 0x4D
	global	??_AlterAdminUser
??_AlterAdminUser:	; 0 bytes @ 0x4D
	ds	1
	global	??_main
??_main:	; 0 bytes @ 0x4E
	ds	1
	global	main@menuResponse
main@menuResponse:	; 1 bytes @ 0x4F
	ds	1
;;Data sizes: Strings 477, constant 0, data 40, bss 174, persistent 0 stack 0
;;Auto spaces:   Size  Autos    Used
;; COMMON          14      6      12
;; BANK0           80     80      80
;; BANK1           80     21      76
;; BANK3           96     20      77
;; BANK2           96      0      96

;;
;; Pointer list with targets:

;; ?___llmod	unsigned long  size(1) Largest target is 0
;;
;; ?___lldiv	unsigned long  size(1) Largest target is 0
;;
;; ?___lmul	unsigned long  size(1) Largest target is 0
;;
;; ?_ToggleEndianFormat	unsigned long  size(1) Largest target is 0
;;
;; DecToStr@dest	PTR unsigned char  size(2) Largest target is 10
;;		 -> DeleteUserAfterAdminConfirm@buff_2234(BANK3[10]), DeleteUserAfterAdminConfirm@buff(BANK3[5]), AddNewUserAfterAdminConfirm@buff(BANK1[10]), ControlAccess@buff(BANK1[10]), 
;;
;; memset1@str	PTR unsigned char  size(2) Largest target is 32
;;		 -> FillUpResponse@_Response(BANK0[12]), ControlAccess@buff(BANK1[10]), LcdBuffer(BANK3[32]), 
;;
;; HiSpeedScan@UserNo	PTR unsigned char  size(2) Largest target is 1
;;		 -> DeleteUserAfterAdminConfirm@UserNo(BANK3[1]), AddNewUserAfterAdminConfirm@UserNo(BANK1[1]), AlterAdminUser@UserNo(BANK1[1]), ControlAccess@UserNo(BANK1[1]), 
;;		 -> EraseAllUsersAfterAdminConfirm@UserNo(BANK1[1]), 
;;
;; HiSpeedScan0@UserNo	PTR unsigned char  size(2) Largest target is 1
;;		 -> DeleteUserAfterAdminConfirm@UserNo(BANK3[1]), AddNewUserAfterAdminConfirm@UserNo(BANK1[1]), AlterAdminUser@UserNo(BANK1[1]), ControlAccess@UserNo(BANK1[1]), 
;;		 -> EraseAllUsersAfterAdminConfirm@UserNo(BANK1[1]), 
;;
;; FillUpResponse@confirmationCode	PTR unsigned char  size(1) Largest target is 1
;;		 -> AddUserC@confirmationCode(BANK0[1]), AddUserB@confirmationCode(BANK0[1]), AddUserA@confirmationCode(BANK0[1]), EraseAllUsers@confirmationCode(BANK0[1]), 
;;		 -> HiSpeedScan@confirmationCode(BANK0[1]), MatchTemplate@confirmationCode(COMMON[1]), LoadFingerTemplate@confirmationCode(COMMON[1]), GenCharacterFileFromImage@confirmationCode(BANK0[1]), 
;;		 -> ScanForImage@confirmationCode(BANK0[1]), VerifyPswd@confirmationCode(BANK0[1]), DeleteUser@confirmationCode(BANK0[1]), 
;;
;; FillUpResponse@data	PTR unsigned char  size(1) Largest target is 5
;;		 -> AddUserC@dataOut(BANK0[1]), AddUserB@dataOut(BANK0[1]), AddUserA@dataOut(BANK0[1]), EraseAllUsers@dataOut(BANK0[1]), 
;;		 -> HiSpeedScan@dataOut(BANK0[5]), MatchTemplate@dataOut(COMMON[1]), LoadFingerTemplate@dataOut(COMMON[1]), GenCharacterFileFromImage@dataOut(BANK0[1]), 
;;		 -> ScanForImage@dataOut(BANK0[1]), VerifyPswd@dataOut(BANK0[1]), DeleteUser@dataOut(BANK0[1]), 
;;
;; FillUpResponse@respPtr	PTR unsigned char  size(1) Largest target is 12
;;		 -> FillUpResponse@_Response(BANK0[12]), 
;;
;; sendPackage@content	PTR unsigned char  size(1) Largest target is 5
;;		 -> AddUserC@contentData(BANK0[4]), AddUserB@contentData(BANK0[1]), AddUserA@contentData(BANK0[1]), EraseAllUsers@contentData(BANK0[1]), 
;;		 -> HiSpeedScan@contentData(BANK0[5]), MatchTemplate@contentData(COMMON[1]), LoadFingerTemplate@contentData(COMMON[3]), GenCharacterFileFromImage@contentData(BANK0[1]), 
;;		 -> ScanForImage@contentData(BANK0[1]), DefModulePassword(BANK1[4]), DeleteUser@contentData(BANK0[4]), 
;;
;; S3940Package$Content	PTR unsigned char  size(1) Largest target is 5
;;		 -> AddUserC@contentData(BANK0[4]), AddUserB@contentData(BANK0[1]), AddUserA@contentData(BANK0[1]), EraseAllUsers@contentData(BANK0[1]), 
;;		 -> HiSpeedScan@contentData(BANK0[5]), MatchTemplate@contentData(COMMON[1]), LoadFingerTemplate@contentData(COMMON[3]), GenCharacterFileFromImage@contentData(BANK0[1]), 
;;		 -> ScanForImage@contentData(BANK0[1]), DefModulePassword(BANK1[4]), DeleteUser@contentData(BANK0[4]), 
;;
;; _Package.Content	PTR unsigned char  size(1) Largest target is 5
;;		 -> AddUserC@contentData(BANK0[4]), AddUserB@contentData(BANK0[1]), AddUserA@contentData(BANK0[1]), EraseAllUsers@contentData(BANK0[1]), 
;;		 -> HiSpeedScan@contentData(BANK0[5]), MatchTemplate@contentData(COMMON[1]), LoadFingerTemplate@contentData(COMMON[3]), GenCharacterFileFromImage@contentData(BANK0[1]), 
;;		 -> ScanForImage@contentData(BANK0[1]), DefModulePassword(BANK1[4]), DeleteUser@contentData(BANK0[4]), 
;;
;; menu@s	PTR const unsigned char  size(2) Largest target is 33
;;		 -> STR_34(CODE[29]), STR_33(CODE[33]), STR_32(CODE[30]), STR_31(CODE[30]), 
;;
;; LcdPrint@s	PTR const unsigned char  size(2) Largest target is 33
;;		 -> STR_34(CODE[29]), STR_33(CODE[33]), STR_32(CODE[30]), STR_31(CODE[30]), 
;;		 -> STR_30(CODE[8]), STR_29(CODE[18]), STR_28(CODE[14]), DeleteUserAfterAdminConfirm@buff_2234(BANK3[10]), 
;;		 -> STR_27(CODE[22]), DeleteUserAfterAdminConfirm@buff(BANK3[5]), STR_26(CODE[12]), STR_25(CODE[12]), 
;;		 -> STR_24(CODE[28]), STR_23(CODE[24]), AddNewUserAfterAdminConfirm@buff(BANK1[10]), STR_22(CODE[21]), 
;;		 -> STR_21(CODE[22]), STR_20(CODE[19]), STR_19(CODE[18]), STR_18(CODE[12]), 
;;		 -> STR_17(CODE[28]), STR_16(CODE[25]), STR_15(CODE[20]), STR_14(CODE[13]), 
;;		 -> STR_13(CODE[24]), STR_12(CODE[18]), STR_11(CODE[20]), STR_10(CODE[14]), 
;;		 -> STR_9(CODE[12]), STR_8(CODE[28]), STR_7(CODE[13]), STR_6(CODE[20]), 
;;		 -> ControlAccess@buff(BANK1[10]), STR_5(CODE[13]), STR_4(CODE[19]), STR_3(CODE[18]), 
;;		 -> STR_2(CODE[12]), STR_1(CODE[28]), 
;;


;;
;; Critical Paths under _main in COMMON
;;
;;   None.
;;
;; Critical Paths under _isr in COMMON
;;
;;   _isr->_PutUartByte
;;
;; Critical Paths under _main in BANK0
;;
;;   _main->_AlterAdminUser
;;   _main->_EraseAllUsersAfterAdminConfirm
;;   _DeleteUserAfterAdminConfirm->_HiSpeedScan0
;;   _AddNewUserAfterAdminConfirm->_HiSpeedScan0
;;   _AlterAdminUser->_HiSpeedScan0
;;   _ControlAccess->_HiSpeedScan0
;;   _EraseAllUsersAfterAdminConfirm->_HiSpeedScan0
;;   _menu->_LcdPrint
;;   _AddNewUser->_AddUserC
;;   _HiSpeedScan0->_HiSpeedScan
;;   _AddUserC->_FillUpResponse
;;   _AddUserB->_FillUpResponse
;;   _AddUserA->_FillUpResponse
;;   _HiSpeedScan->_FillUpResponse
;;   _GenCharacterFileFromImage->_FillUpResponse
;;   _ScanForImage->_FillUpResponse
;;   _VerifyPswd->_FillUpResponse
;;   _DeleteUser->_FillUpResponse
;;   _EraseAllUsers->_FillUpResponse
;;   _LcdPrint->_UploadLcdBuffer
;;   _sendPackage->_SendUartValue
;;   _KeyScan->_PutKey
;;   _DecToStr->_TotDigits
;;   _UploadLcdBuffer->_SendByte
;;   _LcdClear->_memset1
;;   _TotDigits->___lldiv
;;   _reserveEElocation->_ee_write
;;   _FillUpResponse->_ToggleEndianFormat
;;   _SendUartValue->_SendUartByte
;;   _PutKey->_LcdDelay
;;   _releaseEElocation->_ee_write
;;   _getNextAvailLocation->_ee_read
;;   _ee_eraseNPos->_ee_write
;;   _Delay->___lmul
;;   _SendByte->_LcdDelay
;;   _ee_write->_ee_read
;;
;; Critical Paths under _isr in BANK0
;;
;;   None.
;;
;; Critical Paths under _main in BANK1
;;
;;   _main->_AddNewUserAfterAdminConfirm
;;
;; Critical Paths under _isr in BANK1
;;
;;   None.
;;
;; Critical Paths under _main in BANK3
;;
;;   _main->_DeleteUserAfterAdminConfirm
;;
;; Critical Paths under _isr in BANK3
;;
;;   None.
;;
;; Critical Paths under _main in BANK2
;;
;;   None.
;;
;; Critical Paths under _isr in BANK2
;;
;;   None.

;;
;;Main: autosize = 0, tempsize = 1, incstack = 0, save=0
;;

;;
;;Call Graph Tables:
;;
;; ---------------------------------------------------------------------------------
;; (Depth) Function   	        Calls       Base Space   Used Autos Params    Refs
;; ---------------------------------------------------------------------------------
;; (0) _main                                                 2     2      0  290826
;;                                             78 BANK0      2     2      0
;;                            _LcdInit
;;                           _LcdPrint
;;                              _Delay
;;                           _UartInit
;;                         _VerifyPswd
;;                               _menu
;;                      _ControlAccess
;;                     _AlterAdminUser
;;        _AddNewUserAfterAdminConfirm
;;     _EraseAllUsersAfterAdminConfirm
;;        _DeleteUserAfterAdminConfirm
;; ---------------------------------------------------------------------------------
;; (1) _DeleteUserAfterAdminConfirm                         25    25      0   44445
;;                                              0 BANK1      5     5      0
;;                                              0 BANK3     20    20      0
;;                            _ee_read
;;                           _LcdClear
;;                           _LcdPrint
;;                       _HiSpeedScan0
;;                              _Delay
;;                           _DecToStr
;;                            _KeyScan
;;                       _IsKeyPending
;;                             _GetKey
;;                         _DeleteUser
;;                  _releaseEElocation
;; ---------------------------------------------------------------------------------
;; (1) _AddNewUserAfterAdminConfirm                         21    21      0   77019
;;                                              0 BANK1     21    21      0
;;                            _ee_read
;;                           _LcdClear
;;                           _LcdPrint
;;                       _HiSpeedScan0
;;                              _Delay
;;               _getNextAvailLocation
;;                         _AddNewUser
;;                           _DecToStr
;; ---------------------------------------------------------------------------------
;; (1) _AlterAdminUser                                       5     5      0   80364
;;                                             77 BANK0      1     1      0
;;                                              0 BANK1      4     4      0
;;                            _ee_read
;;                           _LcdClear
;;                           _LcdPrint
;;                       _HiSpeedScan0
;;                              _Delay
;;                         _DeleteUser
;;                         _AddNewUser
;; ---------------------------------------------------------------------------------
;; (1) _ControlAccess                                       17    17      0   33858
;;                                              0 BANK1     17    17      0
;;                           _LcdClear
;;                           _LcdPrint
;;                       _HiSpeedScan0
;;                            _memset1
;;                           _DecToStr
;;                              _Delay
;; ---------------------------------------------------------------------------------
;; (1) _EraseAllUsersAfterAdminConfirm                       4     4      0   38373
;;                                             77 BANK0      1     1      0
;;                                              0 BANK1      3     3      0
;;                            _ee_read
;;                           _LcdClear
;;                           _LcdPrint
;;                       _HiSpeedScan0
;;                              _Delay
;;                      _EraseAllUsers
;;                       _ee_eraseNPos
;;                           _ee_write
;; ---------------------------------------------------------------------------------
;; (1) _menu                                                 4     2      2    3747
;;                                             19 BANK0      4     2      2
;;                           _LcdClear
;;                           _LcdPrint
;;                            _KeyScan
;;                       _IsKeyPending
;;                             _GetKey
;; ---------------------------------------------------------------------------------
;; (2) _AddNewUser                                           3     3      0   42252
;;                                             67 BANK0      3     3      0
;;                            _KeyScan
;;                       _IsKeyPending
;;                             _GetKey
;;                       _ScanForImage
;;          _GenCharacterFileFromImage
;;                           _AddUserA
;;                           _AddUserB
;;                           _AddUserC
;;                  _reserveEElocation
;; ---------------------------------------------------------------------------------
;; (2) _HiSpeedScan0                                         4     2      2   25380
;;                                             73 BANK0      4     2      2
;;                            _KeyScan
;;                       _IsKeyPending
;;                             _GetKey
;;                       _ScanForImage
;;          _GenCharacterFileFromImage
;;                        _HiSpeedScan
;; ---------------------------------------------------------------------------------
;; (3) _AddUserC                                            10    10      0    8316
;;                                             57 BANK0     10    10      0
;;                    _ClearUartBuffer
;;                        _sendPackage
;;                     _FillUpResponse
;; ---------------------------------------------------------------------------------
;; (3) _AddUserB                                             6     6      0    8100
;;                                             57 BANK0      6     6      0
;;                    _ClearUartBuffer
;;                        _sendPackage
;;                     _FillUpResponse
;; ---------------------------------------------------------------------------------
;; (3) _AddUserA                                             6     6      0    8100
;;                                             57 BANK0      6     6      0
;;                    _ClearUartBuffer
;;                        _sendPackage
;;                     _FillUpResponse
;; ---------------------------------------------------------------------------------
;; (3) _HiSpeedScan                                         16    14      2    8382
;;                                             57 BANK0     16    14      2
;;                    _ClearUartBuffer
;;                        _sendPackage
;;                     _FillUpResponse
;; ---------------------------------------------------------------------------------
;; (3) _GenCharacterFileFromImage                            6     6      0    8100
;;                                             57 BANK0      6     6      0
;;                    _ClearUartBuffer
;;                        _sendPackage
;;                     _FillUpResponse
;; ---------------------------------------------------------------------------------
;; (3) _ScanForImage                                         5     5      0    8100
;;                                             57 BANK0      5     5      0
;;                    _ClearUartBuffer
;;                        _sendPackage
;;                     _FillUpResponse
;; ---------------------------------------------------------------------------------
;; (1) _VerifyPswd                                           5     5      0    7950
;;                                             57 BANK0      5     5      0
;;                    _ClearUartBuffer
;;                        _sendPackage
;;                     _FillUpResponse
;; ---------------------------------------------------------------------------------
;; (2) _DeleteUser                                          10    10      0    8316
;;                                             57 BANK0     10    10      0
;;                    _ClearUartBuffer
;;                        _sendPackage
;;                     _FillUpResponse
;; ---------------------------------------------------------------------------------
;; (2) _EraseAllUsers                                        6     6      0    8100
;;                                             57 BANK0      6     6      0
;;                    _ClearUartBuffer
;;                        _sendPackage
;;                     _FillUpResponse
;; ---------------------------------------------------------------------------------
;; (2) _LcdPrint                                             8     4      4    1842
;;                                             11 BANK0      8     4      4
;;                    _UploadLcdBuffer
;; ---------------------------------------------------------------------------------
;; (1) _LcdInit                                              1     1      0    1431
;;                                              8 BANK0      1     1      0
;;                           _LcdDelay
;;                           _SendByte
;;                           _LcdClear
;; ---------------------------------------------------------------------------------
;; (3) _sendPackage                                         14    11      3    1476
;;                                             11 BANK0     14    11      3
;;                      _SendUartValue
;;                       _SendUartByte
;; ---------------------------------------------------------------------------------
;; (2) _KeyScan                                              2     2      0     474
;;                                              4 BANK0      2     2      0
;;                             _PutKey
;; ---------------------------------------------------------------------------------
;; (2) _DecToStr                                            11     4      7    3654
;;                                             20 BANK0     11     4      7
;;                          _TotDigits
;;                            ___llmod
;;                            ___lldiv
;; ---------------------------------------------------------------------------------
;; (3) _UploadLcdBuffer                                      6     6      0    1083
;;                                              5 BANK0      6     6      0
;;                           _SendByte
;; ---------------------------------------------------------------------------------
;; (2) _LcdClear                                             0     0      0     846
;;                            _memset1
;;                           _SendByte
;; ---------------------------------------------------------------------------------
;; (3) _TotDigits                                            6     2      4    1101
;;                                             14 BANK0      6     2      4
;;                            ___lldiv
;; ---------------------------------------------------------------------------------
;; (3) _reserveEElocation                                    2     2      0     543
;;                                              5 BANK0      2     2      0
;;                           _ee_write
;;                            _ee_read
;; ---------------------------------------------------------------------------------
;; (3) _FillUpResponse                                      34    33      1    5784
;;                                             23 BANK0     34    33      1
;;                            _memset1
;;                  _IsUartBytePending
;;                        _GetUartByte
;;                 _ToggleEndianFormat
;; ---------------------------------------------------------------------------------
;; (4) _SendUartValue                                       10     5      5     717
;;                                              1 BANK0     10     5      5
;;                       _SendUartByte
;; ---------------------------------------------------------------------------------
;; (3) _PutKey                                               2     2      0     195
;;                                              2 BANK0      2     2      0
;;                           _LcdDelay
;; ---------------------------------------------------------------------------------
;; (2) _releaseEElocation                                    2     2      0     543
;;                                              5 BANK0      2     2      0
;;                           _ee_write
;;                            _ee_read
;; ---------------------------------------------------------------------------------
;; (2) _getNextAvailLocation                                 3     3      0     606
;;                                              3 BANK0      3     3      0
;;                            _ee_read
;; ---------------------------------------------------------------------------------
;; (2) _ee_eraseNPos                                         3     3      0     498
;;                                              5 BANK0      3     3      0
;;                           _ee_write
;; ---------------------------------------------------------------------------------
;; (2) _Delay                                               10     8      2     735
;;                                             13 BANK0     10     8      2
;;                             ___lmul
;; ---------------------------------------------------------------------------------
;; (4) _SendByte                                             3     2      1     477
;;                                              2 BANK0      3     2      1
;;                           _LcdDelay
;; ---------------------------------------------------------------------------------
;; (3) ___lldiv                                             14     6      8     777
;;                                              0 BANK0     14     6      8
;; ---------------------------------------------------------------------------------
;; (3) ___llmod                                             10     2      8     714
;;                                              0 BANK0     10     2      8
;; ---------------------------------------------------------------------------------
;; (3) ___lmul                                              13     5      8     432
;;                                              0 BANK0     13     5      8
;; ---------------------------------------------------------------------------------
;; (4) _ToggleEndianFormat                                  23    18      5    1086
;;                                              0 BANK0     23    18      5
;; ---------------------------------------------------------------------------------
;; (4) _GetUartByte                                          2     2      0     108
;;                                              0 BANK0      2     2      0
;; ---------------------------------------------------------------------------------
;; (4) _IsUartBytePending                                    0     0      0       0
;; ---------------------------------------------------------------------------------
;; (3) _ClearUartBuffer                                      2     2      0     303
;;                                              0 BANK0      2     2      0
;; ---------------------------------------------------------------------------------
;; (4) _SendUartByte                                         1     1      0      87
;;                                              0 BANK0      1     1      0
;; ---------------------------------------------------------------------------------
;; (1) _UartInit                                             0     0      0       0
;; ---------------------------------------------------------------------------------
;; (2) _GetKey                                               2     2      0     108
;;                                              0 BANK0      2     2      0
;; ---------------------------------------------------------------------------------
;; (2) _IsKeyPending                                         0     0      0       0
;; ---------------------------------------------------------------------------------
;; (3) _ee_write                                             2     1      1     174
;;                                              3 BANK0      2     1      1
;;                            _ee_read (ARG)
;; ---------------------------------------------------------------------------------
;; (3) _ee_read                                              3     3      0     195
;;                                              0 BANK0      3     3      0
;; ---------------------------------------------------------------------------------
;; (4) _memset1                                              8     3      5     369
;;                                              0 BANK0      8     3      5
;; ---------------------------------------------------------------------------------
;; (4) _LcdDelay                                             2     0      2     108
;;                                              0 BANK0      2     0      2
;; ---------------------------------------------------------------------------------
;; Estimated maximum stack depth 4
;; ---------------------------------------------------------------------------------
;; (Depth) Function   	        Calls       Base Space   Used Autos Params    Refs
;; ---------------------------------------------------------------------------------
;; (7) _isr                                                  4     4      0      22
;;                                              2 COMMON     4     4      0
;;                        _PutUartByte
;; ---------------------------------------------------------------------------------
;; (8) _PutUartByte                                          2     2      0      22
;;                                              0 COMMON     2     2      0
;; ---------------------------------------------------------------------------------
;; Estimated maximum stack depth 8
;; ---------------------------------------------------------------------------------

;; Call Graph Graphs:

;; _main (ROOT)
;;   _LcdInit
;;     _LcdDelay
;;     _SendByte
;;       _LcdDelay
;;     _LcdClear
;;       _memset1
;;       _SendByte
;;         _LcdDelay
;;   _LcdPrint
;;     _UploadLcdBuffer
;;       _SendByte
;;         _LcdDelay
;;   _Delay
;;     ___lmul
;;   _UartInit
;;   _VerifyPswd
;;     _ClearUartBuffer
;;     _sendPackage
;;       _SendUartValue
;;         _SendUartByte
;;       _SendUartByte
;;     _FillUpResponse
;;       _memset1
;;       _IsUartBytePending
;;       _GetUartByte
;;       _ToggleEndianFormat
;;   _menu
;;     _LcdClear
;;       _memset1
;;       _SendByte
;;         _LcdDelay
;;     _LcdPrint
;;       _UploadLcdBuffer
;;         _SendByte
;;           _LcdDelay
;;     _KeyScan
;;       _PutKey
;;         _LcdDelay
;;     _IsKeyPending
;;     _GetKey
;;   _ControlAccess
;;     _LcdClear
;;       _memset1
;;       _SendByte
;;         _LcdDelay
;;     _LcdPrint
;;       _UploadLcdBuffer
;;         _SendByte
;;           _LcdDelay
;;     _HiSpeedScan0
;;       _KeyScan
;;         _PutKey
;;           _LcdDelay
;;       _IsKeyPending
;;       _GetKey
;;       _ScanForImage
;;         _ClearUartBuffer
;;         _sendPackage
;;           _SendUartValue
;;             _SendUartByte
;;           _SendUartByte
;;         _FillUpResponse
;;           _memset1
;;           _IsUartBytePending
;;           _GetUartByte
;;           _ToggleEndianFormat
;;       _GenCharacterFileFromImage
;;         _ClearUartBuffer
;;         _sendPackage
;;           _SendUartValue
;;             _SendUartByte
;;           _SendUartByte
;;         _FillUpResponse
;;           _memset1
;;           _IsUartBytePending
;;           _GetUartByte
;;           _ToggleEndianFormat
;;       _HiSpeedScan
;;         _ClearUartBuffer
;;         _sendPackage
;;           _SendUartValue
;;             _SendUartByte
;;           _SendUartByte
;;         _FillUpResponse
;;           _memset1
;;           _IsUartBytePending
;;           _GetUartByte
;;           _ToggleEndianFormat
;;     _memset1
;;     _DecToStr
;;       _TotDigits
;;         ___lldiv
;;       ___llmod
;;       ___lldiv
;;     _Delay
;;       ___lmul
;;   _AlterAdminUser
;;     _ee_read
;;     _LcdClear
;;       _memset1
;;       _SendByte
;;         _LcdDelay
;;     _LcdPrint
;;       _UploadLcdBuffer
;;         _SendByte
;;           _LcdDelay
;;     _HiSpeedScan0
;;       _KeyScan
;;         _PutKey
;;           _LcdDelay
;;       _IsKeyPending
;;       _GetKey
;;       _ScanForImage
;;         _ClearUartBuffer
;;         _sendPackage
;;           _SendUartValue
;;             _SendUartByte
;;           _SendUartByte
;;         _FillUpResponse
;;           _memset1
;;           _IsUartBytePending
;;           _GetUartByte
;;           _ToggleEndianFormat
;;       _GenCharacterFileFromImage
;;         _ClearUartBuffer
;;         _sendPackage
;;           _SendUartValue
;;             _SendUartByte
;;           _SendUartByte
;;         _FillUpResponse
;;           _memset1
;;           _IsUartBytePending
;;           _GetUartByte
;;           _ToggleEndianFormat
;;       _HiSpeedScan
;;         _ClearUartBuffer
;;         _sendPackage
;;           _SendUartValue
;;             _SendUartByte
;;           _SendUartByte
;;         _FillUpResponse
;;           _memset1
;;           _IsUartBytePending
;;           _GetUartByte
;;           _ToggleEndianFormat
;;     _Delay
;;       ___lmul
;;     _DeleteUser
;;       _ClearUartBuffer
;;       _sendPackage
;;         _SendUartValue
;;           _SendUartByte
;;         _SendUartByte
;;       _FillUpResponse
;;         _memset1
;;         _IsUartBytePending
;;         _GetUartByte
;;         _ToggleEndianFormat
;;     _AddNewUser
;;       _KeyScan
;;         _PutKey
;;           _LcdDelay
;;       _IsKeyPending
;;       _GetKey
;;       _ScanForImage
;;         _ClearUartBuffer
;;         _sendPackage
;;           _SendUartValue
;;             _SendUartByte
;;           _SendUartByte
;;         _FillUpResponse
;;           _memset1
;;           _IsUartBytePending
;;           _GetUartByte
;;           _ToggleEndianFormat
;;       _GenCharacterFileFromImage
;;         _ClearUartBuffer
;;         _sendPackage
;;           _SendUartValue
;;             _SendUartByte
;;           _SendUartByte
;;         _FillUpResponse
;;           _memset1
;;           _IsUartBytePending
;;           _GetUartByte
;;           _ToggleEndianFormat
;;       _AddUserA
;;         _ClearUartBuffer
;;         _sendPackage
;;           _SendUartValue
;;             _SendUartByte
;;           _SendUartByte
;;         _FillUpResponse
;;           _memset1
;;           _IsUartBytePending
;;           _GetUartByte
;;           _ToggleEndianFormat
;;       _AddUserB
;;         _ClearUartBuffer
;;         _sendPackage
;;           _SendUartValue
;;             _SendUartByte
;;           _SendUartByte
;;         _FillUpResponse
;;           _memset1
;;           _IsUartBytePending
;;           _GetUartByte
;;           _ToggleEndianFormat
;;       _AddUserC
;;         _ClearUartBuffer
;;         _sendPackage
;;           _SendUartValue
;;             _SendUartByte
;;           _SendUartByte
;;         _FillUpResponse
;;           _memset1
;;           _IsUartBytePending
;;           _GetUartByte
;;           _ToggleEndianFormat
;;       _reserveEElocation
;;         _ee_write
;;           _ee_read (ARG)
;;         _ee_read
;;   _AddNewUserAfterAdminConfirm
;;     _ee_read
;;     _LcdClear
;;       _memset1
;;       _SendByte
;;         _LcdDelay
;;     _LcdPrint
;;       _UploadLcdBuffer
;;         _SendByte
;;           _LcdDelay
;;     _HiSpeedScan0
;;       _KeyScan
;;         _PutKey
;;           _LcdDelay
;;       _IsKeyPending
;;       _GetKey
;;       _ScanForImage
;;         _ClearUartBuffer
;;         _sendPackage
;;           _SendUartValue
;;             _SendUartByte
;;           _SendUartByte
;;         _FillUpResponse
;;           _memset1
;;           _IsUartBytePending
;;           _GetUartByte
;;           _ToggleEndianFormat
;;       _GenCharacterFileFromImage
;;         _ClearUartBuffer
;;         _sendPackage
;;           _SendUartValue
;;             _SendUartByte
;;           _SendUartByte
;;         _FillUpResponse
;;           _memset1
;;           _IsUartBytePending
;;           _GetUartByte
;;           _ToggleEndianFormat
;;       _HiSpeedScan
;;         _ClearUartBuffer
;;         _sendPackage
;;           _SendUartValue
;;             _SendUartByte
;;           _SendUartByte
;;         _FillUpResponse
;;           _memset1
;;           _IsUartBytePending
;;           _GetUartByte
;;           _ToggleEndianFormat
;;     _Delay
;;       ___lmul
;;     _getNextAvailLocation
;;       _ee_read
;;     _AddNewUser
;;       _KeyScan
;;         _PutKey
;;           _LcdDelay
;;       _IsKeyPending
;;       _GetKey
;;       _ScanForImage
;;         _ClearUartBuffer
;;         _sendPackage
;;           _SendUartValue
;;             _SendUartByte
;;           _SendUartByte
;;         _FillUpResponse
;;           _memset1
;;           _IsUartBytePending
;;           _GetUartByte
;;           _ToggleEndianFormat
;;       _GenCharacterFileFromImage
;;         _ClearUartBuffer
;;         _sendPackage
;;           _SendUartValue
;;             _SendUartByte
;;           _SendUartByte
;;         _FillUpResponse
;;           _memset1
;;           _IsUartBytePending
;;           _GetUartByte
;;           _ToggleEndianFormat
;;       _AddUserA
;;         _ClearUartBuffer
;;         _sendPackage
;;           _SendUartValue
;;             _SendUartByte
;;           _SendUartByte
;;         _FillUpResponse
;;           _memset1
;;           _IsUartBytePending
;;           _GetUartByte
;;           _ToggleEndianFormat
;;       _AddUserB
;;         _ClearUartBuffer
;;         _sendPackage
;;           _SendUartValue
;;             _SendUartByte
;;           _SendUartByte
;;         _FillUpResponse
;;           _memset1
;;           _IsUartBytePending
;;           _GetUartByte
;;           _ToggleEndianFormat
;;       _AddUserC
;;         _ClearUartBuffer
;;         _sendPackage
;;           _SendUartValue
;;             _SendUartByte
;;           _SendUartByte
;;         _FillUpResponse
;;           _memset1
;;           _IsUartBytePending
;;           _GetUartByte
;;           _ToggleEndianFormat
;;       _reserveEElocation
;;         _ee_write
;;           _ee_read (ARG)
;;         _ee_read
;;     _DecToStr
;;       _TotDigits
;;         ___lldiv
;;       ___llmod
;;       ___lldiv
;;   _EraseAllUsersAfterAdminConfirm
;;     _ee_read
;;     _LcdClear
;;       _memset1
;;       _SendByte
;;         _LcdDelay
;;     _LcdPrint
;;       _UploadLcdBuffer
;;         _SendByte
;;           _LcdDelay
;;     _HiSpeedScan0
;;       _KeyScan
;;         _PutKey
;;           _LcdDelay
;;       _IsKeyPending
;;       _GetKey
;;       _ScanForImage
;;         _ClearUartBuffer
;;         _sendPackage
;;           _SendUartValue
;;             _SendUartByte
;;           _SendUartByte
;;         _FillUpResponse
;;           _memset1
;;           _IsUartBytePending
;;           _GetUartByte
;;           _ToggleEndianFormat
;;       _GenCharacterFileFromImage
;;         _ClearUartBuffer
;;         _sendPackage
;;           _SendUartValue
;;             _SendUartByte
;;           _SendUartByte
;;         _FillUpResponse
;;           _memset1
;;           _IsUartBytePending
;;           _GetUartByte
;;           _ToggleEndianFormat
;;       _HiSpeedScan
;;         _ClearUartBuffer
;;         _sendPackage
;;           _SendUartValue
;;             _SendUartByte
;;           _SendUartByte
;;         _FillUpResponse
;;           _memset1
;;           _IsUartBytePending
;;           _GetUartByte
;;           _ToggleEndianFormat
;;     _Delay
;;       ___lmul
;;     _EraseAllUsers
;;       _ClearUartBuffer
;;       _sendPackage
;;         _SendUartValue
;;           _SendUartByte
;;         _SendUartByte
;;       _FillUpResponse
;;         _memset1
;;         _IsUartBytePending
;;         _GetUartByte
;;         _ToggleEndianFormat
;;     _ee_eraseNPos
;;       _ee_write
;;         _ee_read (ARG)
;;     _ee_write
;;       _ee_read (ARG)
;;   _DeleteUserAfterAdminConfirm
;;     _ee_read
;;     _LcdClear
;;       _memset1
;;       _SendByte
;;         _LcdDelay
;;     _LcdPrint
;;       _UploadLcdBuffer
;;         _SendByte
;;           _LcdDelay
;;     _HiSpeedScan0
;;       _KeyScan
;;         _PutKey
;;           _LcdDelay
;;       _IsKeyPending
;;       _GetKey
;;       _ScanForImage
;;         _ClearUartBuffer
;;         _sendPackage
;;           _SendUartValue
;;             _SendUartByte
;;           _SendUartByte
;;         _FillUpResponse
;;           _memset1
;;           _IsUartBytePending
;;           _GetUartByte
;;           _ToggleEndianFormat
;;       _GenCharacterFileFromImage
;;         _ClearUartBuffer
;;         _sendPackage
;;           _SendUartValue
;;             _SendUartByte
;;           _SendUartByte
;;         _FillUpResponse
;;           _memset1
;;           _IsUartBytePending
;;           _GetUartByte
;;           _ToggleEndianFormat
;;       _HiSpeedScan
;;         _ClearUartBuffer
;;         _sendPackage
;;           _SendUartValue
;;             _SendUartByte
;;           _SendUartByte
;;         _FillUpResponse
;;           _memset1
;;           _IsUartBytePending
;;           _GetUartByte
;;           _ToggleEndianFormat
;;     _Delay
;;       ___lmul
;;     _DecToStr
;;       _TotDigits
;;         ___lldiv
;;       ___llmod
;;       ___lldiv
;;     _KeyScan
;;       _PutKey
;;         _LcdDelay
;;     _IsKeyPending
;;     _GetKey
;;     _DeleteUser
;;       _ClearUartBuffer
;;       _sendPackage
;;         _SendUartValue
;;           _SendUartByte
;;         _SendUartByte
;;       _FillUpResponse
;;         _memset1
;;         _IsUartBytePending
;;         _GetUartByte
;;         _ToggleEndianFormat
;;     _releaseEElocation
;;       _ee_write
;;         _ee_read (ARG)
;;       _ee_read
;;
;; _isr (ROOT)
;;   _PutUartByte
;;

;; Address spaces:

;;Name               Size   Autos  Total    Cost      Usage
;;BANK3               60     14      4D       9       80.2%
;;BITBANK3            60      0       0       8        0.0%
;;SFR3                 0      0       0       4        0.0%
;;BITSFR3              0      0       0       4        0.0%
;;BANK2               60      0      60      11      100.0%
;;BITBANK2            60      0       0      10        0.0%
;;SFR2                 0      0       0       5        0.0%
;;BITSFR2              0      0       0       5        0.0%
;;SFR1                 0      0       0       2        0.0%
;;BITSFR1              0      0       0       2        0.0%
;;BANK1               50     15      4C       7       95.0%
;;BITBANK1            50      0       0       6        0.0%
;;CODE                 0      0       0       0        0.0%
;;DATA                 0      0     15F      12        0.0%
;;ABS                  0      0     155       3        0.0%
;;NULL                 0      0       0       0        0.0%
;;STACK                0      0       A       2        0.0%
;;BANK0               50     50      50       5      100.0%
;;BITBANK0            50      0       0       4        0.0%
;;SFR0                 0      0       0       1        0.0%
;;BITSFR0              0      0       0       1        0.0%
;;COMMON               E      6       C       1       85.7%
;;BITCOMMON            E      0       0       0        0.0%
;;EEDATA             100      0       0       0        0.0%

	global	_main
psect	maintext,global,class=CODE,delta=2
global __pmaintext
__pmaintext:

;; *************** function _main *****************
;; Defined at:
;;		line 335 in file "C:\Users\GauravLT\Desktop\Finger Print Sensor\R307\PIC16F877A_R307\main.c"
;; Parameters:    Size  Location     Type
;;		None
;; Auto vars:     Size  Location     Type
;;  menuResponse    1   79[BANK0 ] unsigned char 
;; Return value:  Size  Location     Type
;;		None               void
;; Registers used:
;;		wreg, fsr0l, fsr0h, status,2, status,0, btemp+1, pclath, cstack
;; Tracked objects:
;;		On entry : 17F/0
;;		On exit  : 0/0
;;		Unchanged: 0/0
;; Data sizes:     COMMON   BANK0   BANK1   BANK3   BANK2
;;      Params:         0       0       0       0       0
;;      Locals:         0       1       0       0       0
;;      Temps:          0       1       0       0       0
;;      Totals:         0       2       0       0       0
;;Total ram usage:        2 bytes
;; Hardware stack levels required when called:    8
;; This function calls:
;;		_LcdInit
;;		_LcdPrint
;;		_Delay
;;		_UartInit
;;		_VerifyPswd
;;		_menu
;;		_ControlAccess
;;		_AlterAdminUser
;;		_AddNewUserAfterAdminConfirm
;;		_EraseAllUsersAfterAdminConfirm
;;		_DeleteUserAfterAdminConfirm
;; This function is called by:
;;		Startup code after reset
;; This function uses a non-reentrant model
;;
psect	maintext
	file	"C:\Users\GauravLT\Desktop\Finger Print Sensor\R307\PIC16F877A_R307\main.c"
	line	335
	global	__size_of_main
	__size_of_main	equ	__end_of_main-_main
	
_main:	
	opt	stack 0
; Regs used in _main: [wreg-fsr0h+status,2+status,0+btemp+1+pclath+cstack]
	line	336
	
l14646:	
;main.c: 336: unsigned char menuResponse=0xFF;
	movlw	(0FFh)
	bcf	status, 5	;RP0=0, select bank0
	bcf	status, 6	;RP1=0, select bank0
	movwf	(??_main+0)+0
	movf	(??_main+0)+0,w
	movwf	(main@menuResponse)
	line	338
;main.c: 338: TRISC=0X8F;
	movlw	(08Fh)
	bsf	status, 5	;RP0=1, select bank1
	bcf	status, 6	;RP1=0, select bank1
	movwf	(135)^080h	;volatile
	line	339
	
l14648:	
;main.c: 339: LcdInit();
	fcall	_LcdInit
	line	340
	
l14650:	
;main.c: 340: RB1 = 0;
	bcf	status, 5	;RP0=0, select bank0
	bcf	status, 6	;RP1=0, select bank0
	bcf	(49/8),(49)&7
	line	341
	
l14652:	
;main.c: 341: LcdPrint("Welcome", 0,0);
	movlw	low(STR_30|8000h)
	movwf	(?_LcdPrint)
	movlw	high(STR_30|8000h)
	movwf	((?_LcdPrint))+1
	clrf	0+(?_LcdPrint)+02h
	clrf	0+(?_LcdPrint)+03h
	fcall	_LcdPrint
	line	342
	
l14654:	
;main.c: 342: Delay(1);
	movlw	low(01h)
	bcf	status, 5	;RP0=0, select bank0
	bcf	status, 6	;RP1=0, select bank0
	movwf	(?_Delay)
	movlw	high(01h)
	movwf	((?_Delay))+1
	fcall	_Delay
	line	343
	
l14656:	
;main.c: 343: UartInit();
	fcall	_UartInit
	line	345
	
l14658:	
;main.c: 345: VerifyPswd();
	fcall	_VerifyPswd
	goto	l14660
	line	350
;main.c: 350: while(1)
	
l1543:	
	line	352
	
l14660:	
;main.c: 351: {
;main.c: 352: menuResponse = menu("1 For Access\n2 For Alter User");
	movlw	low(STR_31|8000h)
	bcf	status, 5	;RP0=0, select bank0
	bcf	status, 6	;RP1=0, select bank0
	movwf	(?_menu)
	movlw	high(STR_31|8000h)
	movwf	((?_menu))+1
	fcall	_menu
	bcf	status, 5	;RP0=0, select bank0
	bcf	status, 6	;RP1=0, select bank0
	movwf	(??_main+0)+0
	movf	(??_main+0)+0,w
	movwf	(main@menuResponse)
	line	353
;main.c: 353: if(menuResponse == '1') { ControlAccess();}
	movf	(main@menuResponse),w
	xorlw	031h
	skipz
	goto	u15141
	goto	u15140
u15141:
	goto	l14664
u15140:
	
l14662:	
	fcall	_ControlAccess
	goto	l14660
	line	354
	
l1544:	
	
l14664:	
;main.c: 354: else if(menuResponse == '2')
	bcf	status, 5	;RP0=0, select bank0
	bcf	status, 6	;RP1=0, select bank0
	movf	(main@menuResponse),w
	xorlw	032h
	skipz
	goto	u15151
	goto	u15150
u15151:
	goto	l14660
u15150:
	goto	l14666
	line	356
;main.c: 355: {
;main.c: 356: while(1)
	
l1547:	
	line	358
	
l14666:	
;main.c: 357: {
;main.c: 358: menuResponse = menu("1 Change Admin\n2 Add/Del User");
	movlw	low(STR_32|8000h)
	bcf	status, 5	;RP0=0, select bank0
	bcf	status, 6	;RP1=0, select bank0
	movwf	(?_menu)
	movlw	high(STR_32|8000h)
	movwf	((?_menu))+1
	fcall	_menu
	bcf	status, 5	;RP0=0, select bank0
	bcf	status, 6	;RP1=0, select bank0
	movwf	(??_main+0)+0
	movf	(??_main+0)+0,w
	movwf	(main@menuResponse)
	line	359
	
l14668:	
;main.c: 359: if(menuResponse == '1') AlterAdminUser();
	movf	(main@menuResponse),w
	xorlw	031h
	skipz
	goto	u15161
	goto	u15160
u15161:
	goto	l14672
u15160:
	
l14670:	
	fcall	_AlterAdminUser
	goto	l14666
	line	360
	
l1548:	
	
l14672:	
;main.c: 360: else if(menuResponse == '2')
	bcf	status, 5	;RP0=0, select bank0
	bcf	status, 6	;RP1=0, select bank0
	movf	(main@menuResponse),w
	xorlw	032h
	skipz
	goto	u15171
	goto	u15170
u15171:
	goto	l14700
u15170:
	goto	l14674
	line	362
;main.c: 361: {
;main.c: 362: while(1)
	
l1551:	
	line	364
	
l14674:	
;main.c: 363: {
;main.c: 364: menuResponse = menu("1 Add New User\n2 Delete Old User");
	movlw	low(STR_33|8000h)
	bcf	status, 5	;RP0=0, select bank0
	bcf	status, 6	;RP1=0, select bank0
	movwf	(?_menu)
	movlw	high(STR_33|8000h)
	movwf	((?_menu))+1
	fcall	_menu
	bcf	status, 5	;RP0=0, select bank0
	bcf	status, 6	;RP1=0, select bank0
	movwf	(??_main+0)+0
	movf	(??_main+0)+0,w
	movwf	(main@menuResponse)
	line	365
	
l14676:	
;main.c: 365: if(menuResponse == '1'){AddNewUserAfterAdminConfirm();}
	movf	(main@menuResponse),w
	xorlw	031h
	skipz
	goto	u15181
	goto	u15180
u15181:
	goto	l14680
u15180:
	
l14678:	
	fcall	_AddNewUserAfterAdminConfirm
	goto	l14674
	line	366
	
l1552:	
	
l14680:	
;main.c: 366: else if(menuResponse == '2')
	bcf	status, 5	;RP0=0, select bank0
	bcf	status, 6	;RP1=0, select bank0
	movf	(main@menuResponse),w
	xorlw	032h
	skipz
	goto	u15191
	goto	u15190
u15191:
	goto	l14696
u15190:
	goto	l14682
	line	368
;main.c: 367: {
;main.c: 368: while(1)
	
l1555:	
	line	370
	
l14682:	
;main.c: 369: {
;main.c: 370: menuResponse = menu("1 Delete All\n2 Delete Single");
	movlw	low(STR_34|8000h)
	bcf	status, 5	;RP0=0, select bank0
	bcf	status, 6	;RP1=0, select bank0
	movwf	(?_menu)
	movlw	high(STR_34|8000h)
	movwf	((?_menu))+1
	fcall	_menu
	bcf	status, 5	;RP0=0, select bank0
	bcf	status, 6	;RP1=0, select bank0
	movwf	(??_main+0)+0
	movf	(??_main+0)+0,w
	movwf	(main@menuResponse)
	line	371
	
l14684:	
;main.c: 371: if(menuResponse == '1'){EraseAllUsersAfterAdminConfirm();}
	movf	(main@menuResponse),w
	xorlw	031h
	skipz
	goto	u15201
	goto	u15200
u15201:
	goto	l14688
u15200:
	
l14686:	
	fcall	_EraseAllUsersAfterAdminConfirm
	goto	l14682
	line	372
	
l1556:	
	
l14688:	
;main.c: 372: else if(menuResponse == '2'){DeleteUserAfterAdminConfirm();}
	bcf	status, 5	;RP0=0, select bank0
	bcf	status, 6	;RP1=0, select bank0
	movf	(main@menuResponse),w
	xorlw	032h
	skipz
	goto	u15211
	goto	u15210
u15211:
	goto	l14692
u15210:
	
l14690:	
	fcall	_DeleteUserAfterAdminConfirm
	goto	l14682
	line	373
	
l1558:	
	
l14692:	
;main.c: 373: else if(menuResponse == '3')break;
	bcf	status, 5	;RP0=0, select bank0
	bcf	status, 6	;RP1=0, select bank0
	movf	(main@menuResponse),w
	xorlw	033h
	skipz
	goto	u15221
	goto	u15220
u15221:
	goto	l14682
u15220:
	goto	l14674
	
l14694:	
	goto	l14674
	
l1560:	
	goto	l14682
	line	374
	
l1559:	
	goto	l14682
	
l1557:	
	goto	l14682
	
l1562:	
	line	368
	goto	l14682
	
l1561:	
	line	375
;main.c: 374: }
;main.c: 375: }
	goto	l14674
	line	376
	
l1554:	
	
l14696:	
;main.c: 376: else if(menuResponse == '3')break;
	movf	(main@menuResponse),w
	xorlw	033h
	skipz
	goto	u15231
	goto	u15230
u15231:
	goto	l14674
u15230:
	goto	l14666
	
l14698:	
	goto	l14666
	
l1564:	
	goto	l14674
	line	377
	
l1563:	
	goto	l14674
	
l1553:	
	goto	l14674
	
l1566:	
	line	362
	goto	l14674
	
l1565:	
	line	378
;main.c: 377: }
;main.c: 378: }
	goto	l14666
	line	379
	
l1550:	
	
l14700:	
;main.c: 379: else if(menuResponse == '3')break;
	movf	(main@menuResponse),w
	xorlw	033h
	skipz
	goto	u15241
	goto	u15240
u15241:
	goto	l14666
u15240:
	goto	l14660
	
l14702:	
	goto	l14660
	
l1568:	
	goto	l14666
	line	380
	
l1567:	
	goto	l14666
	
l1549:	
	goto	l14666
	
l1570:	
	line	356
	goto	l14666
	
l1569:	
	goto	l14660
	line	381
	
l1546:	
	goto	l14660
	line	382
	
l1545:	
	goto	l14660
	
l1571:	
	line	350
	goto	l14660
	
l1572:	
	line	383
	
l1573:	
	global	start
	ljmp	start
	opt stack 0
GLOBAL	__end_of_main
	__end_of_main:
;; =============== function _main ends ============

	signat	_main,88
	global	_DeleteUserAfterAdminConfirm
psect	text4236,local,class=CODE,delta=2
global __ptext4236
__ptext4236:

;; *************** function _DeleteUserAfterAdminConfirm *****************
;; Defined at:
;;		line 238 in file "C:\Users\GauravLT\Desktop\Finger Print Sensor\R307\PIC16F877A_R307\main.c"
;; Parameters:    Size  Location     Type
;;		None
;; Auto vars:     Size  Location     Type
;;  key             1   18[BANK3 ] unsigned char 
;;  buff           10    0[BANK3 ] unsigned char [10]
;;  buff            5   11[BANK3 ] unsigned char [5]
;;  DelUserNo       1   19[BANK3 ] unsigned char 
;;  UserNo          1   17[BANK3 ] unsigned char 
;;  result          1   16[BANK3 ] unsigned char 
;;  isDeleteUser    1   10[BANK3 ] unsigned char 
;; Return value:  Size  Location     Type
;;                  1    wreg      unsigned char 
;; Registers used:
;;		wreg, fsr0l, fsr0h, status,2, status,0, btemp+1, pclath, cstack
;; Tracked objects:
;;		On entry : 0/0
;;		On exit  : 0/0
;;		Unchanged: 0/0
;; Data sizes:     COMMON   BANK0   BANK1   BANK3   BANK2
;;      Params:         0       0       0       0       0
;;      Locals:         0       0       0      20       0
;;      Temps:          0       0       5       0       0
;;      Totals:         0       0       5      20       0
;;Total ram usage:       25 bytes
;; Hardware stack levels used:    1
;; Hardware stack levels required when called:    7
;; This function calls:
;;		_ee_read
;;		_LcdClear
;;		_LcdPrint
;;		_HiSpeedScan0
;;		_Delay
;;		_DecToStr
;;		_KeyScan
;;		_IsKeyPending
;;		_GetKey
;;		_DeleteUser
;;		_releaseEElocation
;; This function is called by:
;;		_main
;; This function uses a non-reentrant model
;;
psect	text4236
	file	"C:\Users\GauravLT\Desktop\Finger Print Sensor\R307\PIC16F877A_R307\main.c"
	line	238
	global	__size_of_DeleteUserAfterAdminConfirm
	__size_of_DeleteUserAfterAdminConfirm	equ	__end_of_DeleteUserAfterAdminConfirm-_DeleteUserAfterAdminConfirm
	
_DeleteUserAfterAdminConfirm:	
	opt	stack 0
; Regs used in _DeleteUserAfterAdminConfirm: [wreg-fsr0h+status,2+status,0+btemp+1+pclath+cstack]
	line	239
	
l14550:	
;main.c: 239: unsigned char isDeleteUser=1;
	bsf	status, 5	;RP0=1, select bank3
	bsf	status, 6	;RP1=1, select bank3
	clrf	(DeleteUserAfterAdminConfirm@isDeleteUser)^0180h
	bsf	status,0
	rlf	(DeleteUserAfterAdminConfirm@isDeleteUser)^0180h,f
	line	241
	
l14552:	
;main.c: 241: if(ee_read(0x00) == 0x01)
	movlw	(0)
	fcall	_ee_read
	xorlw	01h
	skipz
	goto	u15021
	goto	u15020
u15021:
	goto	l1508
u15020:
	line	243
	
l14554:	
;main.c: 242: {
;main.c: 243: LcdClear();
	fcall	_LcdClear
	line	244
	
l14556:	
;main.c: 244: LcdPrint("Admin Required\nPlace Finger",0,0);
	movlw	low(STR_24|8000h)
	bcf	status, 5	;RP0=0, select bank0
	bcf	status, 6	;RP1=0, select bank0
	movwf	(?_LcdPrint)
	movlw	high(STR_24|8000h)
	movwf	((?_LcdPrint))+1
	clrf	0+(?_LcdPrint)+02h
	clrf	0+(?_LcdPrint)+03h
	fcall	_LcdPrint
	line	245
	
l14558:	
;main.c: 245: isDeleteUser = 0;
	bsf	status, 5	;RP0=1, select bank3
	bsf	status, 6	;RP1=1, select bank3
	clrf	(DeleteUserAfterAdminConfirm@isDeleteUser)^0180h
	line	248
	
l14560:	
;main.c: 247: unsigned char UserNo;
;main.c: 248: unsigned char result = HiSpeedScan0(&UserNo);
	movlw	(DeleteUserAfterAdminConfirm@UserNo&0ffh)
	bcf	status, 5	;RP0=0, select bank0
	bcf	status, 6	;RP1=0, select bank0
	movwf	(?_HiSpeedScan0)
	movlw	(0x3/2)
	movwf	(?_HiSpeedScan0+1)
	fcall	_HiSpeedScan0
	bsf	status, 5	;RP0=1, select bank1
	bcf	status, 6	;RP1=0, select bank1
	movwf	(??_DeleteUserAfterAdminConfirm+0)^080h+0
	movf	(??_DeleteUserAfterAdminConfirm+0)^080h+0,w
	bsf	status, 5	;RP0=1, select bank3
	bsf	status, 6	;RP1=1, select bank3
	movwf	(DeleteUserAfterAdminConfirm@result)^0180h
	line	249
	
l14562:	
;main.c: 249: if(result == 0xFF) return 0;
	movf	(DeleteUserAfterAdminConfirm@result)^0180h,w
	xorlw	0FFh
	skipz
	goto	u15031
	goto	u15030
u15031:
	goto	l14568
u15030:
	goto	l1508
	
l14564:	
;	Return value of _DeleteUserAfterAdminConfirm is never used
	goto	l1508
	
l14566:	
	goto	l1508
	line	250
	
l1507:	
	line	252
	
l14568:	
;main.c: 250: else
;main.c: 251: {
;main.c: 252: if(result == 1 && UserNo == 0)
	movf	(DeleteUserAfterAdminConfirm@result)^0180h,w
	xorlw	01h
	skipz
	goto	u15041
	goto	u15040
u15041:
	goto	l14638
u15040:
	
l14570:	
	movf	(DeleteUserAfterAdminConfirm@UserNo)^0180h,f
	skipz
	goto	u15051
	goto	u15050
u15051:
	goto	l14638
u15050:
	line	254
	
l14572:	
;main.c: 253: {
;main.c: 254: LcdClear();
	fcall	_LcdClear
	line	255
	
l14574:	
;main.c: 255: LcdPrint("Admin found",0,0);
	movlw	low(STR_25|8000h)
	bcf	status, 5	;RP0=0, select bank0
	bcf	status, 6	;RP1=0, select bank0
	movwf	(?_LcdPrint)
	movlw	high(STR_25|8000h)
	movwf	((?_LcdPrint))+1
	clrf	0+(?_LcdPrint)+02h
	clrf	0+(?_LcdPrint)+03h
	fcall	_LcdPrint
	line	256
	
l14576:	
;main.c: 256: Delay(2);
	movlw	low(02h)
	bcf	status, 5	;RP0=0, select bank0
	bcf	status, 6	;RP1=0, select bank0
	movwf	(?_Delay)
	movlw	high(02h)
	movwf	((?_Delay))+1
	fcall	_Delay
	line	258
	
l14578:	
;main.c: 258: unsigned char DelUserNo = 1;
	bsf	status, 5	;RP0=1, select bank3
	bsf	status, 6	;RP1=1, select bank3
	clrf	(DeleteUserAfterAdminConfirm@DelUserNo)^0180h
	bsf	status,0
	rlf	(DeleteUserAfterAdminConfirm@DelUserNo)^0180h,f
	line	260
	
l14580:	
;main.c: 259: unsigned char buff[5];
;main.c: 260: LcdClear();
	fcall	_LcdClear
	line	261
	
l14582:	
;main.c: 261: LcdPrint("Select User",0,0);
	movlw	low(STR_26|8000h)
	bcf	status, 5	;RP0=0, select bank0
	bcf	status, 6	;RP1=0, select bank0
	movwf	(?_LcdPrint)
	movlw	high(STR_26|8000h)
	movwf	((?_LcdPrint))+1
	clrf	0+(?_LcdPrint)+02h
	clrf	0+(?_LcdPrint)+03h
	fcall	_LcdPrint
	line	262
	
l14584:	
;main.c: 262: DecToStr(DelUserNo, buff, 2);
	bsf	status, 5	;RP0=1, select bank3
	bsf	status, 6	;RP1=1, select bank3
	movf	(DeleteUserAfterAdminConfirm@DelUserNo)^0180h,w
	bsf	status, 5	;RP0=1, select bank1
	bcf	status, 6	;RP1=0, select bank1
	movwf	(??_DeleteUserAfterAdminConfirm+0)^080h+0
	clrf	((??_DeleteUserAfterAdminConfirm+0)^080h+0+1)
	clrf	((??_DeleteUserAfterAdminConfirm+0)^080h+0+2)
	clrf	((??_DeleteUserAfterAdminConfirm+0)^080h+0+3)
	movf	3+(??_DeleteUserAfterAdminConfirm+0)^080h+0,w
	bcf	status, 5	;RP0=0, select bank0
	bcf	status, 6	;RP1=0, select bank0
	movwf	(?_DecToStr+3)
	bsf	status, 5	;RP0=1, select bank1
	bcf	status, 6	;RP1=0, select bank1
	movf	2+(??_DeleteUserAfterAdminConfirm+0)^080h+0,w
	bcf	status, 5	;RP0=0, select bank0
	bcf	status, 6	;RP1=0, select bank0
	movwf	(?_DecToStr+2)
	bsf	status, 5	;RP0=1, select bank1
	bcf	status, 6	;RP1=0, select bank1
	movf	1+(??_DeleteUserAfterAdminConfirm+0)^080h+0,w
	bcf	status, 5	;RP0=0, select bank0
	bcf	status, 6	;RP1=0, select bank0
	movwf	(?_DecToStr+1)
	bsf	status, 5	;RP0=1, select bank1
	bcf	status, 6	;RP1=0, select bank1
	movf	0+(??_DeleteUserAfterAdminConfirm+0)^080h+0,w
	bcf	status, 5	;RP0=0, select bank0
	bcf	status, 6	;RP1=0, select bank0
	movwf	(?_DecToStr)

	movlw	(DeleteUserAfterAdminConfirm@buff&0ffh)
	movwf	(0+?_DecToStr+04h)
	movlw	(0x3/2)
	movwf	(1+?_DecToStr+04h)
	movlw	(02h)
	bsf	status, 5	;RP0=1, select bank1
	bcf	status, 6	;RP1=0, select bank1
	movwf	(??_DeleteUserAfterAdminConfirm+4)^080h+0
	movf	(??_DeleteUserAfterAdminConfirm+4)^080h+0,w
	bcf	status, 5	;RP0=0, select bank0
	bcf	status, 6	;RP1=0, select bank0
	movwf	0+(?_DecToStr)+06h
	fcall	_DecToStr
	line	263
	
l14586:	
;main.c: 263: LcdPrint(buff, 1, 5);
	movlw	(DeleteUserAfterAdminConfirm@buff&0ffh)
	bcf	status, 5	;RP0=0, select bank0
	bcf	status, 6	;RP1=0, select bank0
	movwf	(?_LcdPrint)
	movlw	(0x3/2)
	movwf	(?_LcdPrint+1)
	clrf	0+(?_LcdPrint)+02h
	bsf	status,0
	rlf	0+(?_LcdPrint)+02h,f
	movlw	(05h)
	bsf	status, 5	;RP0=1, select bank1
	bcf	status, 6	;RP1=0, select bank1
	movwf	(??_DeleteUserAfterAdminConfirm+0)^080h+0
	movf	(??_DeleteUserAfterAdminConfirm+0)^080h+0,w
	bcf	status, 5	;RP0=0, select bank0
	bcf	status, 6	;RP1=0, select bank0
	movwf	0+(?_LcdPrint)+03h
	fcall	_LcdPrint
	goto	l14588
	line	264
;main.c: 264: while(1)
	
l1511:	
	line	266
	
l14588:	
;main.c: 265: {
;main.c: 266: KeyScan();
	fcall	_KeyScan
	line	267
	
l14590:	
;main.c: 267: if(IsKeyPending())
	fcall	_IsKeyPending
	xorlw	0
	skipnz
	goto	u15061
	goto	u15060
u15061:
	goto	l14588
u15060:
	line	269
	
l14592:	
;main.c: 268: {
;main.c: 269: unsigned char key = GetKey();
	fcall	_GetKey
	bsf	status, 5	;RP0=1, select bank1
	bcf	status, 6	;RP1=0, select bank1
	movwf	(??_DeleteUserAfterAdminConfirm+0)^080h+0
	movf	(??_DeleteUserAfterAdminConfirm+0)^080h+0,w
	bsf	status, 5	;RP0=1, select bank3
	bsf	status, 6	;RP1=1, select bank3
	movwf	(DeleteUserAfterAdminConfirm@key)^0180h
	line	270
	
l14594:	
;main.c: 270: if(key == '1'){ if(DelUserNo<24) DelUserNo++; }
	movf	(DeleteUserAfterAdminConfirm@key)^0180h,w
	xorlw	031h
	skipz
	goto	u15071
	goto	u15070
u15071:
	goto	l14600
u15070:
	
l14596:	
	movlw	(018h)
	subwf	(DeleteUserAfterAdminConfirm@DelUserNo)^0180h,w
	skipnc
	goto	u15081
	goto	u15080
u15081:
	goto	l14616
u15080:
	
l14598:	
	movlw	(01h)
	bsf	status, 5	;RP0=1, select bank1
	bcf	status, 6	;RP1=0, select bank1
	movwf	(??_DeleteUserAfterAdminConfirm+0)^080h+0
	movf	(??_DeleteUserAfterAdminConfirm+0)^080h+0,w
	bsf	status, 5	;RP0=1, select bank3
	bsf	status, 6	;RP1=1, select bank3
	addwf	(DeleteUserAfterAdminConfirm@DelUserNo)^0180h,f
	goto	l14616
	
l1514:	
	goto	l14616
	line	271
	
l1513:	
	
l14600:	
;main.c: 271: else if(key == '2') {if(DelUserNo > 0) DelUserNo--; }
	movf	(DeleteUserAfterAdminConfirm@key)^0180h,w
	xorlw	032h
	skipz
	goto	u15091
	goto	u15090
u15091:
	goto	l14606
u15090:
	
l14602:	
	movf	(DeleteUserAfterAdminConfirm@DelUserNo)^0180h,w
	skipz
	goto	u15100
	goto	l14616
u15100:
	
l14604:	
	movlw	low(01h)
	subwf	(DeleteUserAfterAdminConfirm@DelUserNo)^0180h,f
	goto	l14616
	
l1517:	
	goto	l14616
	line	272
	
l1516:	
	
l14606:	
;main.c: 272: else if(key == '3') return 0;
	movf	(DeleteUserAfterAdminConfirm@key)^0180h,w
	xorlw	033h
	skipz
	goto	u15111
	goto	u15110
u15111:
	goto	l14612
u15110:
	goto	l1508
	
l14608:	
;	Return value of _DeleteUserAfterAdminConfirm is never used
	goto	l1508
	
l14610:	
	goto	l14616
	line	273
	
l1519:	
	
l14612:	
;main.c: 273: else if(key == '4') break;
	movf	(DeleteUserAfterAdminConfirm@key)^0180h,w
	xorlw	034h
	skipz
	goto	u15121
	goto	u15120
u15121:
	goto	l14616
u15120:
	goto	l14620
	
l14614:	
	goto	l14620
	
l1521:	
	goto	l14616
	line	275
	
l1520:	
	goto	l14616
	
l1518:	
	goto	l14616
	
l1515:	
	
l14616:	
;main.c: 275: DecToStr(DelUserNo, buff, 2);
	movf	(DeleteUserAfterAdminConfirm@DelUserNo)^0180h,w
	bsf	status, 5	;RP0=1, select bank1
	bcf	status, 6	;RP1=0, select bank1
	movwf	(??_DeleteUserAfterAdminConfirm+0)^080h+0
	clrf	((??_DeleteUserAfterAdminConfirm+0)^080h+0+1)
	clrf	((??_DeleteUserAfterAdminConfirm+0)^080h+0+2)
	clrf	((??_DeleteUserAfterAdminConfirm+0)^080h+0+3)
	movf	3+(??_DeleteUserAfterAdminConfirm+0)^080h+0,w
	bcf	status, 5	;RP0=0, select bank0
	bcf	status, 6	;RP1=0, select bank0
	movwf	(?_DecToStr+3)
	bsf	status, 5	;RP0=1, select bank1
	bcf	status, 6	;RP1=0, select bank1
	movf	2+(??_DeleteUserAfterAdminConfirm+0)^080h+0,w
	bcf	status, 5	;RP0=0, select bank0
	bcf	status, 6	;RP1=0, select bank0
	movwf	(?_DecToStr+2)
	bsf	status, 5	;RP0=1, select bank1
	bcf	status, 6	;RP1=0, select bank1
	movf	1+(??_DeleteUserAfterAdminConfirm+0)^080h+0,w
	bcf	status, 5	;RP0=0, select bank0
	bcf	status, 6	;RP1=0, select bank0
	movwf	(?_DecToStr+1)
	bsf	status, 5	;RP0=1, select bank1
	bcf	status, 6	;RP1=0, select bank1
	movf	0+(??_DeleteUserAfterAdminConfirm+0)^080h+0,w
	bcf	status, 5	;RP0=0, select bank0
	bcf	status, 6	;RP1=0, select bank0
	movwf	(?_DecToStr)

	movlw	(DeleteUserAfterAdminConfirm@buff&0ffh)
	movwf	(0+?_DecToStr+04h)
	movlw	(0x3/2)
	movwf	(1+?_DecToStr+04h)
	movlw	(02h)
	bsf	status, 5	;RP0=1, select bank1
	bcf	status, 6	;RP1=0, select bank1
	movwf	(??_DeleteUserAfterAdminConfirm+4)^080h+0
	movf	(??_DeleteUserAfterAdminConfirm+4)^080h+0,w
	bcf	status, 5	;RP0=0, select bank0
	bcf	status, 6	;RP1=0, select bank0
	movwf	0+(?_DecToStr)+06h
	fcall	_DecToStr
	line	276
	
l14618:	
;main.c: 276: LcdPrint(buff, 1, 5);
	movlw	(DeleteUserAfterAdminConfirm@buff&0ffh)
	bcf	status, 5	;RP0=0, select bank0
	bcf	status, 6	;RP1=0, select bank0
	movwf	(?_LcdPrint)
	movlw	(0x3/2)
	movwf	(?_LcdPrint+1)
	clrf	0+(?_LcdPrint)+02h
	bsf	status,0
	rlf	0+(?_LcdPrint)+02h,f
	movlw	(05h)
	bsf	status, 5	;RP0=1, select bank1
	bcf	status, 6	;RP1=0, select bank1
	movwf	(??_DeleteUserAfterAdminConfirm+0)^080h+0
	movf	(??_DeleteUserAfterAdminConfirm+0)^080h+0,w
	bcf	status, 5	;RP0=0, select bank0
	bcf	status, 6	;RP1=0, select bank0
	movwf	0+(?_LcdPrint)+03h
	fcall	_LcdPrint
	goto	l14588
	line	277
	
l1512:	
	goto	l14588
	line	278
	
l1523:	
	line	264
	goto	l14588
	
l1522:	
	line	280
	
l14620:	
;main.c: 277: }
;main.c: 278: }
;main.c: 280: if(DeleteUser(DelUserNo) == 1)
	bsf	status, 5	;RP0=1, select bank3
	bsf	status, 6	;RP1=1, select bank3
	movf	(DeleteUserAfterAdminConfirm@DelUserNo)^0180h,w
	fcall	_DeleteUser
	xorlw	01h
	skipz
	goto	u15131
	goto	u15130
u15131:
	goto	l14632
u15130:
	line	283
	
l14622:	
;main.c: 281: {
;main.c: 282: unsigned char buff[10];
;main.c: 283: LcdClear();
	fcall	_LcdClear
	line	284
	
l14624:	
;main.c: 284: LcdPrint("User Deleted\nUser No:",0,0);
	movlw	low(STR_27|8000h)
	bcf	status, 5	;RP0=0, select bank0
	bcf	status, 6	;RP1=0, select bank0
	movwf	(?_LcdPrint)
	movlw	high(STR_27|8000h)
	movwf	((?_LcdPrint))+1
	clrf	0+(?_LcdPrint)+02h
	clrf	0+(?_LcdPrint)+03h
	fcall	_LcdPrint
	line	285
	
l14626:	
;main.c: 285: DecToStr(DelUserNo, buff, 2);
	bsf	status, 5	;RP0=1, select bank3
	bsf	status, 6	;RP1=1, select bank3
	movf	(DeleteUserAfterAdminConfirm@DelUserNo)^0180h,w
	bsf	status, 5	;RP0=1, select bank1
	bcf	status, 6	;RP1=0, select bank1
	movwf	(??_DeleteUserAfterAdminConfirm+0)^080h+0
	clrf	((??_DeleteUserAfterAdminConfirm+0)^080h+0+1)
	clrf	((??_DeleteUserAfterAdminConfirm+0)^080h+0+2)
	clrf	((??_DeleteUserAfterAdminConfirm+0)^080h+0+3)
	movf	3+(??_DeleteUserAfterAdminConfirm+0)^080h+0,w
	bcf	status, 5	;RP0=0, select bank0
	bcf	status, 6	;RP1=0, select bank0
	movwf	(?_DecToStr+3)
	bsf	status, 5	;RP0=1, select bank1
	bcf	status, 6	;RP1=0, select bank1
	movf	2+(??_DeleteUserAfterAdminConfirm+0)^080h+0,w
	bcf	status, 5	;RP0=0, select bank0
	bcf	status, 6	;RP1=0, select bank0
	movwf	(?_DecToStr+2)
	bsf	status, 5	;RP0=1, select bank1
	bcf	status, 6	;RP1=0, select bank1
	movf	1+(??_DeleteUserAfterAdminConfirm+0)^080h+0,w
	bcf	status, 5	;RP0=0, select bank0
	bcf	status, 6	;RP1=0, select bank0
	movwf	(?_DecToStr+1)
	bsf	status, 5	;RP0=1, select bank1
	bcf	status, 6	;RP1=0, select bank1
	movf	0+(??_DeleteUserAfterAdminConfirm+0)^080h+0,w
	bcf	status, 5	;RP0=0, select bank0
	bcf	status, 6	;RP1=0, select bank0
	movwf	(?_DecToStr)

	movlw	(DeleteUserAfterAdminConfirm@buff_2234&0ffh)
	movwf	(0+?_DecToStr+04h)
	movlw	(0x3/2)
	movwf	(1+?_DecToStr+04h)
	movlw	(02h)
	bsf	status, 5	;RP0=1, select bank1
	bcf	status, 6	;RP1=0, select bank1
	movwf	(??_DeleteUserAfterAdminConfirm+4)^080h+0
	movf	(??_DeleteUserAfterAdminConfirm+4)^080h+0,w
	bcf	status, 5	;RP0=0, select bank0
	bcf	status, 6	;RP1=0, select bank0
	movwf	0+(?_DecToStr)+06h
	fcall	_DecToStr
	line	286
;main.c: 286: LcdPrint(buff, 1, 9);
	movlw	(DeleteUserAfterAdminConfirm@buff_2234&0ffh)
	bcf	status, 5	;RP0=0, select bank0
	bcf	status, 6	;RP1=0, select bank0
	movwf	(?_LcdPrint)
	movlw	(0x3/2)
	movwf	(?_LcdPrint+1)
	clrf	0+(?_LcdPrint)+02h
	bsf	status,0
	rlf	0+(?_LcdPrint)+02h,f
	movlw	(09h)
	bsf	status, 5	;RP0=1, select bank1
	bcf	status, 6	;RP1=0, select bank1
	movwf	(??_DeleteUserAfterAdminConfirm+0)^080h+0
	movf	(??_DeleteUserAfterAdminConfirm+0)^080h+0,w
	bcf	status, 5	;RP0=0, select bank0
	bcf	status, 6	;RP1=0, select bank0
	movwf	0+(?_LcdPrint)+03h
	fcall	_LcdPrint
	line	287
	
l14628:	
;main.c: 287: releaseEElocation(DelUserNo);
	bsf	status, 5	;RP0=1, select bank3
	bsf	status, 6	;RP1=1, select bank3
	movf	(DeleteUserAfterAdminConfirm@DelUserNo)^0180h,w
	fcall	_releaseEElocation
	line	288
	
l14630:	
;main.c: 288: Delay(2);
	movlw	low(02h)
	bcf	status, 5	;RP0=0, select bank0
	bcf	status, 6	;RP1=0, select bank0
	movwf	(?_Delay)
	movlw	high(02h)
	movwf	((?_Delay))+1
	fcall	_Delay
	line	289
;main.c: 289: }
	goto	l1508
	line	290
	
l1524:	
	line	292
	
l14632:	
;main.c: 290: else
;main.c: 291: {
;main.c: 292: LcdClear();
	fcall	_LcdClear
	line	293
	
l14634:	
;main.c: 293: LcdPrint("Cannot Delete",0,0);
	movlw	low(STR_28|8000h)
	bcf	status, 5	;RP0=0, select bank0
	bcf	status, 6	;RP1=0, select bank0
	movwf	(?_LcdPrint)
	movlw	high(STR_28|8000h)
	movwf	((?_LcdPrint))+1
	clrf	0+(?_LcdPrint)+02h
	clrf	0+(?_LcdPrint)+03h
	fcall	_LcdPrint
	line	294
	
l14636:	
;main.c: 294: Delay(2);
	movlw	low(02h)
	bcf	status, 5	;RP0=0, select bank0
	bcf	status, 6	;RP1=0, select bank0
	movwf	(?_Delay)
	movlw	high(02h)
	movwf	((?_Delay))+1
	fcall	_Delay
	goto	l1508
	line	295
	
l1525:	
	line	296
;main.c: 295: }
;main.c: 296: }
	goto	l1508
	line	297
	
l1510:	
	line	299
	
l14638:	
;main.c: 297: else
;main.c: 298: {
;main.c: 299: LcdClear();
	fcall	_LcdClear
	line	300
	
l14640:	
;main.c: 300: LcdPrint("Admin Not\n  found",0,0);
	movlw	low(STR_29|8000h)
	bcf	status, 5	;RP0=0, select bank0
	bcf	status, 6	;RP1=0, select bank0
	movwf	(?_LcdPrint)
	movlw	high(STR_29|8000h)
	movwf	((?_LcdPrint))+1
	clrf	0+(?_LcdPrint)+02h
	clrf	0+(?_LcdPrint)+03h
	fcall	_LcdPrint
	line	301
	
l14642:	
;main.c: 301: Delay(2);
	movlw	low(02h)
	bcf	status, 5	;RP0=0, select bank0
	bcf	status, 6	;RP1=0, select bank0
	movwf	(?_Delay)
	movlw	high(02h)
	movwf	((?_Delay))+1
	fcall	_Delay
	goto	l1508
	line	302
	
l14644:	
;main.c: 302: return 0;
;	Return value of _DeleteUserAfterAdminConfirm is never used
	goto	l1508
	line	303
	
l1526:	
	goto	l1508
	line	304
	
l1509:	
	goto	l1508
	line	305
	
l1506:	
	line	307
;main.c: 303: }
;main.c: 304: }
;main.c: 305: }
;main.c: 306: return 0;
;	Return value of _DeleteUserAfterAdminConfirm is never used
	
l1508:	
	return
	opt stack 0
GLOBAL	__end_of_DeleteUserAfterAdminConfirm
	__end_of_DeleteUserAfterAdminConfirm:
;; =============== function _DeleteUserAfterAdminConfirm ends ============

	signat	_DeleteUserAfterAdminConfirm,89
	global	_AddNewUserAfterAdminConfirm
psect	text4237,local,class=CODE,delta=2
global __ptext4237
__ptext4237:

;; *************** function _AddNewUserAfterAdminConfirm *****************
;; Defined at:
;;		line 171 in file "C:\Users\GauravLT\Desktop\Finger Print Sensor\R307\PIC16F877A_R307\main.c"
;; Parameters:    Size  Location     Type
;;		None
;; Auto vars:     Size  Location     Type
;;  buff           10    5[BANK1 ] unsigned char [10]
;;  AddNewUserRe    1   19[BANK1 ] unsigned char 
;;  availSpaceRe    1   18[BANK1 ] unsigned char 
;;  _availSpaceR    1   17[BANK1 ] char 
;;  UserNo          1   20[BANK1 ] unsigned char 
;;  result          1   16[BANK1 ] unsigned char 
;;  isAddNewUser    1   15[BANK1 ] unsigned char 
;; Return value:  Size  Location     Type
;;                  1    wreg      unsigned char 
;; Registers used:
;;		wreg, fsr0l, fsr0h, status,2, status,0, btemp+1, pclath, cstack
;; Tracked objects:
;;		On entry : 0/0
;;		On exit  : 0/0
;;		Unchanged: 0/0
;; Data sizes:     COMMON   BANK0   BANK1   BANK3   BANK2
;;      Params:         0       0       0       0       0
;;      Locals:         0       0      16       0       0
;;      Temps:          0       0       5       0       0
;;      Totals:         0       0      21       0       0
;;Total ram usage:       21 bytes
;; Hardware stack levels used:    1
;; Hardware stack levels required when called:    7
;; This function calls:
;;		_ee_read
;;		_LcdClear
;;		_LcdPrint
;;		_HiSpeedScan0
;;		_Delay
;;		_getNextAvailLocation
;;		_AddNewUser
;;		_DecToStr
;; This function is called by:
;;		_main
;; This function uses a non-reentrant model
;;
psect	text4237
	file	"C:\Users\GauravLT\Desktop\Finger Print Sensor\R307\PIC16F877A_R307\main.c"
	line	171
	global	__size_of_AddNewUserAfterAdminConfirm
	__size_of_AddNewUserAfterAdminConfirm	equ	__end_of_AddNewUserAfterAdminConfirm-_AddNewUserAfterAdminConfirm
	
_AddNewUserAfterAdminConfirm:	
	opt	stack 0
; Regs used in _AddNewUserAfterAdminConfirm: [wreg-fsr0h+status,2+status,0+btemp+1+pclath+cstack]
	line	172
	
l14468:	
;main.c: 172: unsigned char isAddNewUser=1;
	bsf	status, 5	;RP0=1, select bank1
	bcf	status, 6	;RP1=0, select bank1
	clrf	(AddNewUserAfterAdminConfirm@isAddNewUser)^080h
	bsf	status,0
	rlf	(AddNewUserAfterAdminConfirm@isAddNewUser)^080h,f
	line	173
	
l14470:	
;main.c: 173: if(ee_read(0x00) == 0x01)
	movlw	(0)
	fcall	_ee_read
	xorlw	01h
	skipz
	goto	u14941
	goto	u14940
u14941:
	goto	l14506
u14940:
	line	175
	
l14472:	
;main.c: 174: {
;main.c: 175: LcdClear();
	fcall	_LcdClear
	line	176
	
l14474:	
;main.c: 176: LcdPrint("Admin Required\nPlace Finger",0,0);
	movlw	low(STR_17|8000h)
	bcf	status, 5	;RP0=0, select bank0
	bcf	status, 6	;RP1=0, select bank0
	movwf	(?_LcdPrint)
	movlw	high(STR_17|8000h)
	movwf	((?_LcdPrint))+1
	clrf	0+(?_LcdPrint)+02h
	clrf	0+(?_LcdPrint)+03h
	fcall	_LcdPrint
	line	177
	
l14476:	
;main.c: 177: isAddNewUser = 0;
	bsf	status, 5	;RP0=1, select bank1
	bcf	status, 6	;RP1=0, select bank1
	clrf	(AddNewUserAfterAdminConfirm@isAddNewUser)^080h
	line	180
	
l14478:	
;main.c: 179: unsigned char UserNo;
;main.c: 180: unsigned char result = HiSpeedScan0(&UserNo);
	movlw	(AddNewUserAfterAdminConfirm@UserNo&0ffh)
	bcf	status, 5	;RP0=0, select bank0
	bcf	status, 6	;RP1=0, select bank0
	movwf	(?_HiSpeedScan0)
	movlw	(0x1/2)
	movwf	(?_HiSpeedScan0+1)
	fcall	_HiSpeedScan0
	bsf	status, 5	;RP0=1, select bank1
	bcf	status, 6	;RP1=0, select bank1
	movwf	(??_AddNewUserAfterAdminConfirm+0)^080h+0
	movf	(??_AddNewUserAfterAdminConfirm+0)^080h+0,w
	movwf	(AddNewUserAfterAdminConfirm@result)^080h
	line	181
	
l14480:	
;main.c: 181: if(result == 0xFF) return 0;
	movf	(AddNewUserAfterAdminConfirm@result)^080h,w
	xorlw	0FFh
	skipz
	goto	u14951
	goto	u14950
u14951:
	goto	l14486
u14950:
	goto	l1493
	
l14482:	
;	Return value of _AddNewUserAfterAdminConfirm is never used
	goto	l1493
	
l14484:	
	goto	l14506
	line	182
	
l1492:	
	line	184
	
l14486:	
;main.c: 182: else
;main.c: 183: {
;main.c: 184: if(result == 1 && UserNo == 0)
	movf	(AddNewUserAfterAdminConfirm@result)^080h,w
	xorlw	01h
	skipz
	goto	u14961
	goto	u14960
u14961:
	goto	l14498
u14960:
	
l14488:	
	movf	(AddNewUserAfterAdminConfirm@UserNo)^080h,f
	skipz
	goto	u14971
	goto	u14970
u14971:
	goto	l14498
u14970:
	line	186
	
l14490:	
;main.c: 185: {
;main.c: 186: LcdClear();
	fcall	_LcdClear
	line	187
	
l14492:	
;main.c: 187: LcdPrint("Admin found",0,0);
	movlw	low(STR_18|8000h)
	bcf	status, 5	;RP0=0, select bank0
	bcf	status, 6	;RP1=0, select bank0
	movwf	(?_LcdPrint)
	movlw	high(STR_18|8000h)
	movwf	((?_LcdPrint))+1
	clrf	0+(?_LcdPrint)+02h
	clrf	0+(?_LcdPrint)+03h
	fcall	_LcdPrint
	line	188
	
l14494:	
;main.c: 188: Delay(2);
	movlw	low(02h)
	bcf	status, 5	;RP0=0, select bank0
	bcf	status, 6	;RP1=0, select bank0
	movwf	(?_Delay)
	movlw	high(02h)
	movwf	((?_Delay))+1
	fcall	_Delay
	line	189
	
l14496:	
;main.c: 189: isAddNewUser = 1;
	bsf	status, 5	;RP0=1, select bank1
	bcf	status, 6	;RP1=0, select bank1
	clrf	(AddNewUserAfterAdminConfirm@isAddNewUser)^080h
	bsf	status,0
	rlf	(AddNewUserAfterAdminConfirm@isAddNewUser)^080h,f
	line	190
;main.c: 190: }
	goto	l14506
	line	191
	
l1495:	
	line	193
	
l14498:	
;main.c: 191: else
;main.c: 192: {
;main.c: 193: LcdClear();
	fcall	_LcdClear
	line	194
	
l14500:	
;main.c: 194: LcdPrint("Admin Not\n  found",0,0);
	movlw	low(STR_19|8000h)
	bcf	status, 5	;RP0=0, select bank0
	bcf	status, 6	;RP1=0, select bank0
	movwf	(?_LcdPrint)
	movlw	high(STR_19|8000h)
	movwf	((?_LcdPrint))+1
	clrf	0+(?_LcdPrint)+02h
	clrf	0+(?_LcdPrint)+03h
	fcall	_LcdPrint
	line	195
	
l14502:	
;main.c: 195: Delay(2);
	movlw	low(02h)
	bcf	status, 5	;RP0=0, select bank0
	bcf	status, 6	;RP1=0, select bank0
	movwf	(?_Delay)
	movlw	high(02h)
	movwf	((?_Delay))+1
	fcall	_Delay
	goto	l1493
	line	196
	
l14504:	
;main.c: 196: return 0;
;	Return value of _AddNewUserAfterAdminConfirm is never used
	goto	l1493
	line	197
	
l1496:	
	goto	l14506
	line	198
	
l1494:	
	goto	l14506
	line	199
	
l1491:	
	line	200
	
l14506:	
;main.c: 197: }
;main.c: 198: }
;main.c: 199: }
;main.c: 200: if(isAddNewUser == 1)
	bsf	status, 5	;RP0=1, select bank1
	bcf	status, 6	;RP1=0, select bank1
	movf	(AddNewUserAfterAdminConfirm@isAddNewUser)^080h,w
	xorlw	01h
	skipz
	goto	u14981
	goto	u14980
u14981:
	goto	l1493
u14980:
	line	202
	
l14508:	
;main.c: 201: {
;main.c: 202: signed char _availSpaceResult = getNextAvailLocation();
	fcall	_getNextAvailLocation
	bsf	status, 5	;RP0=1, select bank1
	bcf	status, 6	;RP1=0, select bank1
	movwf	(??_AddNewUserAfterAdminConfirm+0)^080h+0
	movf	(??_AddNewUserAfterAdminConfirm+0)^080h+0,w
	movwf	(AddNewUserAfterAdminConfirm@_availSpaceResult)^080h
	line	203
	
l14510:	
;main.c: 203: if(_availSpaceResult == -1)
	movf	(AddNewUserAfterAdminConfirm@_availSpaceResult)^080h,w
	xorlw	-1
	skipz
	goto	u14991
	goto	u14990
u14991:
	goto	l14518
u14990:
	line	205
	
l14512:	
;main.c: 204: {
;main.c: 205: LcdClear();
	fcall	_LcdClear
	line	206
	
l14514:	
;main.c: 206: LcdPrint("Not Enough\n Memory",0,0);
	movlw	low(STR_20|8000h)
	bcf	status, 5	;RP0=0, select bank0
	bcf	status, 6	;RP1=0, select bank0
	movwf	(?_LcdPrint)
	movlw	high(STR_20|8000h)
	movwf	((?_LcdPrint))+1
	clrf	0+(?_LcdPrint)+02h
	clrf	0+(?_LcdPrint)+03h
	fcall	_LcdPrint
	line	207
	
l14516:	
;main.c: 207: Delay(2);
	movlw	low(02h)
	bcf	status, 5	;RP0=0, select bank0
	bcf	status, 6	;RP1=0, select bank0
	movwf	(?_Delay)
	movlw	high(02h)
	movwf	((?_Delay))+1
	fcall	_Delay
	line	208
;main.c: 208: }
	goto	l1493
	line	209
	
l1498:	
	line	211
	
l14518:	
;main.c: 209: else
;main.c: 210: {
;main.c: 211: LcdClear();
	fcall	_LcdClear
	line	212
	
l14520:	
;main.c: 212: LcdPrint("New User\nPlace Finger",0,0);
	movlw	low(STR_21|8000h)
	bcf	status, 5	;RP0=0, select bank0
	bcf	status, 6	;RP1=0, select bank0
	movwf	(?_LcdPrint)
	movlw	high(STR_21|8000h)
	movwf	((?_LcdPrint))+1
	clrf	0+(?_LcdPrint)+02h
	clrf	0+(?_LcdPrint)+03h
	fcall	_LcdPrint
	line	213
	
l14522:	
;main.c: 213: unsigned char availSpaceResult = _availSpaceResult;
	bsf	status, 5	;RP0=1, select bank1
	bcf	status, 6	;RP1=0, select bank1
	movf	(AddNewUserAfterAdminConfirm@_availSpaceResult)^080h,w
	movwf	(??_AddNewUserAfterAdminConfirm+0)^080h+0
	movf	(??_AddNewUserAfterAdminConfirm+0)^080h+0,w
	movwf	(AddNewUserAfterAdminConfirm@availSpaceResult)^080h
	line	214
	
l14524:	
;main.c: 214: unsigned char AddNewUserResult = AddNewUser(availSpaceResult);
	movf	(AddNewUserAfterAdminConfirm@availSpaceResult)^080h,w
	fcall	_AddNewUser
	bsf	status, 5	;RP0=1, select bank1
	bcf	status, 6	;RP1=0, select bank1
	movwf	(??_AddNewUserAfterAdminConfirm+0)^080h+0
	movf	(??_AddNewUserAfterAdminConfirm+0)^080h+0,w
	movwf	(AddNewUserAfterAdminConfirm@AddNewUserResult)^080h
	line	215
	
l14526:	
;main.c: 215: if(AddNewUserResult == 1)
	movf	(AddNewUserAfterAdminConfirm@AddNewUserResult)^080h,w
	xorlw	01h
	skipz
	goto	u15001
	goto	u15000
u15001:
	goto	l14536
u15000:
	line	218
	
l14528:	
;main.c: 216: {
;main.c: 217: unsigned char buff[10];
;main.c: 218: LcdClear();
	fcall	_LcdClear
	line	219
	
l14530:	
;main.c: 219: LcdPrint("New User\n Created @:",0,0);
	movlw	low(STR_22|8000h)
	bcf	status, 5	;RP0=0, select bank0
	bcf	status, 6	;RP1=0, select bank0
	movwf	(?_LcdPrint)
	movlw	high(STR_22|8000h)
	movwf	((?_LcdPrint))+1
	clrf	0+(?_LcdPrint)+02h
	clrf	0+(?_LcdPrint)+03h
	fcall	_LcdPrint
	line	220
	
l14532:	
;main.c: 220: DecToStr(availSpaceResult, buff, 2);
	bsf	status, 5	;RP0=1, select bank1
	bcf	status, 6	;RP1=0, select bank1
	movf	(AddNewUserAfterAdminConfirm@availSpaceResult)^080h,w
	movwf	(??_AddNewUserAfterAdminConfirm+0)^080h+0
	clrf	((??_AddNewUserAfterAdminConfirm+0)^080h+0+1)
	clrf	((??_AddNewUserAfterAdminConfirm+0)^080h+0+2)
	clrf	((??_AddNewUserAfterAdminConfirm+0)^080h+0+3)
	movf	3+(??_AddNewUserAfterAdminConfirm+0)^080h+0,w
	bcf	status, 5	;RP0=0, select bank0
	bcf	status, 6	;RP1=0, select bank0
	movwf	(?_DecToStr+3)
	bsf	status, 5	;RP0=1, select bank1
	bcf	status, 6	;RP1=0, select bank1
	movf	2+(??_AddNewUserAfterAdminConfirm+0)^080h+0,w
	bcf	status, 5	;RP0=0, select bank0
	bcf	status, 6	;RP1=0, select bank0
	movwf	(?_DecToStr+2)
	bsf	status, 5	;RP0=1, select bank1
	bcf	status, 6	;RP1=0, select bank1
	movf	1+(??_AddNewUserAfterAdminConfirm+0)^080h+0,w
	bcf	status, 5	;RP0=0, select bank0
	bcf	status, 6	;RP1=0, select bank0
	movwf	(?_DecToStr+1)
	bsf	status, 5	;RP0=1, select bank1
	bcf	status, 6	;RP1=0, select bank1
	movf	0+(??_AddNewUserAfterAdminConfirm+0)^080h+0,w
	bcf	status, 5	;RP0=0, select bank0
	bcf	status, 6	;RP1=0, select bank0
	movwf	(?_DecToStr)

	movlw	(AddNewUserAfterAdminConfirm@buff&0ffh)
	movwf	(0+?_DecToStr+04h)
	movlw	(0x1/2)
	movwf	(1+?_DecToStr+04h)
	movlw	(02h)
	bsf	status, 5	;RP0=1, select bank1
	bcf	status, 6	;RP1=0, select bank1
	movwf	(??_AddNewUserAfterAdminConfirm+4)^080h+0
	movf	(??_AddNewUserAfterAdminConfirm+4)^080h+0,w
	bcf	status, 5	;RP0=0, select bank0
	bcf	status, 6	;RP1=0, select bank0
	movwf	0+(?_DecToStr)+06h
	fcall	_DecToStr
	line	221
;main.c: 221: LcdPrint(buff, 1, 12);
	movlw	(AddNewUserAfterAdminConfirm@buff&0ffh)
	bcf	status, 5	;RP0=0, select bank0
	bcf	status, 6	;RP1=0, select bank0
	movwf	(?_LcdPrint)
	movlw	(0x1/2)
	movwf	(?_LcdPrint+1)
	clrf	0+(?_LcdPrint)+02h
	bsf	status,0
	rlf	0+(?_LcdPrint)+02h,f
	movlw	(0Ch)
	bsf	status, 5	;RP0=1, select bank1
	bcf	status, 6	;RP1=0, select bank1
	movwf	(??_AddNewUserAfterAdminConfirm+0)^080h+0
	movf	(??_AddNewUserAfterAdminConfirm+0)^080h+0,w
	bcf	status, 5	;RP0=0, select bank0
	bcf	status, 6	;RP1=0, select bank0
	movwf	0+(?_LcdPrint)+03h
	fcall	_LcdPrint
	line	222
	
l14534:	
;main.c: 222: Delay(2);
	movlw	low(02h)
	bcf	status, 5	;RP0=0, select bank0
	bcf	status, 6	;RP1=0, select bank0
	movwf	(?_Delay)
	movlw	high(02h)
	movwf	((?_Delay))+1
	fcall	_Delay
	line	223
;main.c: 223: }
	goto	l1493
	line	224
	
l1500:	
	
l14536:	
;main.c: 224: else if(AddNewUserResult == 0xFF) return 0;
	bsf	status, 5	;RP0=1, select bank1
	bcf	status, 6	;RP1=0, select bank1
	movf	(AddNewUserAfterAdminConfirm@AddNewUserResult)^080h,w
	xorlw	0FFh
	skipz
	goto	u15011
	goto	u15010
u15011:
	goto	l14542
u15010:
	goto	l1493
	
l14538:	
;	Return value of _AddNewUserAfterAdminConfirm is never used
	goto	l1493
	
l14540:	
	goto	l1493
	line	225
	
l1502:	
	line	227
	
l14542:	
;main.c: 225: else
;main.c: 226: {
;main.c: 227: LcdClear();
	fcall	_LcdClear
	line	228
	
l14544:	
;main.c: 228: LcdPrint("Error In\n User Creation",0,0);
	movlw	low(STR_23|8000h)
	bcf	status, 5	;RP0=0, select bank0
	bcf	status, 6	;RP1=0, select bank0
	movwf	(?_LcdPrint)
	movlw	high(STR_23|8000h)
	movwf	((?_LcdPrint))+1
	clrf	0+(?_LcdPrint)+02h
	clrf	0+(?_LcdPrint)+03h
	fcall	_LcdPrint
	line	229
	
l14546:	
;main.c: 229: Delay(2);
	movlw	low(02h)
	bcf	status, 5	;RP0=0, select bank0
	bcf	status, 6	;RP1=0, select bank0
	movwf	(?_Delay)
	movlw	high(02h)
	movwf	((?_Delay))+1
	fcall	_Delay
	goto	l1493
	line	230
	
l1503:	
	goto	l1493
	
l1501:	
	goto	l1493
	line	231
	
l1499:	
	goto	l1493
	line	232
	
l1497:	
	goto	l1493
	line	233
	
l14548:	
	line	234
;main.c: 230: }
;main.c: 231: }
;main.c: 232: }
;main.c: 233: return 0;
;	Return value of _AddNewUserAfterAdminConfirm is never used
	
l1493:	
	return
	opt stack 0
GLOBAL	__end_of_AddNewUserAfterAdminConfirm
	__end_of_AddNewUserAfterAdminConfirm:
;; =============== function _AddNewUserAfterAdminConfirm ends ============

	signat	_AddNewUserAfterAdminConfirm,89
	global	_AlterAdminUser
psect	text4238,local,class=CODE,delta=2
global __ptext4238
__ptext4238:

;; *************** function _AlterAdminUser *****************
;; Defined at:
;;		line 99 in file "C:\Users\GauravLT\Desktop\Finger Print Sensor\R307\PIC16F877A_R307\main.c"
;; Parameters:    Size  Location     Type
;;		None
;; Auto vars:     Size  Location     Type
;;  NewUserResul    1    2[BANK1 ] unsigned char 
;;  UserNo          1    3[BANK1 ] unsigned char 
;;  result          1    1[BANK1 ] unsigned char 
;;  Create0thPos    1    0[BANK1 ] unsigned char 
;; Return value:  Size  Location     Type
;;                  1    wreg      unsigned char 
;; Registers used:
;;		wreg, fsr0l, fsr0h, status,2, status,0, btemp+1, pclath, cstack
;; Tracked objects:
;;		On entry : 0/0
;;		On exit  : 0/0
;;		Unchanged: 0/0
;; Data sizes:     COMMON   BANK0   BANK1   BANK3   BANK2
;;      Params:         0       0       0       0       0
;;      Locals:         0       0       4       0       0
;;      Temps:          0       1       0       0       0
;;      Totals:         0       1       4       0       0
;;Total ram usage:        5 bytes
;; Hardware stack levels used:    1
;; Hardware stack levels required when called:    7
;; This function calls:
;;		_ee_read
;;		_LcdClear
;;		_LcdPrint
;;		_HiSpeedScan0
;;		_Delay
;;		_DeleteUser
;;		_AddNewUser
;; This function is called by:
;;		_main
;; This function uses a non-reentrant model
;;
psect	text4238
	file	"C:\Users\GauravLT\Desktop\Finger Print Sensor\R307\PIC16F877A_R307\main.c"
	line	99
	global	__size_of_AlterAdminUser
	__size_of_AlterAdminUser	equ	__end_of_AlterAdminUser-_AlterAdminUser
	
_AlterAdminUser:	
	opt	stack 0
; Regs used in _AlterAdminUser: [wreg-fsr0h+status,2+status,0+btemp+1+pclath+cstack]
	line	100
	
l14378:	
;main.c: 100: unsigned char Create0thPositionUser=1;
	bsf	status, 5	;RP0=1, select bank1
	bcf	status, 6	;RP1=0, select bank1
	clrf	(AlterAdminUser@Create0thPositionUser)^080h
	bsf	status,0
	rlf	(AlterAdminUser@Create0thPositionUser)^080h,f
	line	102
	
l14380:	
;main.c: 102: if(ee_read(0x00) == 0x01)
	movlw	(0)
	fcall	_ee_read
	xorlw	01h
	skipz
	goto	u14861
	goto	u14860
u14861:
	goto	l14432
u14860:
	line	104
	
l14382:	
;main.c: 103: {
;main.c: 104: LcdClear();
	fcall	_LcdClear
	line	105
	
l14384:	
;main.c: 105: LcdPrint("Admin Required\nPlace Finger",0,0);
	movlw	low(STR_8|8000h)
	bcf	status, 5	;RP0=0, select bank0
	bcf	status, 6	;RP1=0, select bank0
	movwf	(?_LcdPrint)
	movlw	high(STR_8|8000h)
	movwf	((?_LcdPrint))+1
	clrf	0+(?_LcdPrint)+02h
	clrf	0+(?_LcdPrint)+03h
	fcall	_LcdPrint
	line	106
	
l14386:	
;main.c: 106: Create0thPositionUser = 0;
	bsf	status, 5	;RP0=1, select bank1
	bcf	status, 6	;RP1=0, select bank1
	clrf	(AlterAdminUser@Create0thPositionUser)^080h
	line	109
	
l14388:	
;main.c: 108: unsigned char UserNo;
;main.c: 109: unsigned char result = HiSpeedScan0(&UserNo);
	movlw	(AlterAdminUser@UserNo&0ffh)
	bcf	status, 5	;RP0=0, select bank0
	bcf	status, 6	;RP1=0, select bank0
	movwf	(?_HiSpeedScan0)
	movlw	(0x1/2)
	movwf	(?_HiSpeedScan0+1)
	fcall	_HiSpeedScan0
	bcf	status, 5	;RP0=0, select bank0
	bcf	status, 6	;RP1=0, select bank0
	movwf	(??_AlterAdminUser+0)+0
	movf	(??_AlterAdminUser+0)+0,w
	bsf	status, 5	;RP0=1, select bank1
	bcf	status, 6	;RP1=0, select bank1
	movwf	(AlterAdminUser@result)^080h
	line	110
	
l14390:	
;main.c: 110: if(result == 0xFF) return 0;
	movf	(AlterAdminUser@result)^080h,w
	xorlw	0FFh
	skipz
	goto	u14871
	goto	u14870
u14871:
	goto	l14396
u14870:
	goto	l1478
	
l14392:	
;	Return value of _AlterAdminUser is never used
	goto	l1478
	
l14394:	
	goto	l14432
	line	111
	
l1477:	
	line	113
	
l14396:	
;main.c: 111: else
;main.c: 112: {
;main.c: 113: if(result == 1 && UserNo == 0)
	movf	(AlterAdminUser@result)^080h,w
	xorlw	01h
	skipz
	goto	u14881
	goto	u14880
u14881:
	goto	l14424
u14880:
	
l14398:	
	movf	(AlterAdminUser@UserNo)^080h,f
	skipz
	goto	u14891
	goto	u14890
u14891:
	goto	l14424
u14890:
	line	115
	
l14400:	
;main.c: 114: {
;main.c: 115: LcdClear();
	fcall	_LcdClear
	line	116
	
l14402:	
;main.c: 116: LcdPrint("Admin found",0,0);
	movlw	low(STR_9|8000h)
	bcf	status, 5	;RP0=0, select bank0
	bcf	status, 6	;RP1=0, select bank0
	movwf	(?_LcdPrint)
	movlw	high(STR_9|8000h)
	movwf	((?_LcdPrint))+1
	clrf	0+(?_LcdPrint)+02h
	clrf	0+(?_LcdPrint)+03h
	fcall	_LcdPrint
	line	117
	
l14404:	
;main.c: 117: Delay(2);
	movlw	low(02h)
	bcf	status, 5	;RP0=0, select bank0
	bcf	status, 6	;RP1=0, select bank0
	movwf	(?_Delay)
	movlw	high(02h)
	movwf	((?_Delay))+1
	fcall	_Delay
	line	118
	
l14406:	
;main.c: 118: if(DeleteUser(0x00) == 1)
	movlw	(0)
	fcall	_DeleteUser
	xorlw	01h
	skipz
	goto	u14901
	goto	u14900
u14901:
	goto	l14416
u14900:
	line	120
	
l14408:	
;main.c: 119: {
;main.c: 120: LcdClear();
	fcall	_LcdClear
	line	121
	
l14410:	
;main.c: 121: LcdPrint("Admin Deleted",0,0);
	movlw	low(STR_10|8000h)
	bcf	status, 5	;RP0=0, select bank0
	bcf	status, 6	;RP1=0, select bank0
	movwf	(?_LcdPrint)
	movlw	high(STR_10|8000h)
	movwf	((?_LcdPrint))+1
	clrf	0+(?_LcdPrint)+02h
	clrf	0+(?_LcdPrint)+03h
	fcall	_LcdPrint
	line	122
	
l14412:	
;main.c: 122: Delay(1);
	movlw	low(01h)
	bcf	status, 5	;RP0=0, select bank0
	bcf	status, 6	;RP1=0, select bank0
	movwf	(?_Delay)
	movlw	high(01h)
	movwf	((?_Delay))+1
	fcall	_Delay
	line	123
	
l14414:	
;main.c: 123: Create0thPositionUser = 1;
	bsf	status, 5	;RP0=1, select bank1
	bcf	status, 6	;RP1=0, select bank1
	clrf	(AlterAdminUser@Create0thPositionUser)^080h
	bsf	status,0
	rlf	(AlterAdminUser@Create0thPositionUser)^080h,f
	line	124
;main.c: 124: }
	goto	l14432
	line	125
	
l1481:	
	line	127
	
l14416:	
;main.c: 125: else
;main.c: 126: {
;main.c: 127: LcdClear();
	fcall	_LcdClear
	line	128
	
l14418:	
;main.c: 128: LcdPrint("Can't Delete\n Admin",0,0);
	movlw	low(STR_11|8000h)
	bcf	status, 5	;RP0=0, select bank0
	bcf	status, 6	;RP1=0, select bank0
	movwf	(?_LcdPrint)
	movlw	high(STR_11|8000h)
	movwf	((?_LcdPrint))+1
	clrf	0+(?_LcdPrint)+02h
	clrf	0+(?_LcdPrint)+03h
	fcall	_LcdPrint
	line	129
	
l14420:	
;main.c: 129: Delay(2);
	movlw	low(02h)
	bcf	status, 5	;RP0=0, select bank0
	bcf	status, 6	;RP1=0, select bank0
	movwf	(?_Delay)
	movlw	high(02h)
	movwf	((?_Delay))+1
	fcall	_Delay
	goto	l1478
	line	130
	
l14422:	
;main.c: 130: return 0;
;	Return value of _AlterAdminUser is never used
	goto	l1478
	line	131
	
l1482:	
	line	132
;main.c: 131: }
;main.c: 132: }
	goto	l14432
	line	133
	
l1480:	
	line	135
	
l14424:	
;main.c: 133: else
;main.c: 134: {
;main.c: 135: LcdClear();
	fcall	_LcdClear
	line	136
	
l14426:	
;main.c: 136: LcdPrint("Admin Not\n  found",0,0);
	movlw	low(STR_12|8000h)
	bcf	status, 5	;RP0=0, select bank0
	bcf	status, 6	;RP1=0, select bank0
	movwf	(?_LcdPrint)
	movlw	high(STR_12|8000h)
	movwf	((?_LcdPrint))+1
	clrf	0+(?_LcdPrint)+02h
	clrf	0+(?_LcdPrint)+03h
	fcall	_LcdPrint
	line	137
	
l14428:	
;main.c: 137: Delay(2);
	movlw	low(02h)
	bcf	status, 5	;RP0=0, select bank0
	bcf	status, 6	;RP1=0, select bank0
	movwf	(?_Delay)
	movlw	high(02h)
	movwf	((?_Delay))+1
	fcall	_Delay
	goto	l1478
	line	138
	
l14430:	
;main.c: 138: return 0;
;	Return value of _AlterAdminUser is never used
	goto	l1478
	line	139
	
l1483:	
	goto	l14432
	line	140
	
l1479:	
	goto	l14432
	line	141
	
l1476:	
	line	142
	
l14432:	
;main.c: 139: }
;main.c: 140: }
;main.c: 141: }
;main.c: 142: if(Create0thPositionUser == 1)
	bsf	status, 5	;RP0=1, select bank1
	bcf	status, 6	;RP1=0, select bank1
	movf	(AlterAdminUser@Create0thPositionUser)^080h,w
	xorlw	01h
	skipz
	goto	u14911
	goto	u14910
u14911:
	goto	l1478
u14910:
	line	144
	
l14434:	
;main.c: 143: {
;main.c: 144: LcdClear();
	fcall	_LcdClear
	line	145
	
l14436:	
;main.c: 145: LcdPrint("Plz Register\n new Admin",0,0);
	movlw	low(STR_13|8000h)
	bcf	status, 5	;RP0=0, select bank0
	bcf	status, 6	;RP1=0, select bank0
	movwf	(?_LcdPrint)
	movlw	high(STR_13|8000h)
	movwf	((?_LcdPrint))+1
	clrf	0+(?_LcdPrint)+02h
	clrf	0+(?_LcdPrint)+03h
	fcall	_LcdPrint
	line	146
	
l14438:	
;main.c: 146: Delay(2);
	movlw	low(02h)
	bcf	status, 5	;RP0=0, select bank0
	bcf	status, 6	;RP1=0, select bank0
	movwf	(?_Delay)
	movlw	high(02h)
	movwf	((?_Delay))+1
	fcall	_Delay
	line	147
	
l14440:	
;main.c: 147: LcdClear();
	fcall	_LcdClear
	line	148
	
l14442:	
;main.c: 148: LcdPrint("Place Finger",0,0);
	movlw	low(STR_14|8000h)
	bcf	status, 5	;RP0=0, select bank0
	bcf	status, 6	;RP1=0, select bank0
	movwf	(?_LcdPrint)
	movlw	high(STR_14|8000h)
	movwf	((?_LcdPrint))+1
	clrf	0+(?_LcdPrint)+02h
	clrf	0+(?_LcdPrint)+03h
	fcall	_LcdPrint
	line	149
;main.c: 149: Delay(2);
	movlw	low(02h)
	bcf	status, 5	;RP0=0, select bank0
	bcf	status, 6	;RP1=0, select bank0
	movwf	(?_Delay)
	movlw	high(02h)
	movwf	((?_Delay))+1
	fcall	_Delay
	line	150
	
l14444:	
;main.c: 150: unsigned char NewUserResult = AddNewUser(0x00);
	movlw	(0)
	fcall	_AddNewUser
	bcf	status, 5	;RP0=0, select bank0
	bcf	status, 6	;RP1=0, select bank0
	movwf	(??_AlterAdminUser+0)+0
	movf	(??_AlterAdminUser+0)+0,w
	bsf	status, 5	;RP0=1, select bank1
	bcf	status, 6	;RP1=0, select bank1
	movwf	(AlterAdminUser@NewUserResult)^080h
	line	151
	
l14446:	
;main.c: 151: if(NewUserResult == 1)
	movf	(AlterAdminUser@NewUserResult)^080h,w
	xorlw	01h
	skipz
	goto	u14921
	goto	u14920
u14921:
	goto	l14454
u14920:
	line	153
	
l14448:	
;main.c: 152: {
;main.c: 153: LcdClear();
	fcall	_LcdClear
	line	154
	
l14450:	
;main.c: 154: LcdPrint("Admin \n  Registered",0,0);
	movlw	low(STR_15|8000h)
	bcf	status, 5	;RP0=0, select bank0
	bcf	status, 6	;RP1=0, select bank0
	movwf	(?_LcdPrint)
	movlw	high(STR_15|8000h)
	movwf	((?_LcdPrint))+1
	clrf	0+(?_LcdPrint)+02h
	clrf	0+(?_LcdPrint)+03h
	fcall	_LcdPrint
	line	155
	
l14452:	
;main.c: 155: Delay(2);
	movlw	low(02h)
	bcf	status, 5	;RP0=0, select bank0
	bcf	status, 6	;RP1=0, select bank0
	movwf	(?_Delay)
	movlw	high(02h)
	movwf	((?_Delay))+1
	fcall	_Delay
	line	156
;main.c: 156: }
	goto	l1478
	line	157
	
l1485:	
	
l14454:	
;main.c: 157: else if(NewUserResult == 0xFF) return 0;
	bsf	status, 5	;RP0=1, select bank1
	bcf	status, 6	;RP1=0, select bank1
	movf	(AlterAdminUser@NewUserResult)^080h,w
	xorlw	0FFh
	skipz
	goto	u14931
	goto	u14930
u14931:
	goto	l14460
u14930:
	goto	l1478
	
l14456:	
;	Return value of _AlterAdminUser is never used
	goto	l1478
	
l14458:	
	goto	l1478
	line	158
	
l1487:	
	line	160
	
l14460:	
;main.c: 158: else
;main.c: 159: {
;main.c: 160: LcdClear();
	fcall	_LcdClear
	line	161
	
l14462:	
;main.c: 161: LcdPrint("Error In\n  Registeration",0,0);
	movlw	low(STR_16|8000h)
	bcf	status, 5	;RP0=0, select bank0
	bcf	status, 6	;RP1=0, select bank0
	movwf	(?_LcdPrint)
	movlw	high(STR_16|8000h)
	movwf	((?_LcdPrint))+1
	clrf	0+(?_LcdPrint)+02h
	clrf	0+(?_LcdPrint)+03h
	fcall	_LcdPrint
	line	162
	
l14464:	
;main.c: 162: Delay(2);
	movlw	low(02h)
	bcf	status, 5	;RP0=0, select bank0
	bcf	status, 6	;RP1=0, select bank0
	movwf	(?_Delay)
	movlw	high(02h)
	movwf	((?_Delay))+1
	fcall	_Delay
	goto	l1478
	line	163
	
l1488:	
	goto	l1478
	
l1486:	
	goto	l1478
	line	165
	
l1484:	
	goto	l1478
	line	166
	
l14466:	
	line	167
;main.c: 163: }
;main.c: 165: }
;main.c: 166: return 0;
;	Return value of _AlterAdminUser is never used
	
l1478:	
	return
	opt stack 0
GLOBAL	__end_of_AlterAdminUser
	__end_of_AlterAdminUser:
;; =============== function _AlterAdminUser ends ============

	signat	_AlterAdminUser,89
	global	_ControlAccess
psect	text4239,local,class=CODE,delta=2
global __ptext4239
__ptext4239:

;; *************** function _ControlAccess *****************
;; Defined at:
;;		line 55 in file "C:\Users\GauravLT\Desktop\Finger Print Sensor\R307\PIC16F877A_R307\main.c"
;; Parameters:    Size  Location     Type
;;		None
;; Auto vars:     Size  Location     Type
;;  buff           10    5[BANK1 ] unsigned char [10]
;;  UserNo          1   16[BANK1 ] unsigned char 
;;  result          1   15[BANK1 ] unsigned char 
;; Return value:  Size  Location     Type
;;                  1    wreg      unsigned char 
;; Registers used:
;;		wreg, fsr0l, fsr0h, status,2, status,0, btemp+1, pclath, cstack
;; Tracked objects:
;;		On entry : 0/0
;;		On exit  : 0/0
;;		Unchanged: 0/0
;; Data sizes:     COMMON   BANK0   BANK1   BANK3   BANK2
;;      Params:         0       0       0       0       0
;;      Locals:         0       0      12       0       0
;;      Temps:          0       0       5       0       0
;;      Totals:         0       0      17       0       0
;;Total ram usage:       17 bytes
;; Hardware stack levels used:    1
;; Hardware stack levels required when called:    7
;; This function calls:
;;		_LcdClear
;;		_LcdPrint
;;		_HiSpeedScan0
;;		_memset1
;;		_DecToStr
;;		_Delay
;; This function is called by:
;;		_main
;; This function uses a non-reentrant model
;;
psect	text4239
	file	"C:\Users\GauravLT\Desktop\Finger Print Sensor\R307\PIC16F877A_R307\main.c"
	line	55
	global	__size_of_ControlAccess
	__size_of_ControlAccess	equ	__end_of_ControlAccess-_ControlAccess
	
_ControlAccess:	
	opt	stack 0
; Regs used in _ControlAccess: [wreg-fsr0h+status,2+status,0+btemp+1+pclath+cstack]
	line	56
	
l14336:	
;main.c: 56: unsigned char UserNo=0;
	bsf	status, 5	;RP0=1, select bank1
	bcf	status, 6	;RP1=0, select bank1
	clrf	(ControlAccess@UserNo)^080h
	line	57
;main.c: 57: unsigned char result=0;
	clrf	(ControlAccess@result)^080h
	line	58
;main.c: 58: RB5=0;
	bcf	status, 5	;RP0=0, select bank0
	bcf	status, 6	;RP1=0, select bank0
	bcf	(53/8),(53)&7
	goto	l14338
	line	60
;main.c: 60: while(1)
	
l1465:	
	line	62
	
l14338:	
;main.c: 61: {
;main.c: 62: LcdClear();
	fcall	_LcdClear
	line	63
	
l14340:	
;main.c: 63: LcdPrint("Place Finger", 0,0);
	movlw	low(STR_5|8000h)
	bcf	status, 5	;RP0=0, select bank0
	bcf	status, 6	;RP1=0, select bank0
	movwf	(?_LcdPrint)
	movlw	high(STR_5|8000h)
	movwf	((?_LcdPrint))+1
	clrf	0+(?_LcdPrint)+02h
	clrf	0+(?_LcdPrint)+03h
	fcall	_LcdPrint
	line	64
	
l14342:	
;main.c: 64: result=HiSpeedScan0(&UserNo);
	movlw	(ControlAccess@UserNo&0ffh)
	bcf	status, 5	;RP0=0, select bank0
	bcf	status, 6	;RP1=0, select bank0
	movwf	(?_HiSpeedScan0)
	movlw	(0x1/2)
	movwf	(?_HiSpeedScan0+1)
	fcall	_HiSpeedScan0
	bsf	status, 5	;RP0=1, select bank1
	bcf	status, 6	;RP1=0, select bank1
	movwf	(??_ControlAccess+0)^080h+0
	movf	(??_ControlAccess+0)^080h+0,w
	movwf	(ControlAccess@result)^080h
	line	66
	
l14344:	
;main.c: 66: if(result == 0xFF) break;
	movf	(ControlAccess@result)^080h,w
	xorlw	0FFh
	skipz
	goto	u14831
	goto	u14830
u14831:
	goto	l14350
u14830:
	goto	l1473
	
l14346:	
	goto	l1473
	
l14348:	
	goto	l14338
	line	67
	
l1466:	
	
l14350:	
;main.c: 67: else if(result == 0x01)
	movf	(ControlAccess@result)^080h,w
	xorlw	01h
	skipz
	goto	u14841
	goto	u14840
u14841:
	goto	l14366
u14840:
	line	70
	
l14352:	
;main.c: 68: {
;main.c: 69: unsigned char buff[10];
;main.c: 70: memset1(buff, 0, sizeof(buff));
	movlw	(ControlAccess@buff&0ffh)
	bcf	status, 5	;RP0=0, select bank0
	bcf	status, 6	;RP1=0, select bank0
	movwf	(?_memset1)
	movlw	(0x1/2)
	movwf	(?_memset1+1)
	clrf	0+(?_memset1)+02h
	movlw	low(0Ah)
	movwf	0+(?_memset1)+03h
	movlw	high(0Ah)
	movwf	(0+(?_memset1)+03h)+1
	fcall	_memset1
	line	72
;main.c: 72: LcdClear();
	fcall	_LcdClear
	line	73
	
l14354:	
;main.c: 73: LcdPrint("User Valid\nUser No:", 0,0);
	movlw	low(STR_6|8000h)
	bcf	status, 5	;RP0=0, select bank0
	bcf	status, 6	;RP1=0, select bank0
	movwf	(?_LcdPrint)
	movlw	high(STR_6|8000h)
	movwf	((?_LcdPrint))+1
	clrf	0+(?_LcdPrint)+02h
	clrf	0+(?_LcdPrint)+03h
	fcall	_LcdPrint
	line	74
	
l14356:	
;main.c: 74: DecToStr(UserNo, buff, 2);
	bsf	status, 5	;RP0=1, select bank1
	bcf	status, 6	;RP1=0, select bank1
	movf	(ControlAccess@UserNo)^080h,w
	movwf	(??_ControlAccess+0)^080h+0
	clrf	((??_ControlAccess+0)^080h+0+1)
	clrf	((??_ControlAccess+0)^080h+0+2)
	clrf	((??_ControlAccess+0)^080h+0+3)
	movf	3+(??_ControlAccess+0)^080h+0,w
	bcf	status, 5	;RP0=0, select bank0
	bcf	status, 6	;RP1=0, select bank0
	movwf	(?_DecToStr+3)
	bsf	status, 5	;RP0=1, select bank1
	bcf	status, 6	;RP1=0, select bank1
	movf	2+(??_ControlAccess+0)^080h+0,w
	bcf	status, 5	;RP0=0, select bank0
	bcf	status, 6	;RP1=0, select bank0
	movwf	(?_DecToStr+2)
	bsf	status, 5	;RP0=1, select bank1
	bcf	status, 6	;RP1=0, select bank1
	movf	1+(??_ControlAccess+0)^080h+0,w
	bcf	status, 5	;RP0=0, select bank0
	bcf	status, 6	;RP1=0, select bank0
	movwf	(?_DecToStr+1)
	bsf	status, 5	;RP0=1, select bank1
	bcf	status, 6	;RP1=0, select bank1
	movf	0+(??_ControlAccess+0)^080h+0,w
	bcf	status, 5	;RP0=0, select bank0
	bcf	status, 6	;RP1=0, select bank0
	movwf	(?_DecToStr)

	movlw	(ControlAccess@buff&0ffh)
	movwf	(0+?_DecToStr+04h)
	movlw	(0x1/2)
	movwf	(1+?_DecToStr+04h)
	movlw	(02h)
	bsf	status, 5	;RP0=1, select bank1
	bcf	status, 6	;RP1=0, select bank1
	movwf	(??_ControlAccess+4)^080h+0
	movf	(??_ControlAccess+4)^080h+0,w
	bcf	status, 5	;RP0=0, select bank0
	bcf	status, 6	;RP1=0, select bank0
	movwf	0+(?_DecToStr)+06h
	fcall	_DecToStr
	line	75
;main.c: 75: LcdPrint(buff, 1, 9);
	movlw	(ControlAccess@buff&0ffh)
	bcf	status, 5	;RP0=0, select bank0
	bcf	status, 6	;RP1=0, select bank0
	movwf	(?_LcdPrint)
	movlw	(0x1/2)
	movwf	(?_LcdPrint+1)
	clrf	0+(?_LcdPrint)+02h
	bsf	status,0
	rlf	0+(?_LcdPrint)+02h,f
	movlw	(09h)
	bsf	status, 5	;RP0=1, select bank1
	bcf	status, 6	;RP1=0, select bank1
	movwf	(??_ControlAccess+0)^080h+0
	movf	(??_ControlAccess+0)^080h+0,w
	bcf	status, 5	;RP0=0, select bank0
	bcf	status, 6	;RP1=0, select bank0
	movwf	0+(?_LcdPrint)+03h
	fcall	_LcdPrint
	line	76
	
l14358:	
;main.c: 76: RB1 = 1;
	bcf	status, 5	;RP0=0, select bank0
	bcf	status, 6	;RP1=0, select bank0
	bsf	(49/8),(49)&7
	line	79
	
l14360:	
;main.c: 79: Delay(3);
	movlw	low(03h)
	movwf	(?_Delay)
	movlw	high(03h)
	movwf	((?_Delay))+1
	fcall	_Delay
	line	80
	
l14362:	
;main.c: 80: RB1 = 0;
	bcf	status, 5	;RP0=0, select bank0
	bcf	status, 6	;RP1=0, select bank0
	bcf	(49/8),(49)&7
	line	81
;main.c: 81: break;
	goto	l1473
	line	82
	
l14364:	
;main.c: 82: }
	goto	l14338
	line	83
	
l1469:	
	
l14366:	
;main.c: 83: else if(result == 0x00)
	bsf	status, 5	;RP0=1, select bank1
	bcf	status, 6	;RP1=0, select bank1
	movf	(ControlAccess@result)^080h,f
	skipz
	goto	u14851
	goto	u14850
u14851:
	goto	l14338
u14850:
	line	85
	
l14368:	
;main.c: 84: {
;main.c: 85: LcdClear();
	fcall	_LcdClear
	line	86
	
l14370:	
;main.c: 86: LcdPrint("Invalid User", 0,0);
	movlw	low(STR_7|8000h)
	bcf	status, 5	;RP0=0, select bank0
	bcf	status, 6	;RP1=0, select bank0
	movwf	(?_LcdPrint)
	movlw	high(STR_7|8000h)
	movwf	((?_LcdPrint))+1
	clrf	0+(?_LcdPrint)+02h
	clrf	0+(?_LcdPrint)+03h
	fcall	_LcdPrint
	line	87
	
l14372:	
;main.c: 87: RB5=1;
	bcf	status, 5	;RP0=0, select bank0
	bcf	status, 6	;RP1=0, select bank0
	bsf	(53/8),(53)&7
	line	88
	
l14374:	
;main.c: 88: Delay(2);
	movlw	low(02h)
	movwf	(?_Delay)
	movlw	high(02h)
	movwf	((?_Delay))+1
	fcall	_Delay
	line	90
	
l14376:	
;main.c: 90: RB5=0;
	bcf	status, 5	;RP0=0, select bank0
	bcf	status, 6	;RP1=0, select bank0
	bcf	(53/8),(53)&7
	line	91
;main.c: 91: break;
	goto	l1473
	line	92
	
l1471:	
	goto	l14338
	line	93
	
l1470:	
	goto	l14338
	
l1468:	
	goto	l14338
	
l1472:	
	line	60
	goto	l14338
	
l1467:	
	line	95
;main.c: 92: }
;main.c: 93: }
;main.c: 94: return 0;
;	Return value of _ControlAccess is never used
	
l1473:	
	return
	opt stack 0
GLOBAL	__end_of_ControlAccess
	__end_of_ControlAccess:
;; =============== function _ControlAccess ends ============

	signat	_ControlAccess,89
	global	_EraseAllUsersAfterAdminConfirm
psect	text4240,local,class=CODE,delta=2
global __ptext4240
__ptext4240:

;; *************** function _EraseAllUsersAfterAdminConfirm *****************
;; Defined at:
;;		line 12 in file "C:\Users\GauravLT\Desktop\Finger Print Sensor\R307\PIC16F877A_R307\main.c"
;; Parameters:    Size  Location     Type
;;		None
;; Auto vars:     Size  Location     Type
;;  UserNo          1    2[BANK1 ] unsigned char 
;;  result          1    1[BANK1 ] unsigned char 
;;  isEraseAllUs    1    0[BANK1 ] unsigned char 
;; Return value:  Size  Location     Type
;;                  1    wreg      unsigned char 
;; Registers used:
;;		wreg, fsr0l, fsr0h, status,2, status,0, btemp+1, pclath, cstack
;; Tracked objects:
;;		On entry : 0/0
;;		On exit  : 0/0
;;		Unchanged: 0/0
;; Data sizes:     COMMON   BANK0   BANK1   BANK3   BANK2
;;      Params:         0       0       0       0       0
;;      Locals:         0       0       3       0       0
;;      Temps:          0       1       0       0       0
;;      Totals:         0       1       3       0       0
;;Total ram usage:        4 bytes
;; Hardware stack levels used:    1
;; Hardware stack levels required when called:    7
;; This function calls:
;;		_ee_read
;;		_LcdClear
;;		_LcdPrint
;;		_HiSpeedScan0
;;		_Delay
;;		_EraseAllUsers
;;		_ee_eraseNPos
;;		_ee_write
;; This function is called by:
;;		_main
;; This function uses a non-reentrant model
;;
psect	text4240
	file	"C:\Users\GauravLT\Desktop\Finger Print Sensor\R307\PIC16F877A_R307\main.c"
	line	12
	global	__size_of_EraseAllUsersAfterAdminConfirm
	__size_of_EraseAllUsersAfterAdminConfirm	equ	__end_of_EraseAllUsersAfterAdminConfirm-_EraseAllUsersAfterAdminConfirm
	
_EraseAllUsersAfterAdminConfirm:	
	opt	stack 0
; Regs used in _EraseAllUsersAfterAdminConfirm: [wreg-fsr0h+status,2+status,0+btemp+1+pclath+cstack]
	line	13
	
l14284:	
;main.c: 13: unsigned char isEraseAllUsers=1;
	bsf	status, 5	;RP0=1, select bank1
	bcf	status, 6	;RP1=0, select bank1
	clrf	(EraseAllUsersAfterAdminConfirm@isEraseAllUsers)^080h
	bsf	status,0
	rlf	(EraseAllUsersAfterAdminConfirm@isEraseAllUsers)^080h,f
	line	14
	
l14286:	
;main.c: 14: if(ee_read(0x00) == 0x01)
	movlw	(0)
	fcall	_ee_read
	xorlw	01h
	skipz
	goto	u14781
	goto	u14780
u14781:
	goto	l14322
u14780:
	line	16
	
l14288:	
;main.c: 15: {
;main.c: 16: LcdClear();
	fcall	_LcdClear
	line	17
	
l14290:	
;main.c: 17: LcdPrint("Admin Required\nPlace Finger",0,0);
	movlw	low(STR_1|8000h)
	bcf	status, 5	;RP0=0, select bank0
	bcf	status, 6	;RP1=0, select bank0
	movwf	(?_LcdPrint)
	movlw	high(STR_1|8000h)
	movwf	((?_LcdPrint))+1
	clrf	0+(?_LcdPrint)+02h
	clrf	0+(?_LcdPrint)+03h
	fcall	_LcdPrint
	line	18
	
l14292:	
;main.c: 18: isEraseAllUsers = 0;
	bsf	status, 5	;RP0=1, select bank1
	bcf	status, 6	;RP1=0, select bank1
	clrf	(EraseAllUsersAfterAdminConfirm@isEraseAllUsers)^080h
	line	21
	
l14294:	
;main.c: 20: unsigned char UserNo;
;main.c: 21: unsigned char result = HiSpeedScan0(&UserNo);
	movlw	(EraseAllUsersAfterAdminConfirm@UserNo&0ffh)
	bcf	status, 5	;RP0=0, select bank0
	bcf	status, 6	;RP1=0, select bank0
	movwf	(?_HiSpeedScan0)
	movlw	(0x1/2)
	movwf	(?_HiSpeedScan0+1)
	fcall	_HiSpeedScan0
	bcf	status, 5	;RP0=0, select bank0
	bcf	status, 6	;RP1=0, select bank0
	movwf	(??_EraseAllUsersAfterAdminConfirm+0)+0
	movf	(??_EraseAllUsersAfterAdminConfirm+0)+0,w
	bsf	status, 5	;RP0=1, select bank1
	bcf	status, 6	;RP1=0, select bank1
	movwf	(EraseAllUsersAfterAdminConfirm@result)^080h
	line	22
	
l14296:	
;main.c: 22: if(result == 0xFF) return 0;
	movf	(EraseAllUsersAfterAdminConfirm@result)^080h,w
	xorlw	0FFh
	skipz
	goto	u14791
	goto	u14790
u14791:
	goto	l14302
u14790:
	goto	l1458
	
l14298:	
;	Return value of _EraseAllUsersAfterAdminConfirm is never used
	goto	l1458
	
l14300:	
	goto	l14322
	line	23
	
l1457:	
	line	25
	
l14302:	
;main.c: 23: else
;main.c: 24: {
;main.c: 25: if(result == 1 && UserNo == 0)
	movf	(EraseAllUsersAfterAdminConfirm@result)^080h,w
	xorlw	01h
	skipz
	goto	u14801
	goto	u14800
u14801:
	goto	l14314
u14800:
	
l14304:	
	movf	(EraseAllUsersAfterAdminConfirm@UserNo)^080h,f
	skipz
	goto	u14811
	goto	u14810
u14811:
	goto	l14314
u14810:
	line	27
	
l14306:	
;main.c: 26: {
;main.c: 27: LcdClear();
	fcall	_LcdClear
	line	28
	
l14308:	
;main.c: 28: LcdPrint("Admin found",0,0);
	movlw	low(STR_2|8000h)
	bcf	status, 5	;RP0=0, select bank0
	bcf	status, 6	;RP1=0, select bank0
	movwf	(?_LcdPrint)
	movlw	high(STR_2|8000h)
	movwf	((?_LcdPrint))+1
	clrf	0+(?_LcdPrint)+02h
	clrf	0+(?_LcdPrint)+03h
	fcall	_LcdPrint
	line	29
	
l14310:	
;main.c: 29: Delay(2);
	movlw	low(02h)
	bcf	status, 5	;RP0=0, select bank0
	bcf	status, 6	;RP1=0, select bank0
	movwf	(?_Delay)
	movlw	high(02h)
	movwf	((?_Delay))+1
	fcall	_Delay
	line	30
	
l14312:	
;main.c: 30: isEraseAllUsers = 1;
	bsf	status, 5	;RP0=1, select bank1
	bcf	status, 6	;RP1=0, select bank1
	clrf	(EraseAllUsersAfterAdminConfirm@isEraseAllUsers)^080h
	bsf	status,0
	rlf	(EraseAllUsersAfterAdminConfirm@isEraseAllUsers)^080h,f
	line	31
;main.c: 31: }
	goto	l14322
	line	32
	
l1460:	
	line	34
	
l14314:	
;main.c: 32: else
;main.c: 33: {
;main.c: 34: LcdClear();
	fcall	_LcdClear
	line	35
	
l14316:	
;main.c: 35: LcdPrint("Admin Not\n  found",0,0);
	movlw	low(STR_3|8000h)
	bcf	status, 5	;RP0=0, select bank0
	bcf	status, 6	;RP1=0, select bank0
	movwf	(?_LcdPrint)
	movlw	high(STR_3|8000h)
	movwf	((?_LcdPrint))+1
	clrf	0+(?_LcdPrint)+02h
	clrf	0+(?_LcdPrint)+03h
	fcall	_LcdPrint
	line	36
	
l14318:	
;main.c: 36: Delay(2);
	movlw	low(02h)
	bcf	status, 5	;RP0=0, select bank0
	bcf	status, 6	;RP1=0, select bank0
	movwf	(?_Delay)
	movlw	high(02h)
	movwf	((?_Delay))+1
	fcall	_Delay
	goto	l1458
	line	37
	
l14320:	
;main.c: 37: return 0;
;	Return value of _EraseAllUsersAfterAdminConfirm is never used
	goto	l1458
	line	38
	
l1461:	
	goto	l14322
	line	39
	
l1459:	
	goto	l14322
	line	40
	
l1456:	
	line	41
	
l14322:	
;main.c: 38: }
;main.c: 39: }
;main.c: 40: }
;main.c: 41: if(isEraseAllUsers == 1)
	bsf	status, 5	;RP0=1, select bank1
	bcf	status, 6	;RP1=0, select bank1
	movf	(EraseAllUsersAfterAdminConfirm@isEraseAllUsers)^080h,w
	xorlw	01h
	skipz
	goto	u14821
	goto	u14820
u14821:
	goto	l1458
u14820:
	line	43
	
l14324:	
;main.c: 42: {
;main.c: 43: EraseAllUsers();
	fcall	_EraseAllUsers
	line	44
	
l14326:	
;main.c: 44: ee_eraseNPos(24);
	movlw	(018h)
	fcall	_ee_eraseNPos
	line	45
	
l14328:	
;main.c: 45: ee_write(30,0x00);
	bcf	status, 5	;RP0=0, select bank0
	bcf	status, 6	;RP1=0, select bank0
	clrf	(?_ee_write)
	movlw	(01Eh)
	fcall	_ee_write
	line	47
;main.c: 47: LcdClear();
	fcall	_LcdClear
	line	48
	
l14330:	
;main.c: 48: LcdPrint("All Users\n Deleted",0,0);
	movlw	low(STR_4|8000h)
	bcf	status, 5	;RP0=0, select bank0
	bcf	status, 6	;RP1=0, select bank0
	movwf	(?_LcdPrint)
	movlw	high(STR_4|8000h)
	movwf	((?_LcdPrint))+1
	clrf	0+(?_LcdPrint)+02h
	clrf	0+(?_LcdPrint)+03h
	fcall	_LcdPrint
	line	49
	
l14332:	
;main.c: 49: Delay(2);
	movlw	low(02h)
	bcf	status, 5	;RP0=0, select bank0
	bcf	status, 6	;RP1=0, select bank0
	movwf	(?_Delay)
	movlw	high(02h)
	movwf	((?_Delay))+1
	fcall	_Delay
	goto	l1458
	line	50
	
l1462:	
	goto	l1458
	line	51
	
l14334:	
	line	52
;main.c: 50: }
;main.c: 51: return 0;
;	Return value of _EraseAllUsersAfterAdminConfirm is never used
	
l1458:	
	return
	opt stack 0
GLOBAL	__end_of_EraseAllUsersAfterAdminConfirm
	__end_of_EraseAllUsersAfterAdminConfirm:
;; =============== function _EraseAllUsersAfterAdminConfirm ends ============

	signat	_EraseAllUsersAfterAdminConfirm,89
	global	_menu
psect	text4241,local,class=CODE,delta=2
global __ptext4241
__ptext4241:

;; *************** function _menu *****************
;; Defined at:
;;		line 310 in file "C:\Users\GauravLT\Desktop\Finger Print Sensor\R307\PIC16F877A_R307\main.c"
;; Parameters:    Size  Location     Type
;;  s               2   19[BANK0 ] PTR const unsigned char 
;;		 -> STR_34(29), STR_33(33), STR_32(30), STR_31(30), 
;; Auto vars:     Size  Location     Type
;;  keyHit          1   22[BANK0 ] unsigned char 
;; Return value:  Size  Location     Type
;;                  1    wreg      unsigned char 
;; Registers used:
;;		wreg, fsr0l, fsr0h, status,2, status,0, btemp+1, pclath, cstack
;; Tracked objects:
;;		On entry : 0/0
;;		On exit  : 0/0
;;		Unchanged: 0/0
;; Data sizes:     COMMON   BANK0   BANK1   BANK3   BANK2
;;      Params:         0       2       0       0       0
;;      Locals:         0       1       0       0       0
;;      Temps:          0       1       0       0       0
;;      Totals:         0       4       0       0       0
;;Total ram usage:        4 bytes
;; Hardware stack levels used:    1
;; Hardware stack levels required when called:    6
;; This function calls:
;;		_LcdClear
;;		_LcdPrint
;;		_KeyScan
;;		_IsKeyPending
;;		_GetKey
;; This function is called by:
;;		_main
;; This function uses a non-reentrant model
;;
psect	text4241
	file	"C:\Users\GauravLT\Desktop\Finger Print Sensor\R307\PIC16F877A_R307\main.c"
	line	310
	global	__size_of_menu
	__size_of_menu	equ	__end_of_menu-_menu
	
_menu:	
	opt	stack 1
; Regs used in _menu: [wreg-fsr0h+status,2+status,0+btemp+1+pclath+cstack]
	line	311
	
l14258:	
;main.c: 311: unsigned char keyHit=0xFF;
	movlw	(0FFh)
	bcf	status, 5	;RP0=0, select bank0
	bcf	status, 6	;RP1=0, select bank0
	movwf	(??_menu+0)+0
	movf	(??_menu+0)+0,w
	movwf	(menu@keyHit)
	line	312
	
l14260:	
;main.c: 312: LcdClear();
	fcall	_LcdClear
	line	313
	
l14262:	
;main.c: 313: LcdPrint(s, 0,0);
	bcf	status, 5	;RP0=0, select bank0
	bcf	status, 6	;RP1=0, select bank0
	movf	(menu@s+1),w
	clrf	(?_LcdPrint+1)
	addwf	(?_LcdPrint+1)
	movf	(menu@s),w
	clrf	(?_LcdPrint)
	addwf	(?_LcdPrint)

	clrf	0+(?_LcdPrint)+02h
	clrf	0+(?_LcdPrint)+03h
	fcall	_LcdPrint
	goto	l14264
	line	314
;main.c: 314: while(1)
	
l1529:	
	line	316
	
l14264:	
;main.c: 315: {
;main.c: 316: KeyScan();
	fcall	_KeyScan
	line	317
	
l14266:	
;main.c: 317: if(IsKeyPending())
	fcall	_IsKeyPending
	xorlw	0
	skipnz
	goto	u14741
	goto	u14740
u14741:
	goto	l14264
u14740:
	line	319
	
l14268:	
;main.c: 318: {
;main.c: 319: keyHit = GetKey();
	fcall	_GetKey
	bcf	status, 5	;RP0=0, select bank0
	bcf	status, 6	;RP1=0, select bank0
	movwf	(??_menu+0)+0
	movf	(??_menu+0)+0,w
	movwf	(menu@keyHit)
	line	320
	
l14270:	
;main.c: 320: if(keyHit == '1' || keyHit == '2' || keyHit == '3')
	movf	(menu@keyHit),w
	xorlw	031h
	skipnz
	goto	u14751
	goto	u14750
u14751:
	goto	l14276
u14750:
	
l14272:	
	movf	(menu@keyHit),w
	xorlw	032h
	skipnz
	goto	u14761
	goto	u14760
u14761:
	goto	l14276
u14760:
	
l14274:	
	movf	(menu@keyHit),w
	xorlw	033h
	skipz
	goto	u14771
	goto	u14770
u14771:
	goto	l14264
u14770:
	goto	l14276
	
l1533:	
	line	321
	
l14276:	
;main.c: 321: return keyHit;
	movf	(menu@keyHit),w
	goto	l1534
	
l14278:	
	goto	l1534
	
l1531:	
	goto	l14264
	line	322
	
l1530:	
	goto	l14264
	line	323
	
l1535:	
	line	314
	goto	l14264
	
l1536:	
	line	324
	
l14280:	
;main.c: 322: }
;main.c: 323: }
;main.c: 324: return 0;
	movlw	(0)
	goto	l1534
	
l14282:	
	line	325
	
l1534:	
	return
	opt stack 0
GLOBAL	__end_of_menu
	__end_of_menu:
;; =============== function _menu ends ============

	signat	_menu,4217
	global	_AddNewUser
psect	text4242,local,class=CODE,delta=2
global __ptext4242
__ptext4242:

;; *************** function _AddNewUser *****************
;; Defined at:
;;		line 450 in file "C:\Users\GauravLT\Desktop\Finger Print Sensor\R307\PIC16F877A_R307\FingerPrintSensor_R307.c"
;; Parameters:    Size  Location     Type
;;  position        1    wreg     unsigned char 
;; Auto vars:     Size  Location     Type
;;  position        1   68[BANK0 ] unsigned char 
;;  scanResult      1   69[BANK0 ] unsigned char 
;; Return value:  Size  Location     Type
;;                  1    wreg      unsigned char 
;; Registers used:
;;		wreg, fsr0l, fsr0h, status,2, status,0, pclath, cstack
;; Tracked objects:
;;		On entry : 0/0
;;		On exit  : 0/0
;;		Unchanged: 0/0
;; Data sizes:     COMMON   BANK0   BANK1   BANK3   BANK2
;;      Params:         0       0       0       0       0
;;      Locals:         0       2       0       0       0
;;      Temps:          0       1       0       0       0
;;      Totals:         0       3       0       0       0
;;Total ram usage:        3 bytes
;; Hardware stack levels used:    1
;; Hardware stack levels required when called:    6
;; This function calls:
;;		_KeyScan
;;		_IsKeyPending
;;		_GetKey
;;		_ScanForImage
;;		_GenCharacterFileFromImage
;;		_AddUserA
;;		_AddUserB
;;		_AddUserC
;;		_reserveEElocation
;; This function is called by:
;;		_AlterAdminUser
;;		_AddNewUserAfterAdminConfirm
;; This function uses a non-reentrant model
;;
psect	text4242
	file	"C:\Users\GauravLT\Desktop\Finger Print Sensor\R307\PIC16F877A_R307\FingerPrintSensor_R307.c"
	line	450
	global	__size_of_AddNewUser
	__size_of_AddNewUser	equ	__end_of_AddNewUser-_AddNewUser
	
_AddNewUser:	
	opt	stack 0
; Regs used in _AddNewUser: [wreg-fsr0h+status,2+status,0+pclath+cstack]
;AddNewUser@position stored from wreg
	line	474
	bcf	status, 5	;RP0=0, select bank0
	bcf	status, 6	;RP1=0, select bank0
	movwf	(AddNewUser@position)
	
l14210:	
;FingerPrintSensor_R307.c: 474: unsigned char scanResult=0xFF;
	movlw	(0FFh)
	movwf	(??_AddNewUser+0)+0
	movf	(??_AddNewUser+0)+0,w
	movwf	(AddNewUser@scanResult)
	goto	l14212
	line	476
;FingerPrintSensor_R307.c: 476: while(1)
	
l3198:	
	line	478
	
l14212:	
;FingerPrintSensor_R307.c: 477: {
;FingerPrintSensor_R307.c: 478: KeyScan();
	fcall	_KeyScan
	line	479
	
l14214:	
;FingerPrintSensor_R307.c: 479: if(IsKeyPending())
	fcall	_IsKeyPending
	xorlw	0
	skipnz
	goto	u14671
	goto	u14670
u14671:
	goto	l14222
u14670:
	line	481
	
l14216:	
;FingerPrintSensor_R307.c: 480: {
;FingerPrintSensor_R307.c: 481: if(GetKey() == '3') return 0xFF;
	fcall	_GetKey
	xorlw	033h
	skipz
	goto	u14681
	goto	u14680
u14681:
	goto	l14222
u14680:
	
l14218:	
	movlw	(0FFh)
	goto	l3201
	
l14220:	
	goto	l3201
	
l3200:	
	goto	l14222
	line	482
	
l3199:	
	line	483
	
l14222:	
;FingerPrintSensor_R307.c: 482: }
;FingerPrintSensor_R307.c: 483: scanResult = ScanForImage();
	fcall	_ScanForImage
	bcf	status, 5	;RP0=0, select bank0
	bcf	status, 6	;RP1=0, select bank0
	movwf	(??_AddNewUser+0)+0
	movf	(??_AddNewUser+0)+0,w
	movwf	(AddNewUser@scanResult)
	line	484
	
l14224:	
;FingerPrintSensor_R307.c: 484: if(scanResult == 1)
	movf	(AddNewUser@scanResult),w
	xorlw	01h
	skipz
	goto	u14691
	goto	u14690
u14691:
	goto	l14212
u14690:
	line	486
	
l14226:	
;FingerPrintSensor_R307.c: 485: {
;FingerPrintSensor_R307.c: 486: GenCharacterFileFromImage();
	fcall	_GenCharacterFileFromImage
	line	487
;FingerPrintSensor_R307.c: 487: while(1)
	
l3203:	
	line	489
;FingerPrintSensor_R307.c: 488: {
;FingerPrintSensor_R307.c: 489: KeyScan();
	fcall	_KeyScan
	line	490
	
l14228:	
;FingerPrintSensor_R307.c: 490: if(IsKeyPending())
	fcall	_IsKeyPending
	xorlw	0
	skipnz
	goto	u14701
	goto	u14700
u14701:
	goto	l14236
u14700:
	line	492
	
l14230:	
;FingerPrintSensor_R307.c: 491: {
;FingerPrintSensor_R307.c: 492: if(GetKey() == '3') return 0xFF;
	fcall	_GetKey
	xorlw	033h
	skipz
	goto	u14711
	goto	u14710
u14711:
	goto	l14236
u14710:
	
l14232:	
	movlw	(0FFh)
	goto	l3201
	
l14234:	
	goto	l3201
	
l3205:	
	goto	l14236
	line	493
	
l3204:	
	line	494
	
l14236:	
;FingerPrintSensor_R307.c: 493: }
;FingerPrintSensor_R307.c: 494: scanResult = ScanForImage();
	fcall	_ScanForImage
	bcf	status, 5	;RP0=0, select bank0
	bcf	status, 6	;RP1=0, select bank0
	movwf	(??_AddNewUser+0)+0
	movf	(??_AddNewUser+0)+0,w
	movwf	(AddNewUser@scanResult)
	line	495
	
l14238:	
;FingerPrintSensor_R307.c: 495: if(scanResult == 1)
	movf	(AddNewUser@scanResult),w
	xorlw	01h
	skipz
	goto	u14721
	goto	u14720
u14721:
	goto	l3203
u14720:
	line	497
	
l14240:	
;FingerPrintSensor_R307.c: 496: {
;FingerPrintSensor_R307.c: 497: AddUserA();
	fcall	_AddUserA
	line	498
;FingerPrintSensor_R307.c: 498: AddUserB();
	fcall	_AddUserB
	line	499
;FingerPrintSensor_R307.c: 499: if(AddUserC(position) == 1)
	bcf	status, 5	;RP0=0, select bank0
	bcf	status, 6	;RP1=0, select bank0
	movf	(AddNewUser@position),w
	fcall	_AddUserC
	xorlw	01h
	skipz
	goto	u14731
	goto	u14730
u14731:
	goto	l14250
u14730:
	line	501
	
l14242:	
;FingerPrintSensor_R307.c: 500: {
;FingerPrintSensor_R307.c: 501: reserveEElocation(position);
	bcf	status, 5	;RP0=0, select bank0
	bcf	status, 6	;RP1=0, select bank0
	movf	(AddNewUser@position),w
	fcall	_reserveEElocation
	line	502
	
l14244:	
;FingerPrintSensor_R307.c: 502: return 1;
	movlw	(01h)
	goto	l3201
	
l14246:	
	goto	l3201
	line	503
	
l14248:	
;FingerPrintSensor_R307.c: 503: }
	goto	l3203
	line	504
	
l3207:	
	
l14250:	
;FingerPrintSensor_R307.c: 504: else return 0;
	movlw	(0)
	goto	l3201
	
l14252:	
	goto	l3201
	
l3208:	
	goto	l3203
	line	505
	
l3206:	
	goto	l3203
	line	506
	
l3209:	
	line	487
	goto	l3203
	
l3210:	
	goto	l14212
	line	507
	
l3202:	
	goto	l14212
	line	508
	
l3211:	
	line	476
	goto	l14212
	
l3212:	
	line	509
	
l14254:	
;FingerPrintSensor_R307.c: 505: }
;FingerPrintSensor_R307.c: 506: }
;FingerPrintSensor_R307.c: 507: }
;FingerPrintSensor_R307.c: 508: }
;FingerPrintSensor_R307.c: 509: return 0;
	movlw	(0)
	goto	l3201
	
l14256:	
	line	510
	
l3201:	
	return
	opt stack 0
GLOBAL	__end_of_AddNewUser
	__end_of_AddNewUser:
;; =============== function _AddNewUser ends ============

	signat	_AddNewUser,4217
	global	_HiSpeedScan0
psect	text4243,local,class=CODE,delta=2
global __ptext4243
__ptext4243:

;; *************** function _HiSpeedScan0 *****************
;; Defined at:
;;		line 298 in file "C:\Users\GauravLT\Desktop\Finger Print Sensor\R307\PIC16F877A_R307\FingerPrintSensor_R307.c"
;; Parameters:    Size  Location     Type
;;  UserNo          2   73[BANK0 ] PTR unsigned char 
;;		 -> DeleteUserAfterAdminConfirm@UserNo(1), AddNewUserAfterAdminConfirm@UserNo(1), AlterAdminUser@UserNo(1), ControlAccess@UserNo(1), 
;;		 -> EraseAllUsersAfterAdminConfirm@UserNo(1), 
;; Auto vars:     Size  Location     Type
;;  scanResult      1   76[BANK0 ] unsigned char 
;; Return value:  Size  Location     Type
;;                  1    wreg      unsigned char 
;; Registers used:
;;		wreg, fsr0l, fsr0h, status,2, status,0, pclath, cstack
;; Tracked objects:
;;		On entry : 0/0
;;		On exit  : 0/0
;;		Unchanged: 0/0
;; Data sizes:     COMMON   BANK0   BANK1   BANK3   BANK2
;;      Params:         0       2       0       0       0
;;      Locals:         0       1       0       0       0
;;      Temps:          0       1       0       0       0
;;      Totals:         0       4       0       0       0
;;Total ram usage:        4 bytes
;; Hardware stack levels used:    1
;; Hardware stack levels required when called:    6
;; This function calls:
;;		_KeyScan
;;		_IsKeyPending
;;		_GetKey
;;		_ScanForImage
;;		_GenCharacterFileFromImage
;;		_HiSpeedScan
;; This function is called by:
;;		_EraseAllUsersAfterAdminConfirm
;;		_ControlAccess
;;		_AlterAdminUser
;;		_AddNewUserAfterAdminConfirm
;;		_DeleteUserAfterAdminConfirm
;; This function uses a non-reentrant model
;;
psect	text4243
	file	"C:\Users\GauravLT\Desktop\Finger Print Sensor\R307\PIC16F877A_R307\FingerPrintSensor_R307.c"
	line	298
	global	__size_of_HiSpeedScan0
	__size_of_HiSpeedScan0	equ	__end_of_HiSpeedScan0-_HiSpeedScan0
	
_HiSpeedScan0:	
	opt	stack 0
; Regs used in _HiSpeedScan0: [wreg-fsr0h+status,2+status,0+pclath+cstack]
	line	299
	
l14184:	
;FingerPrintSensor_R307.c: 299: unsigned char scanResult=0xFF;
	movlw	(0FFh)
	bcf	status, 5	;RP0=0, select bank0
	bcf	status, 6	;RP1=0, select bank0
	movwf	(??_HiSpeedScan0+0)+0
	movf	(??_HiSpeedScan0+0)+0,w
	movwf	(HiSpeedScan0@scanResult)
	goto	l14186
	line	301
;FingerPrintSensor_R307.c: 301: while(1)
	
l3132:	
	line	303
	
l14186:	
;FingerPrintSensor_R307.c: 302: {
;FingerPrintSensor_R307.c: 303: KeyScan();
	fcall	_KeyScan
	line	304
	
l14188:	
;FingerPrintSensor_R307.c: 304: if(IsKeyPending())
	fcall	_IsKeyPending
	xorlw	0
	skipnz
	goto	u14631
	goto	u14630
u14631:
	goto	l14196
u14630:
	line	306
	
l14190:	
;FingerPrintSensor_R307.c: 305: {
;FingerPrintSensor_R307.c: 306: if(GetKey() == '3') return 0xFF;
	fcall	_GetKey
	xorlw	033h
	skipz
	goto	u14641
	goto	u14640
u14641:
	goto	l14196
u14640:
	
l14192:	
	movlw	(0FFh)
	goto	l3135
	
l14194:	
	goto	l3135
	
l3134:	
	goto	l14196
	line	307
	
l3133:	
	line	308
	
l14196:	
;FingerPrintSensor_R307.c: 307: }
;FingerPrintSensor_R307.c: 308: scanResult = ScanForImage();
	fcall	_ScanForImage
	bcf	status, 5	;RP0=0, select bank0
	bcf	status, 6	;RP1=0, select bank0
	movwf	(??_HiSpeedScan0+0)+0
	movf	(??_HiSpeedScan0+0)+0,w
	movwf	(HiSpeedScan0@scanResult)
	line	309
	
l14198:	
;FingerPrintSensor_R307.c: 309: if(scanResult == 1)
	movf	(HiSpeedScan0@scanResult),w
	xorlw	01h
	skipz
	goto	u14651
	goto	u14650
u14651:
	goto	l14186
u14650:
	line	311
	
l14200:	
;FingerPrintSensor_R307.c: 310: {
;FingerPrintSensor_R307.c: 311: if(GenCharacterFileFromImage())
	fcall	_GenCharacterFileFromImage
	xorlw	0
	skipnz
	goto	u14661
	goto	u14660
u14661:
	goto	l14186
u14660:
	line	313
	
l14202:	
;FingerPrintSensor_R307.c: 312: {
;FingerPrintSensor_R307.c: 313: return HiSpeedScan(UserNo);
	bcf	status, 5	;RP0=0, select bank0
	bcf	status, 6	;RP1=0, select bank0
	movf	(HiSpeedScan0@UserNo+1),w
	clrf	(?_HiSpeedScan+1)
	addwf	(?_HiSpeedScan+1)
	movf	(HiSpeedScan0@UserNo),w
	clrf	(?_HiSpeedScan)
	addwf	(?_HiSpeedScan)

	fcall	_HiSpeedScan
	goto	l3135
	
l14204:	
	goto	l3135
	line	326
	
l3137:	
	goto	l14186
	line	327
	
l3136:	
	goto	l14186
	line	328
	
l3138:	
	line	301
	goto	l14186
	
l3139:	
	line	329
	
l14206:	
;FingerPrintSensor_R307.c: 326: }
;FingerPrintSensor_R307.c: 327: }
;FingerPrintSensor_R307.c: 328: }
;FingerPrintSensor_R307.c: 329: return 0;
	movlw	(0)
	goto	l3135
	
l14208:	
	line	330
	
l3135:	
	return
	opt stack 0
GLOBAL	__end_of_HiSpeedScan0
	__end_of_HiSpeedScan0:
;; =============== function _HiSpeedScan0 ends ============

	signat	_HiSpeedScan0,4217
	global	_AddUserC
psect	text4244,local,class=CODE,delta=2
global __ptext4244
__ptext4244:

;; *************** function _AddUserC *****************
;; Defined at:
;;		line 435 in file "C:\Users\GauravLT\Desktop\Finger Print Sensor\R307\PIC16F877A_R307\FingerPrintSensor_R307.c"
;; Parameters:    Size  Location     Type
;;  position        1    wreg     unsigned char 
;; Auto vars:     Size  Location     Type
;;  position        1   64[BANK0 ] unsigned char 
;;  contentData     4   60[BANK0 ] unsigned char [4]
;;  confirmation    1   66[BANK0 ] unsigned char 
;;  dataOut         1   65[BANK0 ] unsigned char 
;; Return value:  Size  Location     Type
;;                  1    wreg      unsigned char 
;; Registers used:
;;		wreg, fsr0l, fsr0h, status,2, status,0, pclath, cstack
;; Tracked objects:
;;		On entry : 0/0
;;		On exit  : 0/0
;;		Unchanged: 0/0
;; Data sizes:     COMMON   BANK0   BANK1   BANK3   BANK2
;;      Params:         0       0       0       0       0
;;      Locals:         0       7       0       0       0
;;      Temps:          0       3       0       0       0
;;      Totals:         0      10       0       0       0
;;Total ram usage:       10 bytes
;; Hardware stack levels used:    1
;; Hardware stack levels required when called:    5
;; This function calls:
;;		_ClearUartBuffer
;;		_sendPackage
;;		_FillUpResponse
;; This function is called by:
;;		_AddNewUser
;; This function uses a non-reentrant model
;;
psect	text4244
	file	"C:\Users\GauravLT\Desktop\Finger Print Sensor\R307\PIC16F877A_R307\FingerPrintSensor_R307.c"
	line	435
	global	__size_of_AddUserC
	__size_of_AddUserC	equ	__end_of_AddUserC-_AddUserC
	
_AddUserC:	
	opt	stack 0
; Regs used in _AddUserC: [wreg-fsr0h+status,2+status,0+pclath+cstack]
;AddUserC@position stored from wreg
	line	436
	bcf	status, 5	;RP0=0, select bank0
	bcf	status, 6	;RP1=0, select bank0
	movwf	(AddUserC@position)
	
l14166:	
;FingerPrintSensor_R307.c: 436: unsigned char dataOut[]={0xFF};
	bsf	status, 5	;RP0=1, select bank1
	bcf	status, 6	;RP1=0, select bank1
	movf	(AddUserC@F1346)^080h,w
	bcf	status, 5	;RP0=0, select bank0
	bcf	status, 6	;RP1=0, select bank0
	movwf	(??_AddUserC+0)+0
	movf	(??_AddUserC+0)+0,w
	movwf	(AddUserC@dataOut)
	line	437
;FingerPrintSensor_R307.c: 437: unsigned char confirmationCode=0xFF;
	movlw	(0FFh)
	movwf	(??_AddUserC+0)+0
	movf	(??_AddUserC+0)+0,w
	movwf	(AddUserC@confirmationCode)
	line	438
;FingerPrintSensor_R307.c: 438: unsigned char contentData[]={0x02, 0x00, 0x00, 0x00};
	bsf	status, 5	;RP0=1, select bank1
	bcf	status, 6	;RP1=0, select bank1
	movf	(AddUserC@F1349+3)^080h,w
	bcf	status, 5	;RP0=0, select bank0
	bcf	status, 6	;RP1=0, select bank0
	movwf	(AddUserC@contentData+3)
	bsf	status, 5	;RP0=1, select bank1
	bcf	status, 6	;RP1=0, select bank1
	movf	(AddUserC@F1349+2)^080h,w
	bcf	status, 5	;RP0=0, select bank0
	bcf	status, 6	;RP1=0, select bank0
	movwf	(AddUserC@contentData+2)
	bsf	status, 5	;RP0=1, select bank1
	bcf	status, 6	;RP1=0, select bank1
	movf	(AddUserC@F1349+1)^080h,w
	bcf	status, 5	;RP0=0, select bank0
	bcf	status, 6	;RP1=0, select bank0
	movwf	(AddUserC@contentData+1)
	bsf	status, 5	;RP0=1, select bank1
	bcf	status, 6	;RP1=0, select bank1
	movf	(AddUserC@F1349)^080h,w
	bcf	status, 5	;RP0=0, select bank0
	bcf	status, 6	;RP1=0, select bank0
	movwf	(AddUserC@contentData)

	line	439
;FingerPrintSensor_R307.c: 439: contentData[2] = position;
	movf	(AddUserC@position),w
	movwf	(??_AddUserC+0)+0
	movf	(??_AddUserC+0)+0,w
	movwf	0+(AddUserC@contentData)+02h
	line	441
	
l14168:	
;FingerPrintSensor_R307.c: 441: ClearUartBuffer();
	fcall	_ClearUartBuffer
	line	442
	
l14170:	
;FingerPrintSensor_R307.c: 442: sendPackage(pCmd, 0x06, 0x06, contentData);
	movlw	(06h)
	bcf	status, 5	;RP0=0, select bank0
	bcf	status, 6	;RP1=0, select bank0
	movwf	(??_AddUserC+0)+0
	movf	(??_AddUserC+0)+0,w
	movwf	(?_sendPackage)
	movlw	(06h)
	movwf	(??_AddUserC+1)+0
	movf	(??_AddUserC+1)+0,w
	movwf	0+(?_sendPackage)+01h
	movlw	(AddUserC@contentData)&0ffh
	movwf	(??_AddUserC+2)+0
	movf	(??_AddUserC+2)+0,w
	movwf	(0+?_sendPackage+02h)
	movlw	(01h)
	fcall	_sendPackage
	line	443
	
l14172:	
;FingerPrintSensor_R307.c: 443: if(FillUpResponse(dataOut, &confirmationCode) )
	movlw	(AddUserC@confirmationCode)&0ffh
	bcf	status, 5	;RP0=0, select bank0
	bcf	status, 6	;RP1=0, select bank0
	movwf	(??_AddUserC+0)+0
	movf	(??_AddUserC+0)+0,w
	movwf	(?_FillUpResponse)
	movlw	(AddUserC@dataOut)&0ffh
	fcall	_FillUpResponse
	xorlw	0
	skipnz
	goto	u14611
	goto	u14610
u14611:
	goto	l14180
u14610:
	line	445
	
l14174:	
;FingerPrintSensor_R307.c: 444: {
;FingerPrintSensor_R307.c: 445: if(confirmationCode == 0x00) return 1;
	bcf	status, 5	;RP0=0, select bank0
	bcf	status, 6	;RP1=0, select bank0
	movf	(AddUserC@confirmationCode),f
	skipz
	goto	u14621
	goto	u14620
u14621:
	goto	l14180
u14620:
	
l14176:	
	movlw	(01h)
	goto	l3195
	
l14178:	
	goto	l3195
	
l3194:	
	goto	l14180
	line	446
	
l3193:	
	line	447
	
l14180:	
;FingerPrintSensor_R307.c: 446: }
;FingerPrintSensor_R307.c: 447: return 0;
	movlw	(0)
	goto	l3195
	
l14182:	
	line	448
	
l3195:	
	return
	opt stack 0
GLOBAL	__end_of_AddUserC
	__end_of_AddUserC:
;; =============== function _AddUserC ends ============

	signat	_AddUserC,4217
	global	_AddUserB
psect	text4245,local,class=CODE,delta=2
global __ptext4245
__ptext4245:

;; *************** function _AddUserB *****************
;; Defined at:
;;		line 421 in file "C:\Users\GauravLT\Desktop\Finger Print Sensor\R307\PIC16F877A_R307\FingerPrintSensor_R307.c"
;; Parameters:    Size  Location     Type
;;		None
;; Auto vars:     Size  Location     Type
;;  confirmation    1   62[BANK0 ] unsigned char 
;;  contentData     1   61[BANK0 ] unsigned char 
;;  dataOut         1   60[BANK0 ] unsigned char 
;; Return value:  Size  Location     Type
;;                  1    wreg      unsigned char 
;; Registers used:
;;		wreg, fsr0l, fsr0h, status,2, status,0, pclath, cstack
;; Tracked objects:
;;		On entry : 0/0
;;		On exit  : 0/0
;;		Unchanged: 0/0
;; Data sizes:     COMMON   BANK0   BANK1   BANK3   BANK2
;;      Params:         0       0       0       0       0
;;      Locals:         0       3       0       0       0
;;      Temps:          0       3       0       0       0
;;      Totals:         0       6       0       0       0
;;Total ram usage:        6 bytes
;; Hardware stack levels used:    1
;; Hardware stack levels required when called:    5
;; This function calls:
;;		_ClearUartBuffer
;;		_sendPackage
;;		_FillUpResponse
;; This function is called by:
;;		_AddNewUser
;; This function uses a non-reentrant model
;;
psect	text4245
	file	"C:\Users\GauravLT\Desktop\Finger Print Sensor\R307\PIC16F877A_R307\FingerPrintSensor_R307.c"
	line	421
	global	__size_of_AddUserB
	__size_of_AddUserB	equ	__end_of_AddUserB-_AddUserB
	
_AddUserB:	
	opt	stack 0
; Regs used in _AddUserB: [wreg-fsr0h+status,2+status,0+pclath+cstack]
	line	422
	
l14154:	
;FingerPrintSensor_R307.c: 422: unsigned char dataOut[]={0xFF};
	bsf	status, 5	;RP0=1, select bank1
	bcf	status, 6	;RP1=0, select bank1
	movf	(AddUserB@F1340)^080h,w
	bcf	status, 5	;RP0=0, select bank0
	bcf	status, 6	;RP1=0, select bank0
	movwf	(??_AddUserB+0)+0
	movf	(??_AddUserB+0)+0,w
	movwf	(AddUserB@dataOut)
	line	423
;FingerPrintSensor_R307.c: 423: unsigned char confirmationCode=0xFF;
	movlw	(0FFh)
	movwf	(??_AddUserB+0)+0
	movf	(??_AddUserB+0)+0,w
	movwf	(AddUserB@confirmationCode)
	line	424
;FingerPrintSensor_R307.c: 424: unsigned char contentData[]={0x05};
	bsf	status, 5	;RP0=1, select bank1
	bcf	status, 6	;RP1=0, select bank1
	movf	(AddUserB@F1343)^080h,w
	bcf	status, 5	;RP0=0, select bank0
	bcf	status, 6	;RP1=0, select bank0
	movwf	(??_AddUserB+0)+0
	movf	(??_AddUserB+0)+0,w
	movwf	(AddUserB@contentData)
	line	426
	
l14156:	
;FingerPrintSensor_R307.c: 426: ClearUartBuffer();
	fcall	_ClearUartBuffer
	line	427
	
l14158:	
;FingerPrintSensor_R307.c: 427: sendPackage(pCmd, 0x03, 0x05, contentData);
	movlw	(03h)
	bcf	status, 5	;RP0=0, select bank0
	bcf	status, 6	;RP1=0, select bank0
	movwf	(??_AddUserB+0)+0
	movf	(??_AddUserB+0)+0,w
	movwf	(?_sendPackage)
	movlw	(05h)
	movwf	(??_AddUserB+1)+0
	movf	(??_AddUserB+1)+0,w
	movwf	0+(?_sendPackage)+01h
	movlw	(AddUserB@contentData)&0ffh
	movwf	(??_AddUserB+2)+0
	movf	(??_AddUserB+2)+0,w
	movwf	(0+?_sendPackage+02h)
	movlw	(01h)
	fcall	_sendPackage
	line	428
	
l14160:	
;FingerPrintSensor_R307.c: 428: if(FillUpResponse(dataOut, &confirmationCode) )
	movlw	(AddUserB@confirmationCode)&0ffh
	bcf	status, 5	;RP0=0, select bank0
	bcf	status, 6	;RP1=0, select bank0
	movwf	(??_AddUserB+0)+0
	movf	(??_AddUserB+0)+0,w
	movwf	(?_FillUpResponse)
	movlw	(AddUserB@dataOut)&0ffh
	fcall	_FillUpResponse
	goto	l3186
	line	430
	
l14162:	
	goto	l3186
	
l14164:	
;	Return value of _AddUserB is never used
	goto	l3186
	
l3185:	
	goto	l3186
	line	431
	
l3184:	
	line	433
;FingerPrintSensor_R307.c: 431: }
;FingerPrintSensor_R307.c: 432: return 0;
;	Return value of _AddUserB is never used
	
l3186:	
	return
	opt stack 0
GLOBAL	__end_of_AddUserB
	__end_of_AddUserB:
;; =============== function _AddUserB ends ============

	signat	_AddUserB,89
	global	_AddUserA
psect	text4246,local,class=CODE,delta=2
global __ptext4246
__ptext4246:

;; *************** function _AddUserA *****************
;; Defined at:
;;		line 407 in file "C:\Users\GauravLT\Desktop\Finger Print Sensor\R307\PIC16F877A_R307\FingerPrintSensor_R307.c"
;; Parameters:    Size  Location     Type
;;		None
;; Auto vars:     Size  Location     Type
;;  confirmation    1   62[BANK0 ] unsigned char 
;;  contentData     1   61[BANK0 ] unsigned char 
;;  dataOut         1   60[BANK0 ] unsigned char 
;; Return value:  Size  Location     Type
;;                  1    wreg      unsigned char 
;; Registers used:
;;		wreg, fsr0l, fsr0h, status,2, status,0, pclath, cstack
;; Tracked objects:
;;		On entry : 0/0
;;		On exit  : 0/0
;;		Unchanged: 0/0
;; Data sizes:     COMMON   BANK0   BANK1   BANK3   BANK2
;;      Params:         0       0       0       0       0
;;      Locals:         0       3       0       0       0
;;      Temps:          0       3       0       0       0
;;      Totals:         0       6       0       0       0
;;Total ram usage:        6 bytes
;; Hardware stack levels used:    1
;; Hardware stack levels required when called:    5
;; This function calls:
;;		_ClearUartBuffer
;;		_sendPackage
;;		_FillUpResponse
;; This function is called by:
;;		_AddNewUser
;; This function uses a non-reentrant model
;;
psect	text4246
	file	"C:\Users\GauravLT\Desktop\Finger Print Sensor\R307\PIC16F877A_R307\FingerPrintSensor_R307.c"
	line	407
	global	__size_of_AddUserA
	__size_of_AddUserA	equ	__end_of_AddUserA-_AddUserA
	
_AddUserA:	
	opt	stack 0
; Regs used in _AddUserA: [wreg-fsr0h+status,2+status,0+pclath+cstack]
	line	408
	
l14142:	
;FingerPrintSensor_R307.c: 408: unsigned char dataOut[]={0xFF};
	bsf	status, 5	;RP0=1, select bank1
	bcf	status, 6	;RP1=0, select bank1
	movf	(AddUserA@F1335)^080h,w
	bcf	status, 5	;RP0=0, select bank0
	bcf	status, 6	;RP1=0, select bank0
	movwf	(??_AddUserA+0)+0
	movf	(??_AddUserA+0)+0,w
	movwf	(AddUserA@dataOut)
	line	409
;FingerPrintSensor_R307.c: 409: unsigned char confirmationCode=0xFF;
	movlw	(0FFh)
	movwf	(??_AddUserA+0)+0
	movf	(??_AddUserA+0)+0,w
	movwf	(AddUserA@confirmationCode)
	line	410
;FingerPrintSensor_R307.c: 410: unsigned char contentData[]={0x02};
	bsf	status, 5	;RP0=1, select bank1
	bcf	status, 6	;RP1=0, select bank1
	movf	(AddUserA@F1338)^080h,w
	bcf	status, 5	;RP0=0, select bank0
	bcf	status, 6	;RP1=0, select bank0
	movwf	(??_AddUserA+0)+0
	movf	(??_AddUserA+0)+0,w
	movwf	(AddUserA@contentData)
	line	412
	
l14144:	
;FingerPrintSensor_R307.c: 412: ClearUartBuffer();
	fcall	_ClearUartBuffer
	line	413
	
l14146:	
;FingerPrintSensor_R307.c: 413: sendPackage(pCmd, 0x04, 0x02, contentData);
	movlw	(04h)
	bcf	status, 5	;RP0=0, select bank0
	bcf	status, 6	;RP1=0, select bank0
	movwf	(??_AddUserA+0)+0
	movf	(??_AddUserA+0)+0,w
	movwf	(?_sendPackage)
	movlw	(02h)
	movwf	(??_AddUserA+1)+0
	movf	(??_AddUserA+1)+0,w
	movwf	0+(?_sendPackage)+01h
	movlw	(AddUserA@contentData)&0ffh
	movwf	(??_AddUserA+2)+0
	movf	(??_AddUserA+2)+0,w
	movwf	(0+?_sendPackage+02h)
	movlw	(01h)
	fcall	_sendPackage
	line	414
	
l14148:	
;FingerPrintSensor_R307.c: 414: if(FillUpResponse(dataOut, &confirmationCode) )
	movlw	(AddUserA@confirmationCode)&0ffh
	bcf	status, 5	;RP0=0, select bank0
	bcf	status, 6	;RP1=0, select bank0
	movwf	(??_AddUserA+0)+0
	movf	(??_AddUserA+0)+0,w
	movwf	(?_FillUpResponse)
	movlw	(AddUserA@dataOut)&0ffh
	fcall	_FillUpResponse
	goto	l3177
	line	416
	
l14150:	
	goto	l3177
	
l14152:	
;	Return value of _AddUserA is never used
	goto	l3177
	
l3176:	
	goto	l3177
	line	417
	
l3175:	
	line	419
;FingerPrintSensor_R307.c: 417: }
;FingerPrintSensor_R307.c: 418: return 0;
;	Return value of _AddUserA is never used
	
l3177:	
	return
	opt stack 0
GLOBAL	__end_of_AddUserA
	__end_of_AddUserA:
;; =============== function _AddUserA ends ============

	signat	_AddUserA,89
	global	_HiSpeedScan
psect	text4247,local,class=CODE,delta=2
global __ptext4247
__ptext4247:

;; *************** function _HiSpeedScan *****************
;; Defined at:
;;		line 334 in file "C:\Users\GauravLT\Desktop\Finger Print Sensor\R307\PIC16F877A_R307\FingerPrintSensor_R307.c"
;; Parameters:    Size  Location     Type
;;  UserNo          2   57[BANK0 ] PTR unsigned char 
;;		 -> DeleteUserAfterAdminConfirm@UserNo(1), AddNewUserAfterAdminConfirm@UserNo(1), AlterAdminUser@UserNo(1), ControlAccess@UserNo(1), 
;;		 -> EraseAllUsersAfterAdminConfirm@UserNo(1), 
;; Auto vars:     Size  Location     Type
;;  dataOut         5   67[BANK0 ] unsigned char [5]
;;  contentData     5   62[BANK0 ] unsigned char [5]
;;  confirmation    1   72[BANK0 ] unsigned char 
;; Return value:  Size  Location     Type
;;                  1    wreg      unsigned char 
;; Registers used:
;;		wreg, fsr0l, fsr0h, status,2, status,0, pclath, cstack
;; Tracked objects:
;;		On entry : 0/0
;;		On exit  : 0/0
;;		Unchanged: 0/0
;; Data sizes:     COMMON   BANK0   BANK1   BANK3   BANK2
;;      Params:         0       2       0       0       0
;;      Locals:         0      11       0       0       0
;;      Temps:          0       3       0       0       0
;;      Totals:         0      16       0       0       0
;;Total ram usage:       16 bytes
;; Hardware stack levels used:    1
;; Hardware stack levels required when called:    5
;; This function calls:
;;		_ClearUartBuffer
;;		_sendPackage
;;		_FillUpResponse
;; This function is called by:
;;		_HiSpeedScan0
;; This function uses a non-reentrant model
;;
psect	text4247
	file	"C:\Users\GauravLT\Desktop\Finger Print Sensor\R307\PIC16F877A_R307\FingerPrintSensor_R307.c"
	line	334
	global	__size_of_HiSpeedScan
	__size_of_HiSpeedScan	equ	__end_of_HiSpeedScan-_HiSpeedScan
	
_HiSpeedScan:	
	opt	stack 0
; Regs used in _HiSpeedScan: [wreg-fsr0h+status,2+status,0+pclath+cstack]
	line	341
	
l14116:	
;FingerPrintSensor_R307.c: 341: unsigned char dataOut[]={0xFF, 0xFF, 0xFF, 0xFF, 0x00};
	movlw	(HiSpeedScan@dataOut)&0ffh
	movwf	fsr0
	bsf	status, 5	;RP0=1, select bank1
	bcf	status, 6	;RP1=0, select bank1
	movf	(HiSpeedScan@F1322)^080h,w
	bcf	status, 7	;select IRP bank0
	movwf	indf
	incf	fsr0,f
	movf	(HiSpeedScan@F1322)^080h+1,w
	movwf	indf
	incf	fsr0,f
	movf	(HiSpeedScan@F1322)^080h+2,w
	movwf	indf
	incf	fsr0,f
	movf	(HiSpeedScan@F1322)^080h+3,w
	movwf	indf
	incf	fsr0,f
	movf	(HiSpeedScan@F1322)^080h+4,w
	movwf	indf
	line	342
	
l14118:	
;FingerPrintSensor_R307.c: 342: unsigned char confirmationCode=0xFF;
	movlw	(0FFh)
	bcf	status, 5	;RP0=0, select bank0
	bcf	status, 6	;RP1=0, select bank0
	movwf	(??_HiSpeedScan+0)+0
	movf	(??_HiSpeedScan+0)+0,w
	movwf	(HiSpeedScan@confirmationCode)
	line	343
	
l14120:	
;FingerPrintSensor_R307.c: 343: unsigned char contentData[]={0x01, 0x00, 0x00, 0x03, 0xE9};
	movlw	(HiSpeedScan@contentData)&0ffh
	movwf	fsr0
	bsf	status, 5	;RP0=1, select bank3
	bsf	status, 6	;RP1=1, select bank3
	movf	(HiSpeedScan@F1325)^0180h,w
	movwf	indf
	incf	fsr0,f
	movf	(HiSpeedScan@F1325)^0180h+1,w
	movwf	indf
	incf	fsr0,f
	movf	(HiSpeedScan@F1325)^0180h+2,w
	movwf	indf
	incf	fsr0,f
	movf	(HiSpeedScan@F1325)^0180h+3,w
	movwf	indf
	incf	fsr0,f
	movf	(HiSpeedScan@F1325)^0180h+4,w
	movwf	indf
	line	345
	
l14122:	
;FingerPrintSensor_R307.c: 345: ClearUartBuffer();
	fcall	_ClearUartBuffer
	line	346
	
l14124:	
;FingerPrintSensor_R307.c: 346: sendPackage(pCmd, 0x08, 0x1B, contentData);
	movlw	(08h)
	bcf	status, 5	;RP0=0, select bank0
	bcf	status, 6	;RP1=0, select bank0
	movwf	(??_HiSpeedScan+0)+0
	movf	(??_HiSpeedScan+0)+0,w
	movwf	(?_sendPackage)
	movlw	(01Bh)
	movwf	(??_HiSpeedScan+1)+0
	movf	(??_HiSpeedScan+1)+0,w
	movwf	0+(?_sendPackage)+01h
	movlw	(HiSpeedScan@contentData)&0ffh
	movwf	(??_HiSpeedScan+2)+0
	movf	(??_HiSpeedScan+2)+0,w
	movwf	(0+?_sendPackage+02h)
	movlw	(01h)
	fcall	_sendPackage
	line	348
	
l14126:	
;FingerPrintSensor_R307.c: 348: if(FillUpResponse(dataOut, &confirmationCode) )
	movlw	(HiSpeedScan@confirmationCode)&0ffh
	bcf	status, 5	;RP0=0, select bank0
	bcf	status, 6	;RP1=0, select bank0
	movwf	(??_HiSpeedScan+0)+0
	movf	(??_HiSpeedScan+0)+0,w
	movwf	(?_FillUpResponse)
	movlw	(HiSpeedScan@dataOut)&0ffh
	fcall	_FillUpResponse
	xorlw	0
	skipnz
	goto	u14591
	goto	u14590
u14591:
	goto	l14136
u14590:
	line	350
	
l14128:	
;FingerPrintSensor_R307.c: 349: {
;FingerPrintSensor_R307.c: 350: if(confirmationCode == 0x00){*UserNo=dataOut[1]; return 1; }
	bcf	status, 5	;RP0=0, select bank0
	bcf	status, 6	;RP1=0, select bank0
	movf	(HiSpeedScan@confirmationCode),f
	skipz
	goto	u14601
	goto	u14600
u14601:
	goto	l14136
u14600:
	
l14130:	
	movf	0+(HiSpeedScan@dataOut)+01h,w
	movwf	(??_HiSpeedScan+0)+0
	movf	(HiSpeedScan@UserNo),w
	movwf	fsr0
	bsf	status,7
	btfss	(HiSpeedScan@UserNo+1),0
	bcf	status,7
	movf	(??_HiSpeedScan+0)+0,w
	movwf	indf
	
l14132:	
	movlw	(01h)
	goto	l3148
	
l14134:	
	goto	l3148
	
l3147:	
	goto	l14136
	line	351
	
l3146:	
	line	352
	
l14136:	
;FingerPrintSensor_R307.c: 351: }
;FingerPrintSensor_R307.c: 352: *UserNo = 0;
	bcf	status, 5	;RP0=0, select bank0
	bcf	status, 6	;RP1=0, select bank0
	movf	(HiSpeedScan@UserNo),w
	movwf	fsr0
	bsf	status,7
	btfss	(HiSpeedScan@UserNo+1),0
	bcf	status,7
	clrf	indf
	line	353
	
l14138:	
;FingerPrintSensor_R307.c: 353: return 0;
	movlw	(0)
	goto	l3148
	
l14140:	
	line	354
	
l3148:	
	return
	opt stack 0
GLOBAL	__end_of_HiSpeedScan
	__end_of_HiSpeedScan:
;; =============== function _HiSpeedScan ends ============

	signat	_HiSpeedScan,4217
	global	_GenCharacterFileFromImage
psect	text4248,local,class=CODE,delta=2
global __ptext4248
__ptext4248:

;; *************** function _GenCharacterFileFromImage *****************
;; Defined at:
;;		line 255 in file "C:\Users\GauravLT\Desktop\Finger Print Sensor\R307\PIC16F877A_R307\FingerPrintSensor_R307.c"
;; Parameters:    Size  Location     Type
;;		None
;; Auto vars:     Size  Location     Type
;;  confirmation    1   62[BANK0 ] unsigned char 
;;  dataOut         1   61[BANK0 ] unsigned char 
;;  contentData     1   60[BANK0 ] unsigned char 
;; Return value:  Size  Location     Type
;;                  1    wreg      unsigned char 
;; Registers used:
;;		wreg, fsr0l, fsr0h, status,2, status,0, pclath, cstack
;; Tracked objects:
;;		On entry : 0/0
;;		On exit  : 0/0
;;		Unchanged: 0/0
;; Data sizes:     COMMON   BANK0   BANK1   BANK3   BANK2
;;      Params:         0       0       0       0       0
;;      Locals:         0       3       0       0       0
;;      Temps:          0       3       0       0       0
;;      Totals:         0       6       0       0       0
;;Total ram usage:        6 bytes
;; Hardware stack levels used:    1
;; Hardware stack levels required when called:    5
;; This function calls:
;;		_ClearUartBuffer
;;		_sendPackage
;;		_FillUpResponse
;; This function is called by:
;;		_HiSpeedScan0
;;		_AddNewUser
;;		_CheckUser
;; This function uses a non-reentrant model
;;
psect	text4248
	file	"C:\Users\GauravLT\Desktop\Finger Print Sensor\R307\PIC16F877A_R307\FingerPrintSensor_R307.c"
	line	255
	global	__size_of_GenCharacterFileFromImage
	__size_of_GenCharacterFileFromImage	equ	__end_of_GenCharacterFileFromImage-_GenCharacterFileFromImage
	
_GenCharacterFileFromImage:	
	opt	stack 0
; Regs used in _GenCharacterFileFromImage: [wreg-fsr0h+status,2+status,0+pclath+cstack]
	line	256
	
l14098:	
;FingerPrintSensor_R307.c: 256: unsigned char contentData[]={0x01};
	bsf	status, 5	;RP0=1, select bank1
	bcf	status, 6	;RP1=0, select bank1
	movf	(GenCharacterFileFromImage@F1303)^080h,w
	bcf	status, 5	;RP0=0, select bank0
	bcf	status, 6	;RP1=0, select bank0
	movwf	(??_GenCharacterFileFromImage+0)+0
	movf	(??_GenCharacterFileFromImage+0)+0,w
	movwf	(GenCharacterFileFromImage@contentData)
	line	257
;FingerPrintSensor_R307.c: 257: unsigned char dataOut[]={0xFF};
	bsf	status, 5	;RP0=1, select bank1
	bcf	status, 6	;RP1=0, select bank1
	movf	(GenCharacterFileFromImage@F1305)^080h,w
	bcf	status, 5	;RP0=0, select bank0
	bcf	status, 6	;RP1=0, select bank0
	movwf	(??_GenCharacterFileFromImage+0)+0
	movf	(??_GenCharacterFileFromImage+0)+0,w
	movwf	(GenCharacterFileFromImage@dataOut)
	line	258
;FingerPrintSensor_R307.c: 258: unsigned char confirmationCode=0xFF;
	movlw	(0FFh)
	movwf	(??_GenCharacterFileFromImage+0)+0
	movf	(??_GenCharacterFileFromImage+0)+0,w
	movwf	(GenCharacterFileFromImage@confirmationCode)
	line	260
	
l14100:	
;FingerPrintSensor_R307.c: 260: ClearUartBuffer();
	fcall	_ClearUartBuffer
	line	261
	
l14102:	
;FingerPrintSensor_R307.c: 261: sendPackage(pCmd, 0x04, 0x02, contentData);
	movlw	(04h)
	bcf	status, 5	;RP0=0, select bank0
	bcf	status, 6	;RP1=0, select bank0
	movwf	(??_GenCharacterFileFromImage+0)+0
	movf	(??_GenCharacterFileFromImage+0)+0,w
	movwf	(?_sendPackage)
	movlw	(02h)
	movwf	(??_GenCharacterFileFromImage+1)+0
	movf	(??_GenCharacterFileFromImage+1)+0,w
	movwf	0+(?_sendPackage)+01h
	movlw	(GenCharacterFileFromImage@contentData)&0ffh
	movwf	(??_GenCharacterFileFromImage+2)+0
	movf	(??_GenCharacterFileFromImage+2)+0,w
	movwf	(0+?_sendPackage+02h)
	movlw	(01h)
	fcall	_sendPackage
	line	262
	
l14104:	
;FingerPrintSensor_R307.c: 262: if(FillUpResponse(dataOut, &confirmationCode) )
	movlw	(GenCharacterFileFromImage@confirmationCode)&0ffh
	bcf	status, 5	;RP0=0, select bank0
	bcf	status, 6	;RP1=0, select bank0
	movwf	(??_GenCharacterFileFromImage+0)+0
	movf	(??_GenCharacterFileFromImage+0)+0,w
	movwf	(?_FillUpResponse)
	movlw	(GenCharacterFileFromImage@dataOut)&0ffh
	fcall	_FillUpResponse
	xorlw	0
	skipnz
	goto	u14571
	goto	u14570
u14571:
	goto	l14112
u14570:
	line	264
	
l14106:	
;FingerPrintSensor_R307.c: 263: {
;FingerPrintSensor_R307.c: 264: if(confirmationCode == 0x00) return 1;
	bcf	status, 5	;RP0=0, select bank0
	bcf	status, 6	;RP1=0, select bank0
	movf	(GenCharacterFileFromImage@confirmationCode),f
	skipz
	goto	u14581
	goto	u14580
u14581:
	goto	l14112
u14580:
	
l14108:	
	movlw	(01h)
	goto	l3111
	
l14110:	
	goto	l3111
	
l3110:	
	goto	l14112
	line	265
	
l3109:	
	line	266
	
l14112:	
;FingerPrintSensor_R307.c: 265: }
;FingerPrintSensor_R307.c: 266: return 0;
	movlw	(0)
	goto	l3111
	
l14114:	
	line	267
	
l3111:	
	return
	opt stack 0
GLOBAL	__end_of_GenCharacterFileFromImage
	__end_of_GenCharacterFileFromImage:
;; =============== function _GenCharacterFileFromImage ends ============

	signat	_GenCharacterFileFromImage,89
	global	_ScanForImage
psect	text4249,local,class=CODE,delta=2
global __ptext4249
__ptext4249:

;; *************** function _ScanForImage *****************
;; Defined at:
;;		line 241 in file "C:\Users\GauravLT\Desktop\Finger Print Sensor\R307\PIC16F877A_R307\FingerPrintSensor_R307.c"
;; Parameters:    Size  Location     Type
;;		None
;; Auto vars:     Size  Location     Type
;;  confirmation    1   61[BANK0 ] unsigned char 
;;  dataOut         1   60[BANK0 ] unsigned char 
;;  contentData     1   59[BANK0 ] unsigned char 
;; Return value:  Size  Location     Type
;;                  1    wreg      unsigned char 
;; Registers used:
;;		wreg, fsr0l, fsr0h, status,2, status,0, pclath, cstack
;; Tracked objects:
;;		On entry : 0/0
;;		On exit  : 0/0
;;		Unchanged: 0/0
;; Data sizes:     COMMON   BANK0   BANK1   BANK3   BANK2
;;      Params:         0       0       0       0       0
;;      Locals:         0       3       0       0       0
;;      Temps:          0       2       0       0       0
;;      Totals:         0       5       0       0       0
;;Total ram usage:        5 bytes
;; Hardware stack levels used:    1
;; Hardware stack levels required when called:    5
;; This function calls:
;;		_ClearUartBuffer
;;		_sendPackage
;;		_FillUpResponse
;; This function is called by:
;;		_HiSpeedScan0
;;		_AddNewUser
;;		_CheckUser
;; This function uses a non-reentrant model
;;
psect	text4249
	file	"C:\Users\GauravLT\Desktop\Finger Print Sensor\R307\PIC16F877A_R307\FingerPrintSensor_R307.c"
	line	241
	global	__size_of_ScanForImage
	__size_of_ScanForImage	equ	__end_of_ScanForImage-_ScanForImage
	
_ScanForImage:	
	opt	stack 0
; Regs used in _ScanForImage: [wreg-fsr0h+status,2+status,0+pclath+cstack]
	line	242
	
l14080:	
;FingerPrintSensor_R307.c: 242: unsigned char contentData[]={0};
	bsf	status, 5	;RP0=1, select bank1
	bcf	status, 6	;RP1=0, select bank1
	movf	(ScanForImage@F1298)^080h,w
	bcf	status, 5	;RP0=0, select bank0
	bcf	status, 6	;RP1=0, select bank0
	movwf	(??_ScanForImage+0)+0
	movf	(??_ScanForImage+0)+0,w
	movwf	(ScanForImage@contentData)
	line	243
;FingerPrintSensor_R307.c: 243: unsigned char dataOut[]={0xFF};
	bsf	status, 5	;RP0=1, select bank1
	bcf	status, 6	;RP1=0, select bank1
	movf	(ScanForImage@F1300)^080h,w
	bcf	status, 5	;RP0=0, select bank0
	bcf	status, 6	;RP1=0, select bank0
	movwf	(??_ScanForImage+0)+0
	movf	(??_ScanForImage+0)+0,w
	movwf	(ScanForImage@dataOut)
	line	244
;FingerPrintSensor_R307.c: 244: unsigned char confirmationCode=0xFF;
	movlw	(0FFh)
	movwf	(??_ScanForImage+0)+0
	movf	(??_ScanForImage+0)+0,w
	movwf	(ScanForImage@confirmationCode)
	line	246
	
l14082:	
;FingerPrintSensor_R307.c: 246: ClearUartBuffer();
	fcall	_ClearUartBuffer
	line	247
	
l14084:	
;FingerPrintSensor_R307.c: 247: sendPackage(pCmd, 0x03, 0x01, contentData);
	movlw	(03h)
	bcf	status, 5	;RP0=0, select bank0
	bcf	status, 6	;RP1=0, select bank0
	movwf	(??_ScanForImage+0)+0
	movf	(??_ScanForImage+0)+0,w
	movwf	(?_sendPackage)
	clrf	0+(?_sendPackage)+01h
	bsf	status,0
	rlf	0+(?_sendPackage)+01h,f
	movlw	(ScanForImage@contentData)&0ffh
	movwf	(??_ScanForImage+1)+0
	movf	(??_ScanForImage+1)+0,w
	movwf	(0+?_sendPackage+02h)
	movlw	(01h)
	fcall	_sendPackage
	line	248
	
l14086:	
;FingerPrintSensor_R307.c: 248: if(FillUpResponse(dataOut, &confirmationCode) )
	movlw	(ScanForImage@confirmationCode)&0ffh
	bcf	status, 5	;RP0=0, select bank0
	bcf	status, 6	;RP1=0, select bank0
	movwf	(??_ScanForImage+0)+0
	movf	(??_ScanForImage+0)+0,w
	movwf	(?_FillUpResponse)
	movlw	(ScanForImage@dataOut)&0ffh
	fcall	_FillUpResponse
	xorlw	0
	skipnz
	goto	u14551
	goto	u14550
u14551:
	goto	l14094
u14550:
	line	250
	
l14088:	
;FingerPrintSensor_R307.c: 249: {
;FingerPrintSensor_R307.c: 250: if(confirmationCode == 0x00) return 1;
	bcf	status, 5	;RP0=0, select bank0
	bcf	status, 6	;RP1=0, select bank0
	movf	(ScanForImage@confirmationCode),f
	skipz
	goto	u14561
	goto	u14560
u14561:
	goto	l14094
u14560:
	
l14090:	
	movlw	(01h)
	goto	l3102
	
l14092:	
	goto	l3102
	
l3101:	
	goto	l14094
	line	251
	
l3100:	
	line	252
	
l14094:	
;FingerPrintSensor_R307.c: 251: }
;FingerPrintSensor_R307.c: 252: return 0;
	movlw	(0)
	goto	l3102
	
l14096:	
	line	253
	
l3102:	
	return
	opt stack 0
GLOBAL	__end_of_ScanForImage
	__end_of_ScanForImage:
;; =============== function _ScanForImage ends ============

	signat	_ScanForImage,89
	global	_VerifyPswd
psect	text4250,local,class=CODE,delta=2
global __ptext4250
__ptext4250:

;; *************** function _VerifyPswd *****************
;; Defined at:
;;		line 228 in file "C:\Users\GauravLT\Desktop\Finger Print Sensor\R307\PIC16F877A_R307\FingerPrintSensor_R307.c"
;; Parameters:    Size  Location     Type
;;		None
;; Auto vars:     Size  Location     Type
;;  confirmation    1   61[BANK0 ] unsigned char 
;;  dataOut         1   60[BANK0 ] unsigned char 
;; Return value:  Size  Location     Type
;;                  1    wreg      unsigned char 
;; Registers used:
;;		wreg, fsr0l, fsr0h, status,2, status,0, pclath, cstack
;; Tracked objects:
;;		On entry : 0/0
;;		On exit  : 0/0
;;		Unchanged: 0/0
;; Data sizes:     COMMON   BANK0   BANK1   BANK3   BANK2
;;      Params:         0       0       0       0       0
;;      Locals:         0       2       0       0       0
;;      Temps:          0       3       0       0       0
;;      Totals:         0       5       0       0       0
;;Total ram usage:        5 bytes
;; Hardware stack levels used:    1
;; Hardware stack levels required when called:    5
;; This function calls:
;;		_ClearUartBuffer
;;		_sendPackage
;;		_FillUpResponse
;; This function is called by:
;;		_main
;; This function uses a non-reentrant model
;;
psect	text4250
	file	"C:\Users\GauravLT\Desktop\Finger Print Sensor\R307\PIC16F877A_R307\FingerPrintSensor_R307.c"
	line	228
	global	__size_of_VerifyPswd
	__size_of_VerifyPswd	equ	__end_of_VerifyPswd-_VerifyPswd
	
_VerifyPswd:	
	opt	stack 2
; Regs used in _VerifyPswd: [wreg-fsr0h+status,2+status,0+pclath+cstack]
	line	229
	
l14068:	
;FingerPrintSensor_R307.c: 229: unsigned char dataOut[]={0xFF};
	movf	(VerifyPswd@F1294),w
	bcf	status, 5	;RP0=0, select bank0
	bcf	status, 6	;RP1=0, select bank0
	movwf	(??_VerifyPswd+0)+0
	movf	(??_VerifyPswd+0)+0,w
	movwf	(VerifyPswd@dataOut)
	line	230
;FingerPrintSensor_R307.c: 230: unsigned char confirmationCode=0xFF;
	movlw	(0FFh)
	movwf	(??_VerifyPswd+0)+0
	movf	(??_VerifyPswd+0)+0,w
	movwf	(VerifyPswd@confirmationCode)
	line	232
	
l14070:	
;FingerPrintSensor_R307.c: 232: ClearUartBuffer();
	fcall	_ClearUartBuffer
	line	233
	
l14072:	
;FingerPrintSensor_R307.c: 233: sendPackage(pCmd, 0x07, 0x13, (unsigned char *)&DefModulePassword);
	movlw	(07h)
	bcf	status, 5	;RP0=0, select bank0
	bcf	status, 6	;RP1=0, select bank0
	movwf	(??_VerifyPswd+0)+0
	movf	(??_VerifyPswd+0)+0,w
	movwf	(?_sendPackage)
	movlw	(013h)
	movwf	(??_VerifyPswd+1)+0
	movf	(??_VerifyPswd+1)+0,w
	movwf	0+(?_sendPackage)+01h
	movlw	(_DefModulePassword)&0ffh
	movwf	(??_VerifyPswd+2)+0
	movf	(??_VerifyPswd+2)+0,w
	movwf	(0+?_sendPackage+02h)
	movlw	(01h)
	fcall	_sendPackage
	line	234
	
l14074:	
;FingerPrintSensor_R307.c: 234: if(FillUpResponse(dataOut, &confirmationCode) )
	movlw	(VerifyPswd@confirmationCode)&0ffh
	bcf	status, 5	;RP0=0, select bank0
	bcf	status, 6	;RP1=0, select bank0
	movwf	(??_VerifyPswd+0)+0
	movf	(??_VerifyPswd+0)+0,w
	movwf	(?_FillUpResponse)
	movlw	(VerifyPswd@dataOut)&0ffh
	fcall	_FillUpResponse
	goto	l3093
	line	236
	
l14076:	
	goto	l3093
	
l14078:	
;	Return value of _VerifyPswd is never used
	goto	l3093
	
l3092:	
	goto	l3093
	line	237
	
l3091:	
	line	239
;FingerPrintSensor_R307.c: 237: }
;FingerPrintSensor_R307.c: 238: return 0;
;	Return value of _VerifyPswd is never used
	
l3093:	
	return
	opt stack 0
GLOBAL	__end_of_VerifyPswd
	__end_of_VerifyPswd:
;; =============== function _VerifyPswd ends ============

	signat	_VerifyPswd,89
	global	_DeleteUser
psect	text4251,local,class=CODE,delta=2
global __ptext4251
__ptext4251:

;; *************** function _DeleteUser *****************
;; Defined at:
;;		line 207 in file "C:\Users\GauravLT\Desktop\Finger Print Sensor\R307\PIC16F877A_R307\FingerPrintSensor_R307.c"
;; Parameters:    Size  Location     Type
;;  UserNo          1    wreg     unsigned char 
;; Auto vars:     Size  Location     Type
;;  UserNo          1   64[BANK0 ] unsigned char 
;;  contentData     4   60[BANK0 ] unsigned char [4]
;;  confirmation    1   66[BANK0 ] unsigned char 
;;  dataOut         1   65[BANK0 ] unsigned char [1]
;; Return value:  Size  Location     Type
;;                  1    wreg      unsigned char 
;; Registers used:
;;		wreg, fsr0l, fsr0h, status,2, status,0, pclath, cstack
;; Tracked objects:
;;		On entry : 0/0
;;		On exit  : 0/0
;;		Unchanged: 0/0
;; Data sizes:     COMMON   BANK0   BANK1   BANK3   BANK2
;;      Params:         0       0       0       0       0
;;      Locals:         0       7       0       0       0
;;      Temps:          0       3       0       0       0
;;      Totals:         0      10       0       0       0
;;Total ram usage:       10 bytes
;; Hardware stack levels used:    1
;; Hardware stack levels required when called:    5
;; This function calls:
;;		_ClearUartBuffer
;;		_sendPackage
;;		_FillUpResponse
;; This function is called by:
;;		_AlterAdminUser
;;		_DeleteUserAfterAdminConfirm
;; This function uses a non-reentrant model
;;
psect	text4251
	file	"C:\Users\GauravLT\Desktop\Finger Print Sensor\R307\PIC16F877A_R307\FingerPrintSensor_R307.c"
	line	207
	global	__size_of_DeleteUser
	__size_of_DeleteUser	equ	__end_of_DeleteUser-_DeleteUser
	
_DeleteUser:	
	opt	stack 1
; Regs used in _DeleteUser: [wreg-fsr0h+status,2+status,0+pclath+cstack]
;DeleteUser@UserNo stored from wreg
	line	213
	bcf	status, 5	;RP0=0, select bank0
	bcf	status, 6	;RP1=0, select bank0
	movwf	(DeleteUser@UserNo)
	
l14050:	
;FingerPrintSensor_R307.c: 213: unsigned char contentData[]={0x00, 0x00, 0x00, 0x01};
	bsf	status, 5	;RP0=1, select bank1
	bcf	status, 6	;RP1=0, select bank1
	movf	(DeleteUser@F1289+3)^080h,w
	bcf	status, 5	;RP0=0, select bank0
	bcf	status, 6	;RP1=0, select bank0
	movwf	(DeleteUser@contentData+3)
	bsf	status, 5	;RP0=1, select bank1
	bcf	status, 6	;RP1=0, select bank1
	movf	(DeleteUser@F1289+2)^080h,w
	bcf	status, 5	;RP0=0, select bank0
	bcf	status, 6	;RP1=0, select bank0
	movwf	(DeleteUser@contentData+2)
	bsf	status, 5	;RP0=1, select bank1
	bcf	status, 6	;RP1=0, select bank1
	movf	(DeleteUser@F1289+1)^080h,w
	bcf	status, 5	;RP0=0, select bank0
	bcf	status, 6	;RP1=0, select bank0
	movwf	(DeleteUser@contentData+1)
	bsf	status, 5	;RP0=1, select bank1
	bcf	status, 6	;RP1=0, select bank1
	movf	(DeleteUser@F1289)^080h,w
	bcf	status, 5	;RP0=0, select bank0
	bcf	status, 6	;RP1=0, select bank0
	movwf	(DeleteUser@contentData)

	line	214
;FingerPrintSensor_R307.c: 214: unsigned char confirmationCode=0xFF;
	movlw	(0FFh)
	movwf	(??_DeleteUser+0)+0
	movf	(??_DeleteUser+0)+0,w
	movwf	(DeleteUser@confirmationCode)
	line	215
;FingerPrintSensor_R307.c: 215: unsigned char dataOut[1]={0xFF};
	movf	(DeleteUser@F1292),w
	movwf	(??_DeleteUser+0)+0
	movf	(??_DeleteUser+0)+0,w
	movwf	(DeleteUser@dataOut)
	line	217
;FingerPrintSensor_R307.c: 217: contentData[1]=UserNo;
	movf	(DeleteUser@UserNo),w
	movwf	(??_DeleteUser+0)+0
	movf	(??_DeleteUser+0)+0,w
	movwf	0+(DeleteUser@contentData)+01h
	line	218
	
l14052:	
;FingerPrintSensor_R307.c: 218: ClearUartBuffer();
	fcall	_ClearUartBuffer
	line	219
	
l14054:	
;FingerPrintSensor_R307.c: 219: sendPackage(pCmd, 0x07, 0x0C, contentData);
	movlw	(07h)
	bcf	status, 5	;RP0=0, select bank0
	bcf	status, 6	;RP1=0, select bank0
	movwf	(??_DeleteUser+0)+0
	movf	(??_DeleteUser+0)+0,w
	movwf	(?_sendPackage)
	movlw	(0Ch)
	movwf	(??_DeleteUser+1)+0
	movf	(??_DeleteUser+1)+0,w
	movwf	0+(?_sendPackage)+01h
	movlw	(DeleteUser@contentData)&0ffh
	movwf	(??_DeleteUser+2)+0
	movf	(??_DeleteUser+2)+0,w
	movwf	(0+?_sendPackage+02h)
	movlw	(01h)
	fcall	_sendPackage
	line	220
	
l14056:	
;FingerPrintSensor_R307.c: 220: if(FillUpResponse(dataOut, &confirmationCode) )
	movlw	(DeleteUser@confirmationCode)&0ffh
	bcf	status, 5	;RP0=0, select bank0
	bcf	status, 6	;RP1=0, select bank0
	movwf	(??_DeleteUser+0)+0
	movf	(??_DeleteUser+0)+0,w
	movwf	(?_FillUpResponse)
	movlw	(DeleteUser@dataOut)&0ffh
	fcall	_FillUpResponse
	xorlw	0
	skipnz
	goto	u14531
	goto	u14530
u14531:
	goto	l14064
u14530:
	line	222
	
l14058:	
;FingerPrintSensor_R307.c: 221: {
;FingerPrintSensor_R307.c: 222: if(confirmationCode == 0x00) return 1;
	bcf	status, 5	;RP0=0, select bank0
	bcf	status, 6	;RP1=0, select bank0
	movf	(DeleteUser@confirmationCode),f
	skipz
	goto	u14541
	goto	u14540
u14541:
	goto	l14064
u14540:
	
l14060:	
	movlw	(01h)
	goto	l3086
	
l14062:	
	goto	l3086
	
l3085:	
	goto	l14064
	line	223
	
l3084:	
	line	224
	
l14064:	
;FingerPrintSensor_R307.c: 223: }
;FingerPrintSensor_R307.c: 224: return 0;
	movlw	(0)
	goto	l3086
	
l14066:	
	line	225
	
l3086:	
	return
	opt stack 0
GLOBAL	__end_of_DeleteUser
	__end_of_DeleteUser:
;; =============== function _DeleteUser ends ============

	signat	_DeleteUser,4217
	global	_EraseAllUsers
psect	text4252,local,class=CODE,delta=2
global __ptext4252
__ptext4252:

;; *************** function _EraseAllUsers *****************
;; Defined at:
;;		line 356 in file "C:\Users\GauravLT\Desktop\Finger Print Sensor\R307\PIC16F877A_R307\FingerPrintSensor_R307.c"
;; Parameters:    Size  Location     Type
;;		None
;; Auto vars:     Size  Location     Type
;;  confirmation    1   62[BANK0 ] unsigned char 
;;  dataOut         1   61[BANK0 ] unsigned char 
;;  contentData     1   60[BANK0 ] unsigned char 
;; Return value:  Size  Location     Type
;;                  1    wreg      unsigned char 
;; Registers used:
;;		wreg, fsr0l, fsr0h, status,2, status,0, pclath, cstack
;; Tracked objects:
;;		On entry : 0/0
;;		On exit  : 0/0
;;		Unchanged: 0/0
;; Data sizes:     COMMON   BANK0   BANK1   BANK3   BANK2
;;      Params:         0       0       0       0       0
;;      Locals:         0       3       0       0       0
;;      Temps:          0       3       0       0       0
;;      Totals:         0       6       0       0       0
;;Total ram usage:        6 bytes
;; Hardware stack levels used:    1
;; Hardware stack levels required when called:    5
;; This function calls:
;;		_ClearUartBuffer
;;		_sendPackage
;;		_FillUpResponse
;; This function is called by:
;;		_EraseAllUsersAfterAdminConfirm
;; This function uses a non-reentrant model
;;
psect	text4252
	file	"C:\Users\GauravLT\Desktop\Finger Print Sensor\R307\PIC16F877A_R307\FingerPrintSensor_R307.c"
	line	356
	global	__size_of_EraseAllUsers
	__size_of_EraseAllUsers	equ	__end_of_EraseAllUsers-_EraseAllUsers
	
_EraseAllUsers:	
	opt	stack 1
; Regs used in _EraseAllUsers: [wreg-fsr0h+status,2+status,0+pclath+cstack]
	line	363
	
l14038:	
;FingerPrintSensor_R307.c: 363: unsigned char contentData[]={0x00};
	bsf	status, 5	;RP0=1, select bank1
	bcf	status, 6	;RP1=0, select bank1
	movf	(EraseAllUsers@F1327)^080h,w
	bcf	status, 5	;RP0=0, select bank0
	bcf	status, 6	;RP1=0, select bank0
	movwf	(??_EraseAllUsers+0)+0
	movf	(??_EraseAllUsers+0)+0,w
	movwf	(EraseAllUsers@contentData)
	line	364
;FingerPrintSensor_R307.c: 364: unsigned char confirmationCode=0xFF;
	movlw	(0FFh)
	movwf	(??_EraseAllUsers+0)+0
	movf	(??_EraseAllUsers+0)+0,w
	movwf	(EraseAllUsers@confirmationCode)
	line	365
;FingerPrintSensor_R307.c: 365: unsigned char dataOut[]={0xFF};
	bsf	status, 5	;RP0=1, select bank1
	bcf	status, 6	;RP1=0, select bank1
	movf	(EraseAllUsers@F1330)^080h,w
	bcf	status, 5	;RP0=0, select bank0
	bcf	status, 6	;RP1=0, select bank0
	movwf	(??_EraseAllUsers+0)+0
	movf	(??_EraseAllUsers+0)+0,w
	movwf	(EraseAllUsers@dataOut)
	line	367
	
l14040:	
;FingerPrintSensor_R307.c: 367: ClearUartBuffer();
	fcall	_ClearUartBuffer
	line	368
	
l14042:	
;FingerPrintSensor_R307.c: 368: sendPackage(pCmd, 0x03, 0x0D, contentData);
	movlw	(03h)
	bcf	status, 5	;RP0=0, select bank0
	bcf	status, 6	;RP1=0, select bank0
	movwf	(??_EraseAllUsers+0)+0
	movf	(??_EraseAllUsers+0)+0,w
	movwf	(?_sendPackage)
	movlw	(0Dh)
	movwf	(??_EraseAllUsers+1)+0
	movf	(??_EraseAllUsers+1)+0,w
	movwf	0+(?_sendPackage)+01h
	movlw	(EraseAllUsers@contentData)&0ffh
	movwf	(??_EraseAllUsers+2)+0
	movf	(??_EraseAllUsers+2)+0,w
	movwf	(0+?_sendPackage+02h)
	movlw	(01h)
	fcall	_sendPackage
	line	369
	
l14044:	
;FingerPrintSensor_R307.c: 369: if(FillUpResponse(dataOut, &confirmationCode) )
	movlw	(EraseAllUsers@confirmationCode)&0ffh
	bcf	status, 5	;RP0=0, select bank0
	bcf	status, 6	;RP1=0, select bank0
	movwf	(??_EraseAllUsers+0)+0
	movf	(??_EraseAllUsers+0)+0,w
	movwf	(?_FillUpResponse)
	movlw	(EraseAllUsers@dataOut)&0ffh
	fcall	_FillUpResponse
	goto	l3157
	line	371
	
l14046:	
	goto	l3157
	
l14048:	
;	Return value of _EraseAllUsers is never used
	goto	l3157
	
l3156:	
	goto	l3157
	line	372
	
l3155:	
	line	374
;FingerPrintSensor_R307.c: 372: }
;FingerPrintSensor_R307.c: 373: return 0;
;	Return value of _EraseAllUsers is never used
	
l3157:	
	return
	opt stack 0
GLOBAL	__end_of_EraseAllUsers
	__end_of_EraseAllUsers:
;; =============== function _EraseAllUsers ends ============

	signat	_EraseAllUsers,89
	global	_LcdPrint
psect	text4253,local,class=CODE,delta=2
global __ptext4253
__ptext4253:

;; *************** function _LcdPrint *****************
;; Defined at:
;;		line 53 in file "C:\Users\GauravLT\Desktop\Finger Print Sensor\R307\PIC16F877A_R307\lcd.c"
;; Parameters:    Size  Location     Type
;;  s               2   11[BANK0 ] PTR const unsigned char 
;;		 -> STR_34(29), STR_33(33), STR_32(30), STR_31(30), 
;;		 -> STR_30(8), STR_29(18), STR_28(14), DeleteUserAfterAdminConfirm@buff_2234(10), 
;;		 -> STR_27(22), DeleteUserAfterAdminConfirm@buff(5), STR_26(12), STR_25(12), 
;;		 -> STR_24(28), STR_23(24), AddNewUserAfterAdminConfirm@buff(10), STR_22(21), 
;;		 -> STR_21(22), STR_20(19), STR_19(18), STR_18(12), 
;;		 -> STR_17(28), STR_16(25), STR_15(20), STR_14(13), 
;;		 -> STR_13(24), STR_12(18), STR_11(20), STR_10(14), 
;;		 -> STR_9(12), STR_8(28), STR_7(13), STR_6(20), 
;;		 -> ControlAccess@buff(10), STR_5(13), STR_4(19), STR_3(18), 
;;		 -> STR_2(12), STR_1(28), 
;;  rowNo           1   13[BANK0 ] unsigned char 
;;  colNo           1   14[BANK0 ] unsigned char 
;; Auto vars:     Size  Location     Type
;;		None
;; Return value:  Size  Location     Type
;;		None               void
;; Registers used:
;;		wreg, fsr0l, fsr0h, status,2, status,0, btemp+1, pclath, cstack
;; Tracked objects:
;;		On entry : 0/0
;;		On exit  : 0/0
;;		Unchanged: 0/0
;; Data sizes:     COMMON   BANK0   BANK1   BANK3   BANK2
;;      Params:         0       4       0       0       0
;;      Locals:         0       0       0       0       0
;;      Temps:          0       4       0       0       0
;;      Totals:         0       8       0       0       0
;;Total ram usage:        8 bytes
;; Hardware stack levels used:    1
;; Hardware stack levels required when called:    5
;; This function calls:
;;		_UploadLcdBuffer
;; This function is called by:
;;		_EraseAllUsersAfterAdminConfirm
;;		_ControlAccess
;;		_AlterAdminUser
;;		_AddNewUserAfterAdminConfirm
;;		_DeleteUserAfterAdminConfirm
;;		_menu
;;		_main
;; This function uses a non-reentrant model
;;
psect	text4253
	file	"C:\Users\GauravLT\Desktop\Finger Print Sensor\R307\PIC16F877A_R307\lcd.c"
	line	53
	global	__size_of_LcdPrint
	__size_of_LcdPrint	equ	__end_of_LcdPrint-_LcdPrint
	
_LcdPrint:	
	opt	stack 1
; Regs used in _LcdPrint: [wreg-fsr0h+status,2+status,0+btemp+1+pclath+cstack]
	line	54
	
l14016:	
;lcd.c: 54: while(*s!=0)
	goto	l711
	
l712:	
	line	56
	
l14018:	
;lcd.c: 55: {
;lcd.c: 56: if(*s == '\n')
	bcf	status, 5	;RP0=0, select bank0
	bcf	status, 6	;RP1=0, select bank0
	movf	(LcdPrint@s+1),w
	movwf	btemp+1
	movf	(LcdPrint@s),w
	movwf	fsr0
	fcall	stringtab
	xorlw	0Ah
	skipz
	goto	u14471
	goto	u14470
u14471:
	goto	l14026
u14470:
	line	58
	
l14020:	
;lcd.c: 57: {
;lcd.c: 58: if(++rowNo > 16) break;
	movlw	(01h)
	movwf	(??_LcdPrint+0)+0
	movf	(??_LcdPrint+0)+0,w
	addwf	(LcdPrint@rowNo),f
	movlw	(011h)
	subwf	((LcdPrint@rowNo)),w
	skipc
	goto	u14481
	goto	u14480
u14481:
	goto	l714
u14480:
	goto	l14036
	
l14022:	
	goto	l14036
	
l14024:	
	goto	l14034
	line	59
	
l714:	
;lcd.c: 59: else colNo=0;
	clrf	(LcdPrint@colNo)
	goto	l14034
	
l716:	
	line	60
;lcd.c: 60: }
	goto	l14034
	line	61
	
l713:	
	
l14026:	
;lcd.c: 61: else if(rowNo<16 && colNo<16)
	movlw	(010h)
	subwf	(LcdPrint@rowNo),w
	skipnc
	goto	u14491
	goto	u14490
u14491:
	goto	l14034
u14490:
	
l14028:	
	movlw	(010h)
	subwf	(LcdPrint@colNo),w
	skipnc
	goto	u14501
	goto	u14500
u14501:
	goto	l14034
u14500:
	line	63
	
l14030:	
;lcd.c: 62: {
;lcd.c: 63: LcdBuffer[rowNo][colNo] = *s;
	movf	(LcdPrint@s+1),w
	movwf	btemp+1
	movf	(LcdPrint@s),w
	movwf	fsr0
	fcall	stringtab
	movwf	(??_LcdPrint+0)+0
	movf	(LcdPrint@rowNo),w
	movwf	(??_LcdPrint+1)+0
	movlw	04h
u14515:
	clrc
	rlf	(??_LcdPrint+1)+0,f
	addlw	-1
	skipz
	goto	u14515
	movlw	(_LcdBuffer)&0ffh
	addwf	0+(??_LcdPrint+1)+0,w
	movwf	(??_LcdPrint+2)+0
	movf	(LcdPrint@colNo),w
	addwf	0+(??_LcdPrint+2)+0,w
	movwf	(??_LcdPrint+3)+0
	movf	0+(??_LcdPrint+3)+0,w
	movwf	fsr0
	movf	(??_LcdPrint+0)+0,w
	bsf	status, 7	;select IRP bank3
	movwf	indf
	line	64
	
l14032:	
;lcd.c: 64: colNo++;
	movlw	(01h)
	movwf	(??_LcdPrint+0)+0
	movf	(??_LcdPrint+0)+0,w
	addwf	(LcdPrint@colNo),f
	goto	l14034
	line	65
	
l718:	
	goto	l14034
	line	66
	
l717:	
	
l14034:	
;lcd.c: 65: }
;lcd.c: 66: s++;
	movlw	low(01h)
	addwf	(LcdPrint@s),f
	skipnc
	incf	(LcdPrint@s+1),f
	movlw	high(01h)
	addwf	(LcdPrint@s+1),f
	line	67
	
l711:	
	line	54
	bcf	status, 5	;RP0=0, select bank0
	bcf	status, 6	;RP1=0, select bank0
	movf	(LcdPrint@s+1),w
	movwf	btemp+1
	movf	(LcdPrint@s),w
	movwf	fsr0
	fcall	stringtab
	iorlw	0
	skipz
	goto	u14521
	goto	u14520
u14521:
	goto	l14018
u14520:
	goto	l14036
	
l715:	
	line	68
	
l14036:	
;lcd.c: 67: }
;lcd.c: 68: UploadLcdBuffer();
	fcall	_UploadLcdBuffer
	line	69
	
l719:	
	return
	opt stack 0
GLOBAL	__end_of_LcdPrint
	__end_of_LcdPrint:
;; =============== function _LcdPrint ends ============

	signat	_LcdPrint,12408
	global	_LcdInit
psect	text4254,local,class=CODE,delta=2
global __ptext4254
__ptext4254:

;; *************** function _LcdInit *****************
;; Defined at:
;;		line 11 in file "C:\Users\GauravLT\Desktop\Finger Print Sensor\R307\PIC16F877A_R307\lcd.c"
;; Parameters:    Size  Location     Type
;;		None
;; Auto vars:     Size  Location     Type
;;		None
;; Return value:  Size  Location     Type
;;		None               void
;; Registers used:
;;		wreg, fsr0l, fsr0h, status,2, status,0, pclath, cstack
;; Tracked objects:
;;		On entry : 0/0
;;		On exit  : 0/0
;;		Unchanged: 0/0
;; Data sizes:     COMMON   BANK0   BANK1   BANK3   BANK2
;;      Params:         0       0       0       0       0
;;      Locals:         0       0       0       0       0
;;      Temps:          0       1       0       0       0
;;      Totals:         0       1       0       0       0
;;Total ram usage:        1 bytes
;; Hardware stack levels used:    1
;; Hardware stack levels required when called:    5
;; This function calls:
;;		_LcdDelay
;;		_SendByte
;;		_LcdClear
;; This function is called by:
;;		_main
;; This function uses a non-reentrant model
;;
psect	text4254
	file	"C:\Users\GauravLT\Desktop\Finger Print Sensor\R307\PIC16F877A_R307\lcd.c"
	line	11
	global	__size_of_LcdInit
	__size_of_LcdInit	equ	__end_of_LcdInit-_LcdInit
	
_LcdInit:	
	opt	stack 2
; Regs used in _LcdInit: [wreg-fsr0h+status,2+status,0+pclath+cstack]
	line	12
	
l14004:	
;lcd.c: 12: TRISD = 0x00;
	bsf	status, 5	;RP0=1, select bank1
	bcf	status, 6	;RP1=0, select bank1
	clrf	(136)^080h	;volatile
	line	13
;lcd.c: 13: TRISB = 0X00;
	clrf	(134)^080h	;volatile
	line	17
	
l14006:	
;lcd.c: 17: RD6=0;
	bcf	status, 5	;RP0=0, select bank0
	bcf	status, 6	;RP1=0, select bank0
	bcf	(70/8),(70)&7
	line	18
;lcd.c: 18: PORTD=0;
	clrf	(8)	;volatile
	line	19
	
l14008:	
;lcd.c: 19: LcdDelay(1000);
	movlw	low(03E8h)
	movwf	(?_LcdDelay)
	movlw	high(03E8h)
	movwf	((?_LcdDelay))+1
	fcall	_LcdDelay
	line	20
	
l14010:	
;lcd.c: 20: SendByte(Cmd, 0x38);
	movlw	(038h)
	bcf	status, 5	;RP0=0, select bank0
	bcf	status, 6	;RP1=0, select bank0
	movwf	(??_LcdInit+0)+0
	movf	(??_LcdInit+0)+0,w
	movwf	(?_SendByte)
	movlw	(0)
	fcall	_SendByte
	line	21
	
l14012:	
;lcd.c: 21: SendByte(Cmd, 0x0C);
	movlw	(0Ch)
	bcf	status, 5	;RP0=0, select bank0
	bcf	status, 6	;RP1=0, select bank0
	movwf	(??_LcdInit+0)+0
	movf	(??_LcdInit+0)+0,w
	movwf	(?_SendByte)
	movlw	(0)
	fcall	_SendByte
	line	22
	
l14014:	
;lcd.c: 22: LcdClear();
	fcall	_LcdClear
	line	23
	
l695:	
	return
	opt stack 0
GLOBAL	__end_of_LcdInit
	__end_of_LcdInit:
;; =============== function _LcdInit ends ============

	signat	_LcdInit,88
	global	_sendPackage
psect	text4255,local,class=CODE,delta=2
global __ptext4255
__ptext4255:

;; *************** function _sendPackage *****************
;; Defined at:
;;		line 89 in file "C:\Users\GauravLT\Desktop\Finger Print Sensor\R307\PIC16F877A_R307\FingerPrintSensor_R307.c"
;; Parameters:    Size  Location     Type
;;  identifier      1    wreg     enum E1115
;;  length          1   11[BANK0 ] unsigned char 
;;  instruction     1   12[BANK0 ] enum E1090
;;  content         1   13[BANK0 ] PTR unsigned char 
;;		 -> AddUserC@contentData(4), AddUserB@contentData(1), AddUserA@contentData(1), EraseAllUsers@contentData(1), 
;;		 -> HiSpeedScan@contentData(5), MatchTemplate@contentData(1), LoadFingerTemplate@contentData(3), GenCharacterFileFromImage@contentData(1), 
;;		 -> ScanForImage@contentData(1), DefModulePassword(4), DeleteUser@contentData(4), 
;; Auto vars:     Size  Location     Type
;;  identifier      1   22[BANK0 ] enum E1115
;;  i               2   23[BANK0 ] unsigned int 
;; Return value:  Size  Location     Type
;;		None               void
;; Registers used:
;;		wreg, fsr0l, fsr0h, status,2, status,0, pclath, cstack
;; Tracked objects:
;;		On entry : 0/0
;;		On exit  : 0/0
;;		Unchanged: 0/0
;; Data sizes:     COMMON   BANK0   BANK1   BANK3   BANK2
;;      Params:         0       3       0       0       0
;;      Locals:         0       3       0       0       0
;;      Temps:          0       8       0       0       0
;;      Totals:         0      14       0       0       0
;;Total ram usage:       14 bytes
;; Hardware stack levels used:    1
;; Hardware stack levels required when called:    4
;; This function calls:
;;		_SendUartValue
;;		_SendUartByte
;; This function is called by:
;;		_DeleteUser
;;		_VerifyPswd
;;		_ScanForImage
;;		_GenCharacterFileFromImage
;;		_HiSpeedScan
;;		_EraseAllUsers
;;		_AddUserA
;;		_AddUserB
;;		_AddUserC
;;		_LoadFingerTemplate
;;		_MatchTemplate
;; This function uses a non-reentrant model
;;
psect	text4255
	file	"C:\Users\GauravLT\Desktop\Finger Print Sensor\R307\PIC16F877A_R307\FingerPrintSensor_R307.c"
	line	89
	global	__size_of_sendPackage
	__size_of_sendPackage	equ	__end_of_sendPackage-_sendPackage
	
_sendPackage:	
	opt	stack 1
; Regs used in _sendPackage: [wreg-fsr0h+status,2+status,0+pclath+cstack]
;sendPackage@identifier stored from wreg
	bcf	status, 5	;RP0=0, select bank0
	bcf	status, 6	;RP1=0, select bank0
	movwf	(sendPackage@identifier)
	line	90
	
l13966:	
;FingerPrintSensor_R307.c: 90: unsigned int i=0;
	clrf	(sendPackage@i)
	clrf	(sendPackage@i+1)
	line	91
;FingerPrintSensor_R307.c: 91: _Package.CheckSum = 0;
	bsf	status, 5	;RP0=1, select bank1
	bcf	status, 6	;RP1=0, select bank1
	clrf	0+(__Package)^080h+0Bh
	clrf	1+(__Package)^080h+0Bh
	line	93
	
l13968:	
;FingerPrintSensor_R307.c: 93: _Package.Header = PackageHeader;
	movf	(_PackageHeader+1)^080h,w
	clrf	(__Package+1)^080h
	addwf	(__Package+1)^080h
	movf	(_PackageHeader)^080h,w
	clrf	(__Package)^080h
	addwf	(__Package)^080h

	line	94
	
l13970:	
;FingerPrintSensor_R307.c: 94: SendUartValue(_Package.Header, sizeof(_Package.Header));
	movf	(__Package)^080h,w
	bcf	status, 5	;RP0=0, select bank0
	bcf	status, 6	;RP1=0, select bank0
	movwf	(?_SendUartValue)
	bsf	status, 5	;RP0=1, select bank1
	bcf	status, 6	;RP1=0, select bank1
	movf	(__Package+1)^080h,w
	bcf	status, 5	;RP0=0, select bank0
	bcf	status, 6	;RP1=0, select bank0
	movwf	((?_SendUartValue))+1
	clrf	2+((?_SendUartValue))
	clrf	3+((?_SendUartValue))
	movlw	(02h)
	movwf	(??_sendPackage+0)+0
	movf	(??_sendPackage+0)+0,w
	movwf	0+(?_SendUartValue)+04h
	fcall	_SendUartValue
	line	96
	
l13972:	
;FingerPrintSensor_R307.c: 96: _Package.Address = DefModuleAddress;
	bsf	status, 5	;RP0=1, select bank1
	bcf	status, 6	;RP1=0, select bank1
	movf	(_DefModuleAddress+3)^080h,w
	movwf	3+(__Package)^080h+02h
	movf	(_DefModuleAddress+2)^080h,w
	movwf	2+(__Package)^080h+02h
	movf	(_DefModuleAddress+1)^080h,w
	movwf	1+(__Package)^080h+02h
	movf	(_DefModuleAddress)^080h,w
	movwf	0+(__Package)^080h+02h

	line	97
	
l13974:	
;FingerPrintSensor_R307.c: 97: SendUartValue(_Package.Address, sizeof(_Package.Address));
	movlw	(02h)
	addlw	__Package&0ffh
	movwf	fsr0
	bcf	status, 7	;select IRP bank1
	movf	indf,w
	bcf	status, 5	;RP0=0, select bank0
	bcf	status, 6	;RP1=0, select bank0
	movwf	(?_SendUartValue)
	incf	fsr0,f
	movf	indf,w
	movwf	(?_SendUartValue+1)
	incf	fsr0,f
	movf	indf,w
	movwf	(?_SendUartValue+2)
	incf	fsr0,f
	movf	indf,w
	movwf	(?_SendUartValue+3)
	movlw	(04h)
	movwf	(??_sendPackage+0)+0
	movf	(??_sendPackage+0)+0,w
	movwf	0+(?_SendUartValue)+04h
	fcall	_SendUartValue
	line	99
	
l13976:	
;FingerPrintSensor_R307.c: 99: _Package.Identifier = identifier;
	bcf	status, 5	;RP0=0, select bank0
	bcf	status, 6	;RP1=0, select bank0
	movf	(sendPackage@identifier),w
	movwf	(??_sendPackage+0)+0
	movf	(??_sendPackage+0)+0,w
	bsf	status, 5	;RP0=1, select bank1
	bcf	status, 6	;RP1=0, select bank1
	movwf	0+(__Package)^080h+06h
	line	100
	
l13978:	
;FingerPrintSensor_R307.c: 100: SendUartValue(_Package.Identifier, sizeof(_Package.Identifier));
	movf	0+(__Package)^080h+06h,w
	bcf	status, 5	;RP0=0, select bank0
	bcf	status, 6	;RP1=0, select bank0
	movwf	(??_sendPackage+0)+0
	clrf	((??_sendPackage+0)+0+1)
	clrf	((??_sendPackage+0)+0+2)
	clrf	((??_sendPackage+0)+0+3)
	movf	3+(??_sendPackage+0)+0,w
	movwf	(?_SendUartValue+3)
	movf	2+(??_sendPackage+0)+0,w
	movwf	(?_SendUartValue+2)
	movf	1+(??_sendPackage+0)+0,w
	movwf	(?_SendUartValue+1)
	movf	0+(??_sendPackage+0)+0,w
	movwf	(?_SendUartValue)

	clrf	0+(?_SendUartValue)+04h
	bsf	status,0
	rlf	0+(?_SendUartValue)+04h,f
	fcall	_SendUartValue
	line	102
	
l13980:	
;FingerPrintSensor_R307.c: 102: _Package.Length = length;
	bcf	status, 5	;RP0=0, select bank0
	bcf	status, 6	;RP1=0, select bank0
	movf	(sendPackage@length),w
	movwf	(??_sendPackage+0)+0
	clrf	(??_sendPackage+0)+0+1
	movf	0+(??_sendPackage+0)+0,w
	bsf	status, 5	;RP0=1, select bank1
	bcf	status, 6	;RP1=0, select bank1
	movwf	0+(__Package)^080h+07h
	bcf	status, 5	;RP0=0, select bank0
	bcf	status, 6	;RP1=0, select bank0
	movf	1+(??_sendPackage+0)+0,w
	bsf	status, 5	;RP0=1, select bank1
	bcf	status, 6	;RP1=0, select bank1
	movwf	1+(__Package)^080h+07h
	line	103
	
l13982:	
;FingerPrintSensor_R307.c: 103: SendUartValue(_Package.Length, sizeof(_Package.Length));
	movf	0+(__Package)^080h+07h,w
	bcf	status, 5	;RP0=0, select bank0
	bcf	status, 6	;RP1=0, select bank0
	movwf	(?_SendUartValue)
	bsf	status, 5	;RP0=1, select bank1
	bcf	status, 6	;RP1=0, select bank1
	movf	1+(__Package)^080h+07h,w
	bcf	status, 5	;RP0=0, select bank0
	bcf	status, 6	;RP1=0, select bank0
	movwf	((?_SendUartValue))+1
	clrf	2+((?_SendUartValue))
	clrf	3+((?_SendUartValue))
	movlw	(02h)
	movwf	(??_sendPackage+0)+0
	movf	(??_sendPackage+0)+0,w
	movwf	0+(?_SendUartValue)+04h
	fcall	_SendUartValue
	line	105
	
l13984:	
;FingerPrintSensor_R307.c: 105: _Package.Instruction = instruction;
	bcf	status, 5	;RP0=0, select bank0
	bcf	status, 6	;RP1=0, select bank0
	movf	(sendPackage@instruction),w
	movwf	(??_sendPackage+0)+0
	movf	(??_sendPackage+0)+0,w
	bsf	status, 5	;RP0=1, select bank1
	bcf	status, 6	;RP1=0, select bank1
	movwf	0+(__Package)^080h+09h
	line	106
	
l13986:	
;FingerPrintSensor_R307.c: 106: SendUartValue(_Package.Instruction, sizeof(_Package.Instruction));
	movf	0+(__Package)^080h+09h,w
	bcf	status, 5	;RP0=0, select bank0
	bcf	status, 6	;RP1=0, select bank0
	movwf	(??_sendPackage+0)+0
	clrf	((??_sendPackage+0)+0+1)
	clrf	((??_sendPackage+0)+0+2)
	clrf	((??_sendPackage+0)+0+3)
	movf	3+(??_sendPackage+0)+0,w
	movwf	(?_SendUartValue+3)
	movf	2+(??_sendPackage+0)+0,w
	movwf	(?_SendUartValue+2)
	movf	1+(??_sendPackage+0)+0,w
	movwf	(?_SendUartValue+1)
	movf	0+(??_sendPackage+0)+0,w
	movwf	(?_SendUartValue)

	clrf	0+(?_SendUartValue)+04h
	bsf	status,0
	rlf	0+(?_SendUartValue)+04h,f
	fcall	_SendUartValue
	line	108
	
l13988:	
;FingerPrintSensor_R307.c: 108: _Package.Content = content;
	bcf	status, 5	;RP0=0, select bank0
	bcf	status, 6	;RP1=0, select bank0
	movf	(sendPackage@content),w
	movwf	(??_sendPackage+0)+0
	movf	(??_sendPackage+0)+0,w
	bsf	status, 5	;RP0=1, select bank1
	bcf	status, 6	;RP1=0, select bank1
	movwf	(0+__Package+0Ah)^080h
	line	109
	
l13990:	
;FingerPrintSensor_R307.c: 109: for(i=0; i<_Package.Length-3; i++)
	bcf	status, 5	;RP0=0, select bank0
	bcf	status, 6	;RP1=0, select bank0
	clrf	(sendPackage@i)
	clrf	(sendPackage@i+1)
	goto	l13998
	line	110
	
l3050:	
	line	111
	
l13992:	
;FingerPrintSensor_R307.c: 110: {
;FingerPrintSensor_R307.c: 111: SendUartByte(*(_Package.Content+i));
	movf	(sendPackage@i),w
	bsf	status, 5	;RP0=1, select bank1
	bcf	status, 6	;RP1=0, select bank1
	addwf	(0+__Package+0Ah)^080h,w
	bcf	status, 5	;RP0=0, select bank0
	bcf	status, 6	;RP1=0, select bank0
	movwf	(??_sendPackage+0)+0
	movf	0+(??_sendPackage+0)+0,w
	movwf	fsr0
	bcf	status, 7	;select IRP bank0
	movf	indf,w
	fcall	_SendUartByte
	line	112
	
l13994:	
;FingerPrintSensor_R307.c: 112: _Package.CheckSum += *(_Package.Content+i);
	bcf	status, 5	;RP0=0, select bank0
	bcf	status, 6	;RP1=0, select bank0
	movf	(sendPackage@i),w
	bsf	status, 5	;RP0=1, select bank1
	bcf	status, 6	;RP1=0, select bank1
	addwf	(0+__Package+0Ah)^080h,w
	bcf	status, 5	;RP0=0, select bank0
	bcf	status, 6	;RP1=0, select bank0
	movwf	(??_sendPackage+0)+0
	movf	0+(??_sendPackage+0)+0,w
	movwf	fsr0
	bcf	status, 7	;select IRP bank0
	movf	indf,w
	movwf	(??_sendPackage+1)+0
	clrf	(??_sendPackage+1)+0+1
	movf	(??_sendPackage+1)+0,w
	bsf	status, 5	;RP0=1, select bank1
	bcf	status, 6	;RP1=0, select bank1
	addwf	0+(__Package)^080h+0Bh,f
	skipnc
	incf	1+(__Package)^080h+0Bh,f
	bcf	status, 5	;RP0=0, select bank0
	bcf	status, 6	;RP1=0, select bank0
	movf	(??_sendPackage+1)+1,w
	bsf	status, 5	;RP0=1, select bank1
	bcf	status, 6	;RP1=0, select bank1
	addwf	1+(__Package)^080h+0Bh,f
	line	109
	
l13996:	
	movlw	low(01h)
	bcf	status, 5	;RP0=0, select bank0
	bcf	status, 6	;RP1=0, select bank0
	addwf	(sendPackage@i),f
	skipnc
	incf	(sendPackage@i+1),f
	movlw	high(01h)
	addwf	(sendPackage@i+1),f
	goto	l13998
	
l3049:	
	
l13998:	
	bsf	status, 5	;RP0=1, select bank1
	bcf	status, 6	;RP1=0, select bank1
	movf	0+(__Package)^080h+07h,w
	addlw	low(0FFFDh)
	bcf	status, 5	;RP0=0, select bank0
	bcf	status, 6	;RP1=0, select bank0
	movwf	(??_sendPackage+0)+0
	bsf	status, 5	;RP0=1, select bank1
	bcf	status, 6	;RP1=0, select bank1
	movf	1+(__Package)^080h+07h,w
	skipnc
	addlw	1
	addlw	high(0FFFDh)
	bcf	status, 5	;RP0=0, select bank0
	bcf	status, 6	;RP1=0, select bank0
	movwf	1+(??_sendPackage+0)+0
	movf	1+(??_sendPackage+0)+0,w
	subwf	(sendPackage@i+1),w
	skipz
	goto	u14455
	movf	0+(??_sendPackage+0)+0,w
	subwf	(sendPackage@i),w
u14455:
	skipc
	goto	u14451
	goto	u14450
u14451:
	goto	l13992
u14450:
	goto	l14000
	
l3051:	
	line	115
	
l14000:	
;FingerPrintSensor_R307.c: 113: }
;FingerPrintSensor_R307.c: 114: _Package.CheckSum += _Package.Identifier + (unsigned char)(_Package.Length >> 8) +
;FingerPrintSensor_R307.c: 115: (unsigned char)(_Package.Length & 0xFF) + _Package.Instruction;
	movlw	(07h)
	addlw	__Package&0ffh
	movwf	fsr0
	bcf	status, 7	;select IRP bank1
	movf	indf,w
	movwf	(??_sendPackage+0)+0+0
	incf	fsr0,f
	movf	indf,w
	movwf	(??_sendPackage+0)+0+1
	movlw	08h
u14465:
	clrc
	rrf	(??_sendPackage+0)+1,f
	rrf	(??_sendPackage+0)+0,f
	addlw	-1
	skipz
	goto	u14465
	bsf	status, 5	;RP0=1, select bank1
	bcf	status, 6	;RP1=0, select bank1
	movf	0+(__Package)^080h+06h,w
	bcf	status, 5	;RP0=0, select bank0
	bcf	status, 6	;RP1=0, select bank0
	addwf	0+(??_sendPackage+0)+0,w
	movwf	(??_sendPackage+2)+0
	clrf	(??_sendPackage+2)+0+1
	rlf	1+(??_sendPackage+2)+0,f
	
	bsf	status, 5	;RP0=1, select bank1
	bcf	status, 6	;RP1=0, select bank1
	movf	0+(__Package)^080h+07h,w
	bcf	status, 5	;RP0=0, select bank0
	bcf	status, 6	;RP1=0, select bank0
	addwf	0+(??_sendPackage+2)+0,w
	movwf	(??_sendPackage+4)+0
	movlw	0
	skipnc
	movlw	1
	addwf	1+(??_sendPackage+2)+0,w
	movwf	1+(??_sendPackage+4)+0
	bsf	status, 5	;RP0=1, select bank1
	bcf	status, 6	;RP1=0, select bank1
	movf	0+(__Package)^080h+09h,w
	bcf	status, 5	;RP0=0, select bank0
	bcf	status, 6	;RP1=0, select bank0
	addwf	0+(??_sendPackage+4)+0,w
	movwf	(??_sendPackage+6)+0
	movlw	0
	skipnc
	movlw	1
	addwf	1+(??_sendPackage+4)+0,w
	movwf	1+(??_sendPackage+6)+0
	movf	(??_sendPackage+6)+0,w
	bsf	status, 5	;RP0=1, select bank1
	bcf	status, 6	;RP1=0, select bank1
	addwf	0+(__Package)^080h+0Bh,f
	skipnc
	incf	1+(__Package)^080h+0Bh,f
	bcf	status, 5	;RP0=0, select bank0
	bcf	status, 6	;RP1=0, select bank0
	movf	(??_sendPackage+6)+1,w
	bsf	status, 5	;RP0=1, select bank1
	bcf	status, 6	;RP1=0, select bank1
	addwf	1+(__Package)^080h+0Bh,f
	line	117
	
l14002:	
;FingerPrintSensor_R307.c: 117: SendUartValue(_Package.CheckSum, sizeof(_Package.CheckSum));
	movf	0+(__Package)^080h+0Bh,w
	bcf	status, 5	;RP0=0, select bank0
	bcf	status, 6	;RP1=0, select bank0
	movwf	(?_SendUartValue)
	bsf	status, 5	;RP0=1, select bank1
	bcf	status, 6	;RP1=0, select bank1
	movf	1+(__Package)^080h+0Bh,w
	bcf	status, 5	;RP0=0, select bank0
	bcf	status, 6	;RP1=0, select bank0
	movwf	((?_SendUartValue))+1
	clrf	2+((?_SendUartValue))
	clrf	3+((?_SendUartValue))
	movlw	(02h)
	movwf	(??_sendPackage+0)+0
	movf	(??_sendPackage+0)+0,w
	movwf	0+(?_SendUartValue)+04h
	fcall	_SendUartValue
	line	118
	
l3052:	
	return
	opt stack 0
GLOBAL	__end_of_sendPackage
	__end_of_sendPackage:
;; =============== function _sendPackage ends ============

	signat	_sendPackage,16504
	global	_KeyScan
psect	text4256,local,class=CODE,delta=2
global __ptext4256
__ptext4256:

;; *************** function _KeyScan *****************
;; Defined at:
;;		line 45 in file "C:\Users\GauravLT\Desktop\Finger Print Sensor\R307\PIC16F877A_R307\keypd.c"
;; Parameters:    Size  Location     Type
;;		None
;; Auto vars:     Size  Location     Type
;;  keyNo           1    5[BANK0 ] unsigned char 
;; Return value:  Size  Location     Type
;;		None               void
;; Registers used:
;;		wreg, fsr0l, fsr0h, status,2, status,0, pclath, cstack
;; Tracked objects:
;;		On entry : 0/0
;;		On exit  : 0/0
;;		Unchanged: 0/0
;; Data sizes:     COMMON   BANK0   BANK1   BANK3   BANK2
;;      Params:         0       0       0       0       0
;;      Locals:         0       1       0       0       0
;;      Temps:          0       1       0       0       0
;;      Totals:         0       2       0       0       0
;;Total ram usage:        2 bytes
;; Hardware stack levels used:    1
;; Hardware stack levels required when called:    4
;; This function calls:
;;		_PutKey
;; This function is called by:
;;		_DeleteUserAfterAdminConfirm
;;		_menu
;;		_HiSpeedScan0
;;		_AddNewUser
;; This function uses a non-reentrant model
;;
psect	text4256
	file	"C:\Users\GauravLT\Desktop\Finger Print Sensor\R307\PIC16F877A_R307\keypd.c"
	line	45
	global	__size_of_KeyScan
	__size_of_KeyScan	equ	__end_of_KeyScan-_KeyScan
	
_KeyScan:	
	opt	stack 2
; Regs used in _KeyScan: [wreg-fsr0h+status,2+status,0+pclath+cstack]
	line	46
	
l13922:	
;keypd.c: 46: unsigned char keyNo=0;
	bcf	status, 5	;RP0=0, select bank0
	bcf	status, 6	;RP1=0, select bank0
	clrf	(KeyScan@keyNo)
	line	52
;keypd.c: 52: if(RC0 == 1 && RC1 == 0 && RC2 == 0 && RC3 == 0)
	btfss	(56/8),(56)&7
	goto	u14241
	goto	u14240
u14241:
	goto	l2279
u14240:
	
l13924:	
	btfsc	(57/8),(57)&7
	goto	u14251
	goto	u14250
u14251:
	goto	l2279
u14250:
	
l13926:	
	btfsc	(58/8),(58)&7
	goto	u14261
	goto	u14260
u14261:
	goto	l2279
u14260:
	
l13928:	
	btfsc	(59/8),(59)&7
	goto	u14271
	goto	u14270
u14271:
	goto	l2279
u14270:
	goto	l2280
	line	54
	
l13930:	
;keypd.c: 53: {
;keypd.c: 54: while(RC0 ==1);
	goto	l2280
	
l2281:	
	
l2280:	
	btfsc	(56/8),(56)&7
	goto	u14281
	goto	u14280
u14281:
	goto	l2280
u14280:
	goto	l13932
	
l2282:	
	line	55
	
l13932:	
;keypd.c: 55: keyNo = '3';
	movlw	(033h)
	movwf	(??_KeyScan+0)+0
	movf	(??_KeyScan+0)+0,w
	movwf	(KeyScan@keyNo)
	line	56
;keypd.c: 56: }
	goto	l2283
	line	57
	
l2279:	
;keypd.c: 57: else if(RC0 == 0 && RC1 == 1 && RC2 == 0 && RC3 == 0)
	btfsc	(56/8),(56)&7
	goto	u14291
	goto	u14290
u14291:
	goto	l2284
u14290:
	
l13934:	
	btfss	(57/8),(57)&7
	goto	u14301
	goto	u14300
u14301:
	goto	l2284
u14300:
	
l13936:	
	btfsc	(58/8),(58)&7
	goto	u14311
	goto	u14310
u14311:
	goto	l2284
u14310:
	
l13938:	
	btfsc	(59/8),(59)&7
	goto	u14321
	goto	u14320
u14321:
	goto	l2284
u14320:
	goto	l2285
	line	59
	
l13940:	
;keypd.c: 58: {
;keypd.c: 59: while(RC1 ==1);
	goto	l2285
	
l2286:	
	
l2285:	
	btfsc	(57/8),(57)&7
	goto	u14331
	goto	u14330
u14331:
	goto	l2285
u14330:
	goto	l13942
	
l2287:	
	line	60
	
l13942:	
;keypd.c: 60: keyNo = '4';
	movlw	(034h)
	movwf	(??_KeyScan+0)+0
	movf	(??_KeyScan+0)+0,w
	movwf	(KeyScan@keyNo)
	line	61
;keypd.c: 61: }
	goto	l2283
	line	62
	
l2284:	
;keypd.c: 62: else if(RC0 == 0 && RC1 == 0 && RC2 == 1 && RC3 == 0)
	btfsc	(56/8),(56)&7
	goto	u14341
	goto	u14340
u14341:
	goto	l2289
u14340:
	
l13944:	
	btfsc	(57/8),(57)&7
	goto	u14351
	goto	u14350
u14351:
	goto	l2289
u14350:
	
l13946:	
	btfss	(58/8),(58)&7
	goto	u14361
	goto	u14360
u14361:
	goto	l2289
u14360:
	
l13948:	
	btfsc	(59/8),(59)&7
	goto	u14371
	goto	u14370
u14371:
	goto	l2289
u14370:
	goto	l2290
	line	64
	
l13950:	
;keypd.c: 63: {
;keypd.c: 64: while(RC2 ==1);
	goto	l2290
	
l2291:	
	
l2290:	
	btfsc	(58/8),(58)&7
	goto	u14381
	goto	u14380
u14381:
	goto	l2290
u14380:
	goto	l13952
	
l2292:	
	line	65
	
l13952:	
;keypd.c: 65: keyNo = '2';
	movlw	(032h)
	movwf	(??_KeyScan+0)+0
	movf	(??_KeyScan+0)+0,w
	movwf	(KeyScan@keyNo)
	line	66
;keypd.c: 66: }
	goto	l2283
	line	67
	
l2289:	
;keypd.c: 67: else if(RC0 == 0 && RC1 == 0 && RC2 == 0 && RC3 == 1)
	btfsc	(56/8),(56)&7
	goto	u14391
	goto	u14390
u14391:
	goto	l2283
u14390:
	
l13954:	
	btfsc	(57/8),(57)&7
	goto	u14401
	goto	u14400
u14401:
	goto	l2283
u14400:
	
l13956:	
	btfsc	(58/8),(58)&7
	goto	u14411
	goto	u14410
u14411:
	goto	l2283
u14410:
	
l13958:	
	btfss	(59/8),(59)&7
	goto	u14421
	goto	u14420
u14421:
	goto	l2283
u14420:
	goto	l2295
	line	69
	
l13960:	
;keypd.c: 68: {
;keypd.c: 69: while(RC3 ==1);
	goto	l2295
	
l2296:	
	
l2295:	
	btfsc	(59/8),(59)&7
	goto	u14431
	goto	u14430
u14431:
	goto	l2295
u14430:
	goto	l13962
	
l2297:	
	line	70
	
l13962:	
;keypd.c: 70: keyNo = '1';
	movlw	(031h)
	movwf	(??_KeyScan+0)+0
	movf	(??_KeyScan+0)+0,w
	movwf	(KeyScan@keyNo)
	goto	l2283
	line	71
	
l2294:	
	goto	l2283
	line	72
	
l2293:	
	goto	l2283
	
l2288:	
	
l2283:	
;keypd.c: 71: }
;keypd.c: 72: if(keyNo != 0) PutKey(keyNo);
	movf	(KeyScan@keyNo),w
	skipz
	goto	u14440
	goto	l2299
u14440:
	
l13964:	
	movf	(KeyScan@keyNo),w
	fcall	_PutKey
	goto	l2299
	
l2298:	
	line	73
	
l2299:	
	return
	opt stack 0
GLOBAL	__end_of_KeyScan
	__end_of_KeyScan:
;; =============== function _KeyScan ends ============

	signat	_KeyScan,88
	global	_DecToStr
psect	text4257,local,class=CODE,delta=2
global __ptext4257
__ptext4257:

;; *************** function _DecToStr *****************
;; Defined at:
;;		line 106 in file "C:\Users\GauravLT\Desktop\Finger Print Sensor\R307\PIC16F877A_R307\eeprom.c"
;; Parameters:    Size  Location     Type
;;  val             4   20[BANK0 ] unsigned long 
;;  dest            2   24[BANK0 ] PTR unsigned char 
;;		 -> DeleteUserAfterAdminConfirm@buff_2234(10), DeleteUserAfterAdminConfirm@buff(5), AddNewUserAfterAdminConfirm@buff(10), ControlAccess@buff(10), 
;;  minDigit        1   26[BANK0 ] unsigned char 
;; Auto vars:     Size  Location     Type
;;  len             1   30[BANK0 ] unsigned char 
;; Return value:  Size  Location     Type
;;		None               void
;; Registers used:
;;		wreg, fsr0l, fsr0h, status,2, status,0, pclath, cstack
;; Tracked objects:
;;		On entry : 0/0
;;		On exit  : 0/0
;;		Unchanged: 0/0
;; Data sizes:     COMMON   BANK0   BANK1   BANK3   BANK2
;;      Params:         0       7       0       0       0
;;      Locals:         0       1       0       0       0
;;      Temps:          0       3       0       0       0
;;      Totals:         0      11       0       0       0
;;Total ram usage:       11 bytes
;; Hardware stack levels used:    1
;; Hardware stack levels required when called:    4
;; This function calls:
;;		_TotDigits
;;		___llmod
;;		___lldiv
;; This function is called by:
;;		_ControlAccess
;;		_AddNewUserAfterAdminConfirm
;;		_DeleteUserAfterAdminConfirm
;; This function uses a non-reentrant model
;;
psect	text4257
	file	"C:\Users\GauravLT\Desktop\Finger Print Sensor\R307\PIC16F877A_R307\eeprom.c"
	line	106
	global	__size_of_DecToStr
	__size_of_DecToStr	equ	__end_of_DecToStr-_DecToStr
	
_DecToStr:	
	opt	stack 2
; Regs used in _DecToStr: [wreg-fsr0h+status,2+status,0+pclath+cstack]
	line	107
	
l13904:	
;eeprom.c: 107: unsigned char len = TotDigits(val);
	bcf	status, 5	;RP0=0, select bank0
	bcf	status, 6	;RP1=0, select bank0
	movf	(DecToStr@val+3),w
	movwf	(?_TotDigits+3)
	movf	(DecToStr@val+2),w
	movwf	(?_TotDigits+2)
	movf	(DecToStr@val+1),w
	movwf	(?_TotDigits+1)
	movf	(DecToStr@val),w
	movwf	(?_TotDigits)

	fcall	_TotDigits
	bcf	status, 5	;RP0=0, select bank0
	bcf	status, 6	;RP1=0, select bank0
	movwf	(??_DecToStr+0)+0
	movf	(??_DecToStr+0)+0,w
	movwf	(DecToStr@len)
	line	108
	
l13906:	
;eeprom.c: 108: if(len<minDigit) len = minDigit;
	movf	(DecToStr@minDigit),w
	subwf	(DecToStr@len),w
	skipnc
	goto	u14221
	goto	u14220
u14221:
	goto	l13910
u14220:
	
l13908:	
	movf	(DecToStr@minDigit),w
	movwf	(??_DecToStr+0)+0
	movf	(??_DecToStr+0)+0,w
	movwf	(DecToStr@len)
	goto	l13910
	
l3961:	
	line	109
	
l13910:	
;eeprom.c: 109: *(dest+len)=0;
	movf	(DecToStr@len),w
	addwf	(DecToStr@dest),w
	movwf	(??_DecToStr+0)+0
	movf	(DecToStr@dest+1),w
	skipnc
	addlw	1
	movwf	1+((??_DecToStr+0)+0)
	movf	0+(??_DecToStr+0)+0,w
	movwf	fsr0
	bsf	status,7
	btfss	1+(??_DecToStr+0)+0,0
	bcf	status,7
	clrf	indf
	line	110
	
l13912:	
;eeprom.c: 110: len--;
	movlw	low(01h)
	subwf	(DecToStr@len),f
	line	111
;eeprom.c: 111: while(len!=0xFF)
	goto	l13920
	
l3963:	
	line	114
	
l13914:	
;eeprom.c: 112: {
;eeprom.c: 114: *(dest+len) = '0' + val%10;
	movlw	0
	movwf	(?___llmod+3)
	movlw	0
	movwf	(?___llmod+2)
	movlw	0
	movwf	(?___llmod+1)
	movlw	0Ah
	movwf	(?___llmod)

	movf	(DecToStr@val+3),w
	movwf	3+(?___llmod)+04h
	movf	(DecToStr@val+2),w
	movwf	2+(?___llmod)+04h
	movf	(DecToStr@val+1),w
	movwf	1+(?___llmod)+04h
	movf	(DecToStr@val),w
	movwf	0+(?___llmod)+04h

	fcall	___llmod
	bcf	status, 5	;RP0=0, select bank0
	bcf	status, 6	;RP1=0, select bank0
	movf	0+(((0+(?___llmod)))),w
	addlw	030h
	movwf	(??_DecToStr+0)+0
	movf	(DecToStr@len),w
	addwf	(DecToStr@dest),w
	movwf	(??_DecToStr+1)+0
	movf	(DecToStr@dest+1),w
	skipnc
	addlw	1
	movwf	1+((??_DecToStr+1)+0)
	movf	0+(??_DecToStr+1)+0,w
	movwf	fsr0
	bsf	status,7
	btfss	1+(??_DecToStr+1)+0,0
	bcf	status,7
	movf	(??_DecToStr+0)+0,w
	movwf	indf
	line	117
	
l13916:	
;eeprom.c: 117: len--;
	movlw	low(01h)
	subwf	(DecToStr@len),f
	line	118
	
l13918:	
;eeprom.c: 118: val=val/10;
	movlw	0
	movwf	(?___lldiv+3)
	movlw	0
	movwf	(?___lldiv+2)
	movlw	0
	movwf	(?___lldiv+1)
	movlw	0Ah
	movwf	(?___lldiv)

	movf	(DecToStr@val+3),w
	movwf	3+(?___lldiv)+04h
	movf	(DecToStr@val+2),w
	movwf	2+(?___lldiv)+04h
	movf	(DecToStr@val+1),w
	movwf	1+(?___lldiv)+04h
	movf	(DecToStr@val),w
	movwf	0+(?___lldiv)+04h

	fcall	___lldiv
	bcf	status, 5	;RP0=0, select bank0
	bcf	status, 6	;RP1=0, select bank0
	movf	(3+(?___lldiv)),w
	movwf	(DecToStr@val+3)
	movf	(2+(?___lldiv)),w
	movwf	(DecToStr@val+2)
	movf	(1+(?___lldiv)),w
	movwf	(DecToStr@val+1)
	movf	(0+(?___lldiv)),w
	movwf	(DecToStr@val)

	goto	l13920
	line	119
	
l3962:	
	line	111
	
l13920:	
	movf	(DecToStr@len),w
	xorlw	0FFh
	skipz
	goto	u14231
	goto	u14230
u14231:
	goto	l13914
u14230:
	goto	l3965
	
l3964:	
	line	120
	
l3965:	
	return
	opt stack 0
GLOBAL	__end_of_DecToStr
	__end_of_DecToStr:
;; =============== function _DecToStr ends ============

	signat	_DecToStr,12408
	global	_UploadLcdBuffer
psect	text4258,local,class=CODE,delta=2
global __ptext4258
__ptext4258:

;; *************** function _UploadLcdBuffer *****************
;; Defined at:
;;		line 26 in file "C:\Users\GauravLT\Desktop\Finger Print Sensor\R307\PIC16F877A_R307\lcd.c"
;; Parameters:    Size  Location     Type
;;		None
;; Auto vars:     Size  Location     Type
;;  j               1   10[BANK0 ] unsigned char 
;;  i               1    9[BANK0 ] unsigned char 
;; Return value:  Size  Location     Type
;;		None               void
;; Registers used:
;;		wreg, fsr0l, fsr0h, status,2, status,0, pclath, cstack
;; Tracked objects:
;;		On entry : 0/0
;;		On exit  : 0/0
;;		Unchanged: 0/0
;; Data sizes:     COMMON   BANK0   BANK1   BANK3   BANK2
;;      Params:         0       0       0       0       0
;;      Locals:         0       2       0       0       0
;;      Temps:          0       4       0       0       0
;;      Totals:         0       6       0       0       0
;;Total ram usage:        6 bytes
;; Hardware stack levels used:    1
;; Hardware stack levels required when called:    4
;; This function calls:
;;		_SendByte
;; This function is called by:
;;		_LcdPrint
;;		_LcdByte
;; This function uses a non-reentrant model
;;
psect	text4258
	file	"C:\Users\GauravLT\Desktop\Finger Print Sensor\R307\PIC16F877A_R307\lcd.c"
	line	26
	global	__size_of_UploadLcdBuffer
	__size_of_UploadLcdBuffer	equ	__end_of_UploadLcdBuffer-_UploadLcdBuffer
	
_UploadLcdBuffer:	
	opt	stack 1
; Regs used in _UploadLcdBuffer: [wreg-fsr0h+status,2+status,0+pclath+cstack]
	line	29
	
l13880:	
;lcd.c: 27: unsigned char i,j;
;lcd.c: 29: SendByte(Cmd, 0x01);
	bcf	status, 5	;RP0=0, select bank0
	bcf	status, 6	;RP1=0, select bank0
	clrf	(?_SendByte)
	bsf	status,0
	rlf	(?_SendByte),f
	movlw	(0)
	fcall	_SendByte
	line	30
;lcd.c: 30: SendByte(Cmd, 0x80);
	movlw	(080h)
	bcf	status, 5	;RP0=0, select bank0
	bcf	status, 6	;RP1=0, select bank0
	movwf	(??_UploadLcdBuffer+0)+0
	movf	(??_UploadLcdBuffer+0)+0,w
	movwf	(?_SendByte)
	movlw	(0)
	fcall	_SendByte
	line	31
	
l13882:	
;lcd.c: 31: for(i=0; i<2; i++)
	bcf	status, 5	;RP0=0, select bank0
	bcf	status, 6	;RP1=0, select bank0
	clrf	(UploadLcdBuffer@i)
	
l13884:	
	movlw	(02h)
	subwf	(UploadLcdBuffer@i),w
	skipc
	goto	u14171
	goto	u14170
u14171:
	goto	l698
u14170:
	goto	l702
	
l13886:	
	goto	l702
	line	32
	
l698:	
	line	33
;lcd.c: 32: {
;lcd.c: 33: for(j=0; j<16; j++)
	clrf	(UploadLcdBuffer@j)
	
l13888:	
	movlw	(010h)
	subwf	(UploadLcdBuffer@j),w
	skipc
	goto	u14181
	goto	u14180
u14181:
	goto	l13892
u14180:
	goto	l13898
	
l13890:	
	goto	l13898
	line	34
	
l700:	
	line	35
	
l13892:	
;lcd.c: 34: {
;lcd.c: 35: SendByte(Data, LcdBuffer[i][j]);
	movf	(UploadLcdBuffer@i),w
	movwf	(??_UploadLcdBuffer+0)+0
	movlw	04h
u14195:
	clrc
	rlf	(??_UploadLcdBuffer+0)+0,f
	addlw	-1
	skipz
	goto	u14195
	movlw	(_LcdBuffer)&0ffh
	addwf	0+(??_UploadLcdBuffer+0)+0,w
	movwf	(??_UploadLcdBuffer+1)+0
	movf	(UploadLcdBuffer@j),w
	addwf	0+(??_UploadLcdBuffer+1)+0,w
	movwf	(??_UploadLcdBuffer+2)+0
	movf	0+(??_UploadLcdBuffer+2)+0,w
	movwf	fsr0
	bsf	status, 7	;select IRP bank3
	movf	indf,w
	movwf	(??_UploadLcdBuffer+3)+0
	movf	(??_UploadLcdBuffer+3)+0,w
	movwf	(?_SendByte)
	movlw	(01h)
	fcall	_SendByte
	line	33
	
l13894:	
	movlw	(01h)
	bcf	status, 5	;RP0=0, select bank0
	bcf	status, 6	;RP1=0, select bank0
	movwf	(??_UploadLcdBuffer+0)+0
	movf	(??_UploadLcdBuffer+0)+0,w
	addwf	(UploadLcdBuffer@j),f
	
l13896:	
	movlw	(010h)
	subwf	(UploadLcdBuffer@j),w
	skipc
	goto	u14201
	goto	u14200
u14201:
	goto	l13892
u14200:
	goto	l13898
	
l701:	
	line	37
	
l13898:	
;lcd.c: 36: }
;lcd.c: 37: SendByte(Cmd, 0xC0);
	movlw	(0C0h)
	movwf	(??_UploadLcdBuffer+0)+0
	movf	(??_UploadLcdBuffer+0)+0,w
	movwf	(?_SendByte)
	movlw	(0)
	fcall	_SendByte
	line	31
	
l13900:	
	movlw	(01h)
	bcf	status, 5	;RP0=0, select bank0
	bcf	status, 6	;RP1=0, select bank0
	movwf	(??_UploadLcdBuffer+0)+0
	movf	(??_UploadLcdBuffer+0)+0,w
	addwf	(UploadLcdBuffer@i),f
	
l13902:	
	movlw	(02h)
	subwf	(UploadLcdBuffer@i),w
	skipc
	goto	u14211
	goto	u14210
u14211:
	goto	l698
u14210:
	goto	l702
	
l699:	
	line	39
	
l702:	
	return
	opt stack 0
GLOBAL	__end_of_UploadLcdBuffer
	__end_of_UploadLcdBuffer:
;; =============== function _UploadLcdBuffer ends ============

	signat	_UploadLcdBuffer,88
	global	_LcdClear
psect	text4259,local,class=CODE,delta=2
global __ptext4259
__ptext4259:

;; *************** function _LcdClear *****************
;; Defined at:
;;		line 41 in file "C:\Users\GauravLT\Desktop\Finger Print Sensor\R307\PIC16F877A_R307\lcd.c"
;; Parameters:    Size  Location     Type
;;		None
;; Auto vars:     Size  Location     Type
;;		None
;; Return value:  Size  Location     Type
;;		None               void
;; Registers used:
;;		wreg, fsr0l, fsr0h, status,2, status,0, pclath, cstack
;; Tracked objects:
;;		On entry : 0/0
;;		On exit  : 0/0
;;		Unchanged: 0/0
;; Data sizes:     COMMON   BANK0   BANK1   BANK3   BANK2
;;      Params:         0       0       0       0       0
;;      Locals:         0       0       0       0       0
;;      Temps:          0       0       0       0       0
;;      Totals:         0       0       0       0       0
;;Total ram usage:        0 bytes
;; Hardware stack levels used:    1
;; Hardware stack levels required when called:    4
;; This function calls:
;;		_memset1
;;		_SendByte
;; This function is called by:
;;		_LcdInit
;;		_EraseAllUsersAfterAdminConfirm
;;		_ControlAccess
;;		_AlterAdminUser
;;		_AddNewUserAfterAdminConfirm
;;		_DeleteUserAfterAdminConfirm
;;		_menu
;; This function uses a non-reentrant model
;;
psect	text4259
	file	"C:\Users\GauravLT\Desktop\Finger Print Sensor\R307\PIC16F877A_R307\lcd.c"
	line	41
	global	__size_of_LcdClear
	__size_of_LcdClear	equ	__end_of_LcdClear-_LcdClear
	
_LcdClear:	
	opt	stack 2
; Regs used in _LcdClear: [wreg-fsr0h+status,2+status,0+pclath+cstack]
	line	42
	
l13876:	
;lcd.c: 42: memset1((unsigned char *)&LcdBuffer, 0, sizeof(LcdBuffer));
	movlw	(_LcdBuffer&0ffh)
	bcf	status, 5	;RP0=0, select bank0
	bcf	status, 6	;RP1=0, select bank0
	movwf	(?_memset1)
	movlw	(0x3/2)
	movwf	(?_memset1+1)
	clrf	0+(?_memset1)+02h
	movlw	low(020h)
	movwf	0+(?_memset1)+03h
	movlw	high(020h)
	movwf	(0+(?_memset1)+03h)+1
	fcall	_memset1
	line	43
	
l13878:	
;lcd.c: 43: SendByte(Cmd, 0x01);
	bcf	status, 5	;RP0=0, select bank0
	bcf	status, 6	;RP1=0, select bank0
	clrf	(?_SendByte)
	bsf	status,0
	rlf	(?_SendByte),f
	movlw	(0)
	fcall	_SendByte
	line	44
	
l705:	
	return
	opt stack 0
GLOBAL	__end_of_LcdClear
	__end_of_LcdClear:
;; =============== function _LcdClear ends ============

	signat	_LcdClear,88
	global	_TotDigits
psect	text4260,local,class=CODE,delta=2
global __ptext4260
__ptext4260:

;; *************** function _TotDigits *****************
;; Defined at:
;;		line 95 in file "C:\Users\GauravLT\Desktop\Finger Print Sensor\R307\PIC16F877A_R307\eeprom.c"
;; Parameters:    Size  Location     Type
;;  val             4   14[BANK0 ] unsigned long 
;; Auto vars:     Size  Location     Type
;;  result          1   19[BANK0 ] unsigned char 
;; Return value:  Size  Location     Type
;;                  1    wreg      unsigned char 
;; Registers used:
;;		wreg, status,2, status,0, pclath, cstack
;; Tracked objects:
;;		On entry : 0/0
;;		On exit  : 0/0
;;		Unchanged: 0/0
;; Data sizes:     COMMON   BANK0   BANK1   BANK3   BANK2
;;      Params:         0       4       0       0       0
;;      Locals:         0       1       0       0       0
;;      Temps:          0       1       0       0       0
;;      Totals:         0       6       0       0       0
;;Total ram usage:        6 bytes
;; Hardware stack levels used:    1
;; Hardware stack levels required when called:    3
;; This function calls:
;;		___lldiv
;; This function is called by:
;;		_DecToStr
;; This function uses a non-reentrant model
;;
psect	text4260
	file	"C:\Users\GauravLT\Desktop\Finger Print Sensor\R307\PIC16F877A_R307\eeprom.c"
	line	95
	global	__size_of_TotDigits
	__size_of_TotDigits	equ	__end_of_TotDigits-_TotDigits
	
_TotDigits:	
	opt	stack 2
; Regs used in _TotDigits: [wreg+status,2+status,0+pclath+cstack]
	line	96
	
l13864:	
;eeprom.c: 96: unsigned char result = 0;
	bcf	status, 5	;RP0=0, select bank0
	bcf	status, 6	;RP1=0, select bank0
	clrf	(TotDigits@result)
	line	97
;eeprom.c: 97: while(val!=0)
	goto	l13870
	
l3956:	
	line	99
	
l13866:	
;eeprom.c: 98: {
;eeprom.c: 99: val=val/10;
	movlw	0
	movwf	(?___lldiv+3)
	movlw	0
	movwf	(?___lldiv+2)
	movlw	0
	movwf	(?___lldiv+1)
	movlw	0Ah
	movwf	(?___lldiv)

	movf	(TotDigits@val+3),w
	movwf	3+(?___lldiv)+04h
	movf	(TotDigits@val+2),w
	movwf	2+(?___lldiv)+04h
	movf	(TotDigits@val+1),w
	movwf	1+(?___lldiv)+04h
	movf	(TotDigits@val),w
	movwf	0+(?___lldiv)+04h

	fcall	___lldiv
	bcf	status, 5	;RP0=0, select bank0
	bcf	status, 6	;RP1=0, select bank0
	movf	(3+(?___lldiv)),w
	movwf	(TotDigits@val+3)
	movf	(2+(?___lldiv)),w
	movwf	(TotDigits@val+2)
	movf	(1+(?___lldiv)),w
	movwf	(TotDigits@val+1)
	movf	(0+(?___lldiv)),w
	movwf	(TotDigits@val)

	line	100
	
l13868:	
;eeprom.c: 100: result++;
	movlw	(01h)
	movwf	(??_TotDigits+0)+0
	movf	(??_TotDigits+0)+0,w
	addwf	(TotDigits@result),f
	goto	l13870
	line	101
	
l3955:	
	line	97
	
l13870:	
	movf	(TotDigits@val+3),w
	iorwf	(TotDigits@val+2),w
	iorwf	(TotDigits@val+1),w
	iorwf	(TotDigits@val),w
	skipz
	goto	u14161
	goto	u14160
u14161:
	goto	l13866
u14160:
	goto	l13872
	
l3957:	
	line	102
	
l13872:	
;eeprom.c: 101: }
;eeprom.c: 102: return result;
	movf	(TotDigits@result),w
	goto	l3958
	
l13874:	
	line	103
	
l3958:	
	return
	opt stack 0
GLOBAL	__end_of_TotDigits
	__end_of_TotDigits:
;; =============== function _TotDigits ends ============

	signat	_TotDigits,4217
	global	_reserveEElocation
psect	text4261,local,class=CODE,delta=2
global __ptext4261
__ptext4261:

;; *************** function _reserveEElocation *****************
;; Defined at:
;;		line 28 in file "C:\Users\GauravLT\Desktop\Finger Print Sensor\R307\PIC16F877A_R307\eeprom.c"
;; Parameters:    Size  Location     Type
;;  loc             1    wreg     unsigned char 
;; Auto vars:     Size  Location     Type
;;  loc             1    6[BANK0 ] unsigned char 
;; Return value:  Size  Location     Type
;;		None               void
;; Registers used:
;;		wreg, status,2, status,0, pclath, cstack
;; Tracked objects:
;;		On entry : 0/0
;;		On exit  : 0/0
;;		Unchanged: 0/0
;; Data sizes:     COMMON   BANK0   BANK1   BANK3   BANK2
;;      Params:         0       0       0       0       0
;;      Locals:         0       1       0       0       0
;;      Temps:          0       1       0       0       0
;;      Totals:         0       2       0       0       0
;;Total ram usage:        2 bytes
;; Hardware stack levels used:    1
;; Hardware stack levels required when called:    3
;; This function calls:
;;		_ee_write
;;		_ee_read
;; This function is called by:
;;		_AddNewUser
;; This function uses a non-reentrant model
;;
psect	text4261
	file	"C:\Users\GauravLT\Desktop\Finger Print Sensor\R307\PIC16F877A_R307\eeprom.c"
	line	28
	global	__size_of_reserveEElocation
	__size_of_reserveEElocation	equ	__end_of_reserveEElocation-_reserveEElocation
	
_reserveEElocation:	
	opt	stack 2
; Regs used in _reserveEElocation: [wreg+status,2+status,0+pclath+cstack]
;reserveEElocation@loc stored from wreg
	bcf	status, 5	;RP0=0, select bank0
	bcf	status, 6	;RP1=0, select bank0
	movwf	(reserveEElocation@loc)
	line	29
	
l13858:	
;eeprom.c: 29: ee_write(loc, 0x01);
	clrf	(?_ee_write)
	bsf	status,0
	rlf	(?_ee_write),f
	movf	(reserveEElocation@loc),w
	fcall	_ee_write
	line	30
	
l13860:	
;eeprom.c: 30: if(loc != 0) ee_write(30, ee_read(30)+1);
	bcf	status, 5	;RP0=0, select bank0
	bcf	status, 6	;RP1=0, select bank0
	movf	(reserveEElocation@loc),w
	skipz
	goto	u14150
	goto	l3916
u14150:
	
l13862:	
	movlw	(01Eh)
	fcall	_ee_read
	addlw	01h
	bcf	status, 5	;RP0=0, select bank0
	bcf	status, 6	;RP1=0, select bank0
	movwf	(??_reserveEElocation+0)+0
	movf	(??_reserveEElocation+0)+0,w
	movwf	(?_ee_write)
	movlw	(01Eh)
	fcall	_ee_write
	goto	l3916
	
l3915:	
	line	31
	
l3916:	
	return
	opt stack 0
GLOBAL	__end_of_reserveEElocation
	__end_of_reserveEElocation:
;; =============== function _reserveEElocation ends ============

	signat	_reserveEElocation,4216
	global	_FillUpResponse
psect	text4262,local,class=CODE,delta=2
global __ptext4262
__ptext4262:

;; *************** function _FillUpResponse *****************
;; Defined at:
;;		line 138 in file "C:\Users\GauravLT\Desktop\Finger Print Sensor\R307\PIC16F877A_R307\FingerPrintSensor_R307.c"
;; Parameters:    Size  Location     Type
;;  data            1    wreg     PTR unsigned char 
;;		 -> AddUserC@dataOut(1), AddUserB@dataOut(1), AddUserA@dataOut(1), EraseAllUsers@dataOut(1), 
;;		 -> HiSpeedScan@dataOut(5), MatchTemplate@dataOut(1), LoadFingerTemplate@dataOut(1), GenCharacterFileFromImage@dataOut(1), 
;;		 -> ScanForImage@dataOut(1), VerifyPswd@dataOut(1), DeleteUser@dataOut(1), 
;;  confirmation    1   23[BANK0 ] PTR unsigned char 
;;		 -> AddUserC@confirmationCode(1), AddUserB@confirmationCode(1), AddUserA@confirmationCode(1), EraseAllUsers@confirmationCode(1), 
;;		 -> HiSpeedScan@confirmationCode(1), MatchTemplate@confirmationCode(1), LoadFingerTemplate@confirmationCode(1), GenCharacterFileFromImage@confirmationCode(1), 
;;		 -> ScanForImage@confirmationCode(1), VerifyPswd@confirmationCode(1), DeleteUser@confirmationCode(1), 
;; Auto vars:     Size  Location     Type
;;  data            1   32[BANK0 ] PTR unsigned char 
;;		 -> AddUserC@dataOut(1), AddUserB@dataOut(1), AddUserA@dataOut(1), EraseAllUsers@dataOut(1), 
;;		 -> HiSpeedScan@dataOut(5), MatchTemplate@dataOut(1), LoadFingerTemplate@dataOut(1), GenCharacterFileFromImage@dataOut(1), 
;;		 -> ScanForImage@dataOut(1), VerifyPswd@dataOut(1), DeleteUser@dataOut(1), 
;;  _Response      12   45[BANK0 ] struct Response
;;  wait            4   34[BANK0 ] unsigned long 
;;  checkSumCalc    2   38[BANK0 ] unsigned int 
;;  c               1   44[BANK0 ] unsigned char 
;;  i               1   43[BANK0 ] unsigned char 
;;  chkLength       1   42[BANK0 ] unsigned char 
;;  respPtr         1   41[BANK0 ] PTR unsigned char 
;;		 -> FillUpResponse@_Response(12), 
;;  l               1   40[BANK0 ] unsigned char 
;;  chkSumDigitC    1   33[BANK0 ] unsigned char 
;; Return value:  Size  Location     Type
;;                  1    wreg      unsigned char 
;; Registers used:
;;		wreg, fsr0l, fsr0h, status,2, status,0, pclath, cstack
;; Tracked objects:
;;		On entry : 0/0
;;		On exit  : 0/0
;;		Unchanged: 0/0
;; Data sizes:     COMMON   BANK0   BANK1   BANK3   BANK2
;;      Params:         0       1       0       0       0
;;      Locals:         0      25       0       0       0
;;      Temps:          0       8       0       0       0
;;      Totals:         0      34       0       0       0
;;Total ram usage:       34 bytes
;; Hardware stack levels used:    1
;; Hardware stack levels required when called:    3
;; This function calls:
;;		_memset1
;;		_IsUartBytePending
;;		_GetUartByte
;;		_ToggleEndianFormat
;; This function is called by:
;;		_DeleteUser
;;		_VerifyPswd
;;		_ScanForImage
;;		_GenCharacterFileFromImage
;;		_HiSpeedScan
;;		_EraseAllUsers
;;		_AddUserA
;;		_AddUserB
;;		_AddUserC
;;		_LoadFingerTemplate
;;		_MatchTemplate
;; This function uses a non-reentrant model
;;
psect	text4262
	file	"C:\Users\GauravLT\Desktop\Finger Print Sensor\R307\PIC16F877A_R307\FingerPrintSensor_R307.c"
	line	138
	global	__size_of_FillUpResponse
	__size_of_FillUpResponse	equ	__end_of_FillUpResponse-_FillUpResponse
	
_FillUpResponse:	
	opt	stack 2
; Regs used in _FillUpResponse: [wreg-fsr0h+status,2+status,0+pclath+cstack]
;FillUpResponse@data stored from wreg
	line	140
	bcf	status, 5	;RP0=0, select bank0
	bcf	status, 6	;RP1=0, select bank0
	movwf	(FillUpResponse@data)
	
l13768:	
;FingerPrintSensor_R307.c: 139: struct Response _Response;
;FingerPrintSensor_R307.c: 140: unsigned long wait=0xFFFFF;
	movlw	0
	movwf	(FillUpResponse@wait+3)
	movlw	0Fh
	movwf	(FillUpResponse@wait+2)
	movlw	0FFh
	movwf	(FillUpResponse@wait+1)
	movlw	0FFh
	movwf	(FillUpResponse@wait)

	line	141
	
l13770:	
;FingerPrintSensor_R307.c: 141: unsigned char i=0,c=0,l=0,chkSumDigitCount=0,chkLength=0;
	clrf	(FillUpResponse@i)
	
l13772:	
	clrf	(FillUpResponse@c)
	
l13774:	
	clrf	(FillUpResponse@l)
	
l13776:	
	clrf	(FillUpResponse@chkSumDigitCount)
	
l13778:	
	clrf	(FillUpResponse@chkLength)
	line	142
;FingerPrintSensor_R307.c: 142: unsigned char *respPtr = (unsigned char*)&_Response;
	movlw	(FillUpResponse@_Response)&0ffh
	movwf	(??_FillUpResponse+0)+0
	movf	(??_FillUpResponse+0)+0,w
	movwf	(FillUpResponse@respPtr)
	line	143
	
l13780:	
;FingerPrintSensor_R307.c: 143: unsigned int checkSumCalculated=0;
	clrf	(FillUpResponse@checkSumCalculated)
	clrf	(FillUpResponse@checkSumCalculated+1)
	line	147
	
l13782:	
;FingerPrintSensor_R307.c: 147: memset1(respPtr, 0, sizeof(struct Response));
	movf	(FillUpResponse@respPtr),w
	movwf	(?_memset1)
	movlw	(0x0/2)
	movwf	(?_memset1+1)
	clrf	0+(?_memset1)+02h
	movlw	low(0Ch)
	movwf	0+(?_memset1)+03h
	movlw	high(0Ch)
	movwf	(0+(?_memset1)+03h)+1
	fcall	_memset1
	line	148
;FingerPrintSensor_R307.c: 148: while(wait--)
	goto	l13842
	
l3064:	
	line	150
	
l13784:	
;FingerPrintSensor_R307.c: 149: {
;FingerPrintSensor_R307.c: 150: if(IsUartBytePending())
	fcall	_IsUartBytePending
	xorlw	0
	skipnz
	goto	u14011
	goto	u14010
u14011:
	goto	l13842
u14010:
	line	152
	
l13786:	
;FingerPrintSensor_R307.c: 151: {
;FingerPrintSensor_R307.c: 152: c = GetUartByte();
	fcall	_GetUartByte
	bcf	status, 5	;RP0=0, select bank0
	bcf	status, 6	;RP1=0, select bank0
	movwf	(??_FillUpResponse+0)+0
	movf	(??_FillUpResponse+0)+0,w
	movwf	(FillUpResponse@c)
	line	153
	
l13788:	
;FingerPrintSensor_R307.c: 153: wait=0xFFFFF;
	movlw	0
	movwf	(FillUpResponse@wait+3)
	movlw	0Fh
	movwf	(FillUpResponse@wait+2)
	movlw	0FFh
	movwf	(FillUpResponse@wait+1)
	movlw	0FFh
	movwf	(FillUpResponse@wait)

	line	154
	
l13790:	
;FingerPrintSensor_R307.c: 154: if(chkLength == 0)
	movf	(FillUpResponse@chkLength),f
	skipz
	goto	u14021
	goto	u14020
u14021:
	goto	l13796
u14020:
	line	156
	
l13792:	
;FingerPrintSensor_R307.c: 155: {
;FingerPrintSensor_R307.c: 156: *(respPtr+i) = c;
	movf	(FillUpResponse@c),w
	movwf	(??_FillUpResponse+0)+0
	movf	(FillUpResponse@i),w
	addwf	(FillUpResponse@respPtr),w
	movwf	(??_FillUpResponse+1)+0
	movf	0+(??_FillUpResponse+1)+0,w
	movwf	fsr0
	movf	(??_FillUpResponse+0)+0,w
	bcf	status, 7	;select IRP bank0
	movwf	indf
	line	157
	
l13794:	
;FingerPrintSensor_R307.c: 157: i++;
	movlw	(01h)
	movwf	(??_FillUpResponse+0)+0
	movf	(??_FillUpResponse+0)+0,w
	addwf	(FillUpResponse@i),f
	line	158
;FingerPrintSensor_R307.c: 158: }
	goto	l13814
	line	159
	
l3066:	
	
l13796:	
;FingerPrintSensor_R307.c: 159: else if(chkLength == 1 && l < (_Response._Response0.Length-3))
	movf	(FillUpResponse@chkLength),w
	xorlw	01h
	skipz
	goto	u14031
	goto	u14030
u14031:
	goto	l13806
u14030:
	
l13798:	
	movf	0+(FillUpResponse@_Response)+07h,w
	addlw	low(0FFFDh)
	movwf	(??_FillUpResponse+0)+0
	movf	1+(FillUpResponse@_Response)+07h,w
	skipnc
	addlw	1
	addlw	high(0FFFDh)
	movwf	1+(??_FillUpResponse+0)+0
	movf	(FillUpResponse@l),w
	movwf	(??_FillUpResponse+2)+0
	clrf	(??_FillUpResponse+2)+0+1
	movf	1+(??_FillUpResponse+0)+0,w
	subwf	1+(??_FillUpResponse+2)+0,w
	skipz
	goto	u14045
	movf	0+(??_FillUpResponse+0)+0,w
	subwf	0+(??_FillUpResponse+2)+0,w
u14045:
	skipnc
	goto	u14041
	goto	u14040
u14041:
	goto	l13806
u14040:
	line	161
	
l13800:	
;FingerPrintSensor_R307.c: 160: {
;FingerPrintSensor_R307.c: 161: *(data+l) = c;
	movf	(FillUpResponse@c),w
	movwf	(??_FillUpResponse+0)+0
	movf	(FillUpResponse@l),w
	addwf	(FillUpResponse@data),w
	movwf	(??_FillUpResponse+1)+0
	movf	0+(??_FillUpResponse+1)+0,w
	movwf	fsr0
	movf	(??_FillUpResponse+0)+0,w
	bcf	status, 7	;select IRP bank0
	movwf	indf
	line	163
	
l13802:	
;FingerPrintSensor_R307.c: 163: l++;
	movlw	(01h)
	movwf	(??_FillUpResponse+0)+0
	movf	(??_FillUpResponse+0)+0,w
	addwf	(FillUpResponse@l),f
	line	164
	
l13804:	
;FingerPrintSensor_R307.c: 164: checkSumCalculated += c;
	movf	(FillUpResponse@c),w
	movwf	(??_FillUpResponse+0)+0
	clrf	(??_FillUpResponse+0)+0+1
	movf	0+(??_FillUpResponse+0)+0,w
	addwf	(FillUpResponse@checkSumCalculated),f
	skipnc
	incf	(FillUpResponse@checkSumCalculated+1),f
	movf	1+(??_FillUpResponse+0)+0,w
	addwf	(FillUpResponse@checkSumCalculated+1),f
	line	165
;FingerPrintSensor_R307.c: 165: }
	goto	l13814
	line	166
	
l3068:	
	line	168
	
l13806:	
;FingerPrintSensor_R307.c: 166: else
;FingerPrintSensor_R307.c: 167: {
;FingerPrintSensor_R307.c: 168: *(respPtr + i) = c;
	movf	(FillUpResponse@c),w
	movwf	(??_FillUpResponse+0)+0
	movf	(FillUpResponse@i),w
	addwf	(FillUpResponse@respPtr),w
	movwf	(??_FillUpResponse+1)+0
	movf	0+(??_FillUpResponse+1)+0,w
	movwf	fsr0
	movf	(??_FillUpResponse+0)+0,w
	bcf	status, 7	;select IRP bank0
	movwf	indf
	line	169
	
l13808:	
;FingerPrintSensor_R307.c: 169: i++;
	movlw	(01h)
	movwf	(??_FillUpResponse+0)+0
	movf	(??_FillUpResponse+0)+0,w
	addwf	(FillUpResponse@i),f
	line	170
	
l13810:	
;FingerPrintSensor_R307.c: 170: if(++chkSumDigitCount == 2)
	movlw	(01h)
	movwf	(??_FillUpResponse+0)+0
	movf	(??_FillUpResponse+0)+0,w
	addwf	(FillUpResponse@chkSumDigitCount),f
	movf	((FillUpResponse@chkSumDigitCount)),w
	xorlw	02h
	skipz
	goto	u14051
	goto	u14050
u14051:
	goto	l13814
u14050:
	goto	l13844
	line	172
	
l13812:	
;FingerPrintSensor_R307.c: 171: {
;FingerPrintSensor_R307.c: 172: break;
	goto	l13844
	line	173
	
l3070:	
	goto	l13814
	line	174
	
l3069:	
	goto	l13814
	
l3067:	
	line	175
	
l13814:	
;FingerPrintSensor_R307.c: 173: }
;FingerPrintSensor_R307.c: 174: }
;FingerPrintSensor_R307.c: 175: if(chkLength == 0 && i == sizeof(struct Response0))
	movf	(FillUpResponse@chkLength),f
	skipz
	goto	u14061
	goto	u14060
u14061:
	goto	l13842
u14060:
	
l13816:	
	movf	(FillUpResponse@i),w
	xorlw	0Ah
	skipz
	goto	u14071
	goto	u14070
u14071:
	goto	l13842
u14070:
	line	177
	
l13818:	
;FingerPrintSensor_R307.c: 176: {
;FingerPrintSensor_R307.c: 177: _Response._Response0.Header = (unsigned int)ToggleEndianFormat(_Response._Response0.Header, sizeof(_Response._Response0.Header));
	movf	(FillUpResponse@_Response),w
	movwf	(?_ToggleEndianFormat)
	movf	(FillUpResponse@_Response+1),w
	movwf	((?_ToggleEndianFormat))+1
	clrf	2+((?_ToggleEndianFormat))
	clrf	3+((?_ToggleEndianFormat))
	movlw	(02h)
	movwf	(??_FillUpResponse+0)+0
	movf	(??_FillUpResponse+0)+0,w
	movwf	0+(?_ToggleEndianFormat)+04h
	fcall	_ToggleEndianFormat
	bcf	status, 5	;RP0=0, select bank0
	bcf	status, 6	;RP1=0, select bank0
	movf	1+(((0+(?_ToggleEndianFormat)))),w
	clrf	(FillUpResponse@_Response+1)
	addwf	(FillUpResponse@_Response+1)
	movf	0+(((0+(?_ToggleEndianFormat)))),w
	clrf	(FillUpResponse@_Response)
	addwf	(FillUpResponse@_Response)

	line	178
	
l13820:	
;FingerPrintSensor_R307.c: 178: _Response._Response0.Address = (unsigned long)ToggleEndianFormat(_Response._Response0.Address, sizeof(_Response._Response0.Address));
	movlw	(02h)
	addlw	FillUpResponse@_Response&0ffh
	movwf	fsr0
	bcf	status, 7	;select IRP bank0
	movf	indf,w
	movwf	(?_ToggleEndianFormat)
	incf	fsr0,f
	movf	indf,w
	movwf	(?_ToggleEndianFormat+1)
	incf	fsr0,f
	movf	indf,w
	movwf	(?_ToggleEndianFormat+2)
	incf	fsr0,f
	movf	indf,w
	movwf	(?_ToggleEndianFormat+3)
	movlw	(04h)
	movwf	(??_FillUpResponse+0)+0
	movf	(??_FillUpResponse+0)+0,w
	movwf	0+(?_ToggleEndianFormat)+04h
	fcall	_ToggleEndianFormat
	bcf	status, 5	;RP0=0, select bank0
	bcf	status, 6	;RP1=0, select bank0
	movf	(3+(?_ToggleEndianFormat)),w
	movwf	3+(FillUpResponse@_Response)+02h
	movf	(2+(?_ToggleEndianFormat)),w
	movwf	2+(FillUpResponse@_Response)+02h
	movf	(1+(?_ToggleEndianFormat)),w
	movwf	1+(FillUpResponse@_Response)+02h
	movf	(0+(?_ToggleEndianFormat)),w
	movwf	0+(FillUpResponse@_Response)+02h

	line	179
	
l13822:	
;FingerPrintSensor_R307.c: 179: _Response._Response0.Identifier = (unsigned char)ToggleEndianFormat(_Response._Response0.Identifier, sizeof(_Response._Response0.Identifier));
	movf	0+(FillUpResponse@_Response)+06h,w
	movwf	(??_FillUpResponse+0)+0
	clrf	((??_FillUpResponse+0)+0+1)
	clrf	((??_FillUpResponse+0)+0+2)
	clrf	((??_FillUpResponse+0)+0+3)
	movf	3+(??_FillUpResponse+0)+0,w
	movwf	(?_ToggleEndianFormat+3)
	movf	2+(??_FillUpResponse+0)+0,w
	movwf	(?_ToggleEndianFormat+2)
	movf	1+(??_FillUpResponse+0)+0,w
	movwf	(?_ToggleEndianFormat+1)
	movf	0+(??_FillUpResponse+0)+0,w
	movwf	(?_ToggleEndianFormat)

	clrf	0+(?_ToggleEndianFormat)+04h
	bsf	status,0
	rlf	0+(?_ToggleEndianFormat)+04h,f
	fcall	_ToggleEndianFormat
	bcf	status, 5	;RP0=0, select bank0
	bcf	status, 6	;RP1=0, select bank0
	movf	0+(((0+(?_ToggleEndianFormat)))),w
	movwf	(??_FillUpResponse+4)+0
	movf	(??_FillUpResponse+4)+0,w
	movwf	0+(FillUpResponse@_Response)+06h
	line	180
	
l13824:	
;FingerPrintSensor_R307.c: 180: _Response._Response0.Length = (unsigned int)ToggleEndianFormat(_Response._Response0.Length, sizeof(_Response._Response0.Length));
	movf	0+(FillUpResponse@_Response)+07h,w
	movwf	(?_ToggleEndianFormat)
	movf	1+(FillUpResponse@_Response)+07h,w
	movwf	((?_ToggleEndianFormat))+1
	clrf	2+((?_ToggleEndianFormat))
	clrf	3+((?_ToggleEndianFormat))
	movlw	(02h)
	movwf	(??_FillUpResponse+0)+0
	movf	(??_FillUpResponse+0)+0,w
	movwf	0+(?_ToggleEndianFormat)+04h
	fcall	_ToggleEndianFormat
	bcf	status, 5	;RP0=0, select bank0
	bcf	status, 6	;RP1=0, select bank0
	movf	1+(((0+(?_ToggleEndianFormat)))),w
	clrf	1+(FillUpResponse@_Response)+07h
	addwf	1+(FillUpResponse@_Response)+07h
	movf	0+(((0+(?_ToggleEndianFormat)))),w
	clrf	0+(FillUpResponse@_Response)+07h
	addwf	0+(FillUpResponse@_Response)+07h

	line	181
	
l13826:	
;FingerPrintSensor_R307.c: 181: _Response._Response0.ConfirmationCode = (unsigned char)ToggleEndianFormat(_Response._Response0.ConfirmationCode, sizeof(_Response._Response0.ConfirmationCode));
	movf	0+(FillUpResponse@_Response)+09h,w
	movwf	(??_FillUpResponse+0)+0
	clrf	((??_FillUpResponse+0)+0+1)
	clrf	((??_FillUpResponse+0)+0+2)
	clrf	((??_FillUpResponse+0)+0+3)
	movf	3+(??_FillUpResponse+0)+0,w
	movwf	(?_ToggleEndianFormat+3)
	movf	2+(??_FillUpResponse+0)+0,w
	movwf	(?_ToggleEndianFormat+2)
	movf	1+(??_FillUpResponse+0)+0,w
	movwf	(?_ToggleEndianFormat+1)
	movf	0+(??_FillUpResponse+0)+0,w
	movwf	(?_ToggleEndianFormat)

	clrf	0+(?_ToggleEndianFormat)+04h
	bsf	status,0
	rlf	0+(?_ToggleEndianFormat)+04h,f
	fcall	_ToggleEndianFormat
	bcf	status, 5	;RP0=0, select bank0
	bcf	status, 6	;RP1=0, select bank0
	movf	0+(((0+(?_ToggleEndianFormat)))),w
	movwf	(??_FillUpResponse+4)+0
	movf	(??_FillUpResponse+4)+0,w
	movwf	0+(FillUpResponse@_Response)+09h
	line	188
	
l13828:	
;FingerPrintSensor_R307.c: 188: chkLength = 1;
	clrf	(FillUpResponse@chkLength)
	bsf	status,0
	rlf	(FillUpResponse@chkLength),f
	line	189
	
l13830:	
;FingerPrintSensor_R307.c: 189: if(_Response._Response0.Header != 0xEF01 || _Response._Response0.Address != DefModuleAddress || _Response._Response0.Identifier != pAck)
	movlw	high(0EF01h)
	xorwf	(FillUpResponse@_Response+1),w
	skipz
	goto	u14085
	movlw	low(0EF01h)
	xorwf	(FillUpResponse@_Response),w
u14085:

	skipz
	goto	u14081
	goto	u14080
u14081:
	goto	l13836
u14080:
	
l13832:	
	bsf	status, 5	;RP0=1, select bank1
	bcf	status, 6	;RP1=0, select bank1
	movf	(_DefModuleAddress+3)^080h,w
	bcf	status, 5	;RP0=0, select bank0
	bcf	status, 6	;RP1=0, select bank0
	xorwf	3+(FillUpResponse@_Response)+02h,w
	skipz
	goto	u14095
	bsf	status, 5	;RP0=1, select bank1
	bcf	status, 6	;RP1=0, select bank1
	movf	(_DefModuleAddress+2)^080h,w
	bcf	status, 5	;RP0=0, select bank0
	bcf	status, 6	;RP1=0, select bank0
	xorwf	2+(FillUpResponse@_Response)+02h,w
	skipz
	goto	u14095
	bsf	status, 5	;RP0=1, select bank1
	bcf	status, 6	;RP1=0, select bank1
	movf	(_DefModuleAddress+1)^080h,w
	bcf	status, 5	;RP0=0, select bank0
	bcf	status, 6	;RP1=0, select bank0
	xorwf	1+(FillUpResponse@_Response)+02h,w
	skipz
	goto	u14095
	bsf	status, 5	;RP0=1, select bank1
	bcf	status, 6	;RP1=0, select bank1
	movf	(_DefModuleAddress)^080h,w
	bcf	status, 5	;RP0=0, select bank0
	bcf	status, 6	;RP1=0, select bank0
	xorwf	0+(FillUpResponse@_Response)+02h,w
u14095:
	skipz
	goto	u14091
	goto	u14090
u14091:
	goto	l13836
u14090:
	
l13834:	
	movf	0+(FillUpResponse@_Response)+06h,w
	xorlw	07h
	skipnz
	goto	u14101
	goto	u14100
u14101:
	goto	l13840
u14100:
	goto	l13836
	
l3075:	
	line	190
	
l13836:	
;FingerPrintSensor_R307.c: 190: return 0;
	movlw	(0)
	goto	l3076
	
l13838:	
	goto	l3076
	
l3073:	
	line	194
	
l13840:	
;FingerPrintSensor_R307.c: 191: checkSumCalculated += (unsigned char)_Response._Response0.Identifier +
;FingerPrintSensor_R307.c: 192: (unsigned char)(_Response._Response0.Length >> 8) +
;FingerPrintSensor_R307.c: 193: (unsigned char)(_Response._Response0.Length & 0xFF) +
;FingerPrintSensor_R307.c: 194: (unsigned char)(_Response._Response0.ConfirmationCode);
	movlw	(07h)
	addlw	FillUpResponse@_Response&0ffh
	movwf	fsr0
	bcf	status, 7	;select IRP bank0
	movf	indf,w
	movwf	(??_FillUpResponse+0)+0+0
	incf	fsr0,f
	movf	indf,w
	movwf	(??_FillUpResponse+0)+0+1
	movlw	08h
u14115:
	clrc
	rrf	(??_FillUpResponse+0)+1,f
	rrf	(??_FillUpResponse+0)+0,f
	addlw	-1
	skipz
	goto	u14115
	movf	0+(FillUpResponse@_Response)+06h,w
	addwf	0+(??_FillUpResponse+0)+0,w
	movwf	(??_FillUpResponse+2)+0
	clrf	(??_FillUpResponse+2)+0+1
	rlf	1+(??_FillUpResponse+2)+0,f
	
	movf	0+(FillUpResponse@_Response)+07h,w
	addwf	0+(??_FillUpResponse+2)+0,w
	movwf	(??_FillUpResponse+4)+0
	movlw	0
	skipnc
	movlw	1
	addwf	1+(??_FillUpResponse+2)+0,w
	movwf	1+(??_FillUpResponse+4)+0
	movf	0+(FillUpResponse@_Response)+09h,w
	addwf	0+(??_FillUpResponse+4)+0,w
	movwf	(??_FillUpResponse+6)+0
	movlw	0
	skipnc
	movlw	1
	addwf	1+(??_FillUpResponse+4)+0,w
	movwf	1+(??_FillUpResponse+6)+0
	movf	0+(??_FillUpResponse+6)+0,w
	addwf	(FillUpResponse@checkSumCalculated),f
	skipnc
	incf	(FillUpResponse@checkSumCalculated+1),f
	movf	1+(??_FillUpResponse+6)+0,w
	addwf	(FillUpResponse@checkSumCalculated+1),f
	goto	l13842
	line	195
	
l3072:	
	goto	l13842
	line	196
	
l3065:	
	goto	l13842
	line	197
	
l3063:	
	line	148
	
l13842:	
	movlw	01h
	bcf	status, 5	;RP0=0, select bank0
	bcf	status, 6	;RP1=0, select bank0
	movwf	((??_FillUpResponse+0)+0)
	movlw	0
	movwf	((??_FillUpResponse+0)+0+1)
	movlw	0
	movwf	((??_FillUpResponse+0)+0+2)
	movlw	0
	movwf	((??_FillUpResponse+0)+0+3)
	movf	0+(??_FillUpResponse+0)+0,w
	subwf	(FillUpResponse@wait),f
	movf	1+(??_FillUpResponse+0)+0,w
	skipc
	incfsz	1+(??_FillUpResponse+0)+0,w
	goto	u14125
	goto	u14126
u14125:
	subwf	(FillUpResponse@wait+1),f
u14126:
	movf	2+(??_FillUpResponse+0)+0,w
	skipc
	incfsz	2+(??_FillUpResponse+0)+0,w
	goto	u14127
	goto	u14128
u14127:
	subwf	(FillUpResponse@wait+2),f
u14128:
	movf	3+(??_FillUpResponse+0)+0,w
	skipc
	incfsz	3+(??_FillUpResponse+0)+0,w
	goto	u14129
	goto	u14120
u14129:
	subwf	(FillUpResponse@wait+3),f
u14120:

	movlw	0FFh
	xorwf	((FillUpResponse@wait+3)),w
	skipz
	goto	u14135
	movlw	0FFh
	xorwf	((FillUpResponse@wait+2)),w
	skipz
	goto	u14135
	movlw	0FFh
	xorwf	((FillUpResponse@wait+1)),w
	skipz
	goto	u14135
	movlw	0FFh
	xorwf	((FillUpResponse@wait)),w
u14135:
	skipz
	goto	u14131
	goto	u14130
u14131:
	goto	l13784
u14130:
	goto	l13844
	
l3071:	
	line	198
	
l13844:	
;FingerPrintSensor_R307.c: 195: }
;FingerPrintSensor_R307.c: 196: }
;FingerPrintSensor_R307.c: 197: }
;FingerPrintSensor_R307.c: 198: _Response.CheckSum0= (unsigned int)ToggleEndianFormat(_Response.CheckSum0, sizeof(_Response.CheckSum0));
	movf	0+(FillUpResponse@_Response)+0Ah,w
	movwf	(?_ToggleEndianFormat)
	movf	1+(FillUpResponse@_Response)+0Ah,w
	movwf	((?_ToggleEndianFormat))+1
	clrf	2+((?_ToggleEndianFormat))
	clrf	3+((?_ToggleEndianFormat))
	movlw	(02h)
	movwf	(??_FillUpResponse+0)+0
	movf	(??_FillUpResponse+0)+0,w
	movwf	0+(?_ToggleEndianFormat)+04h
	fcall	_ToggleEndianFormat
	bcf	status, 5	;RP0=0, select bank0
	bcf	status, 6	;RP1=0, select bank0
	movf	1+(((0+(?_ToggleEndianFormat)))),w
	clrf	1+(FillUpResponse@_Response)+0Ah
	addwf	1+(FillUpResponse@_Response)+0Ah
	movf	0+(((0+(?_ToggleEndianFormat)))),w
	clrf	0+(FillUpResponse@_Response)+0Ah
	addwf	0+(FillUpResponse@_Response)+0Ah

	line	199
	
l13846:	
;FingerPrintSensor_R307.c: 199: if(_Response.CheckSum0 == checkSumCalculated)
	movf	(FillUpResponse@checkSumCalculated+1),w
	xorwf	1+(FillUpResponse@_Response)+0Ah,w
	skipz
	goto	u14145
	movf	(FillUpResponse@checkSumCalculated),w
	xorwf	0+(FillUpResponse@_Response)+0Ah,w
u14145:

	skipz
	goto	u14141
	goto	u14140
u14141:
	goto	l13854
u14140:
	line	201
	
l13848:	
;FingerPrintSensor_R307.c: 200: {
;FingerPrintSensor_R307.c: 201: *confirmationCode = _Response._Response0.ConfirmationCode;
	movf	0+(FillUpResponse@_Response)+09h,w
	movwf	(??_FillUpResponse+0)+0
	movf	(FillUpResponse@confirmationCode),w
	movwf	fsr0
	movf	(??_FillUpResponse+0)+0,w
	bcf	status, 7	;select IRP bank0
	movwf	indf
	line	202
	
l13850:	
;FingerPrintSensor_R307.c: 202: return 1;
	movlw	(01h)
	goto	l3076
	
l13852:	
	goto	l3076
	line	203
	
l3077:	
	line	204
	
l13854:	
;FingerPrintSensor_R307.c: 203: }
;FingerPrintSensor_R307.c: 204: return 0;
	movlw	(0)
	goto	l3076
	
l13856:	
	line	205
	
l3076:	
	return
	opt stack 0
GLOBAL	__end_of_FillUpResponse
	__end_of_FillUpResponse:
;; =============== function _FillUpResponse ends ============

	signat	_FillUpResponse,8313
	global	_SendUartValue
psect	text4263,local,class=CODE,delta=2
global __ptext4263
__ptext4263:

;; *************** function _SendUartValue *****************
;; Defined at:
;;		line 49 in file "C:\Users\GauravLT\Desktop\Finger Print Sensor\R307\PIC16F877A_R307\FingerPrintSensor_R307.c"
;; Parameters:    Size  Location     Type
;;  value           4    1[BANK0 ] unsigned long 
;;  size            1    5[BANK0 ] unsigned char 
;; Auto vars:     Size  Location     Type
;;		None
;; Return value:  Size  Location     Type
;;		None               void
;; Registers used:
;;		wreg, status,2, status,0, pclath, cstack
;; Tracked objects:
;;		On entry : 0/0
;;		On exit  : 0/0
;;		Unchanged: 0/0
;; Data sizes:     COMMON   BANK0   BANK1   BANK3   BANK2
;;      Params:         0       5       0       0       0
;;      Locals:         0       0       0       0       0
;;      Temps:          0       5       0       0       0
;;      Totals:         0      10       0       0       0
;;Total ram usage:       10 bytes
;; Hardware stack levels used:    1
;; Hardware stack levels required when called:    3
;; This function calls:
;;		_SendUartByte
;; This function is called by:
;;		_sendPackage
;; This function uses a non-reentrant model
;;
psect	text4263
	file	"C:\Users\GauravLT\Desktop\Finger Print Sensor\R307\PIC16F877A_R307\FingerPrintSensor_R307.c"
	line	49
	global	__size_of_SendUartValue
	__size_of_SendUartValue	equ	__end_of_SendUartValue-_SendUartValue
	
_SendUartValue:	
	opt	stack 1
; Regs used in _SendUartValue: [wreg+status,2+status,0+pclath+cstack]
	line	50
	
l13752:	
;FingerPrintSensor_R307.c: 50: for(;size>0;size--)
	bcf	status, 5	;RP0=0, select bank0
	bcf	status, 6	;RP1=0, select bank0
	movf	(SendUartValue@size),f
	skipz
	goto	u13951
	goto	u13950
u13951:
	goto	l13756
u13950:
	goto	l3024
	
l13754:	
	goto	l3024
	line	51
	
l3019:	
	line	52
	
l13756:	
;FingerPrintSensor_R307.c: 51: {
;FingerPrintSensor_R307.c: 52: if(size!=1) SendUartByte((unsigned char)(value >> 8*(size-1)));
	movf	(SendUartValue@size),w
	xorlw	01h
	skipnz
	goto	u13961
	goto	u13960
u13961:
	goto	l13760
u13960:
	
l13758:	
	movf	(SendUartValue@value),w
	movwf	(??_SendUartValue+0)+0
	movf	(SendUartValue@value+1),w
	movwf	((??_SendUartValue+0)+0+1)
	movf	(SendUartValue@value+2),w
	movwf	((??_SendUartValue+0)+0+2)
	movf	(SendUartValue@value+3),w
	movwf	((??_SendUartValue+0)+0+3)
	movf	(SendUartValue@size),w
	movwf	(??_SendUartValue+4)+0
	movlw	(03h)-1
u13975:
	clrc
	rlf	(??_SendUartValue+4)+0,f
	addlw	-1
	skipz
	goto	u13975
	clrc
	rlf	(??_SendUartValue+4)+0,w
	addlw	-8
	addlw	1
	goto	u13980
u13985:
	clrc
	rrf	(??_SendUartValue+0)+3,f
	rrf	(??_SendUartValue+0)+2,f
	rrf	(??_SendUartValue+0)+1,f
	rrf	(??_SendUartValue+0)+0,f
u13980:
	addlw	-1
	skipz
	goto	u13985
	movf	0+(??_SendUartValue+0)+0,w
	fcall	_SendUartByte
	goto	l13764
	line	53
	
l3021:	
	
l13760:	
;FingerPrintSensor_R307.c: 53: else if(size==1) SendUartByte((unsigned char)(value & 0xFF));
	bcf	status, 5	;RP0=0, select bank0
	bcf	status, 6	;RP1=0, select bank0
	movf	(SendUartValue@size),w
	xorlw	01h
	skipz
	goto	u13991
	goto	u13990
u13991:
	goto	l13764
u13990:
	
l13762:	
	movf	(SendUartValue@value),w
	fcall	_SendUartByte
	goto	l13764
	
l3023:	
	goto	l13764
	line	54
	
l3022:	
	line	50
	
l13764:	
	movlw	low(01h)
	bcf	status, 5	;RP0=0, select bank0
	bcf	status, 6	;RP1=0, select bank0
	subwf	(SendUartValue@size),f
	
l13766:	
	movf	(SendUartValue@size),f
	skipz
	goto	u14001
	goto	u14000
u14001:
	goto	l13756
u14000:
	goto	l3024
	
l3020:	
	line	55
	
l3024:	
	return
	opt stack 0
GLOBAL	__end_of_SendUartValue
	__end_of_SendUartValue:
;; =============== function _SendUartValue ends ============

	signat	_SendUartValue,8312
	global	_PutKey
psect	text4264,local,class=CODE,delta=2
global __ptext4264
__ptext4264:

;; *************** function _PutKey *****************
;; Defined at:
;;		line 24 in file "C:\Users\GauravLT\Desktop\Finger Print Sensor\R307\PIC16F877A_R307\keypd.c"
;; Parameters:    Size  Location     Type
;;  key             1    wreg     unsigned char 
;; Auto vars:     Size  Location     Type
;;  key             1    3[BANK0 ] unsigned char 
;; Return value:  Size  Location     Type
;;		None               void
;; Registers used:
;;		wreg, fsr0l, fsr0h, status,2, status,0, pclath, cstack
;; Tracked objects:
;;		On entry : 0/0
;;		On exit  : 0/0
;;		Unchanged: 0/0
;; Data sizes:     COMMON   BANK0   BANK1   BANK3   BANK2
;;      Params:         0       0       0       0       0
;;      Locals:         0       1       0       0       0
;;      Temps:          0       1       0       0       0
;;      Totals:         0       2       0       0       0
;;Total ram usage:        2 bytes
;; Hardware stack levels used:    1
;; Hardware stack levels required when called:    3
;; This function calls:
;;		_LcdDelay
;; This function is called by:
;;		_KeyScan
;; This function uses a non-reentrant model
;;
psect	text4264
	file	"C:\Users\GauravLT\Desktop\Finger Print Sensor\R307\PIC16F877A_R307\keypd.c"
	line	24
	global	__size_of_PutKey
	__size_of_PutKey	equ	__end_of_PutKey-_PutKey
	
_PutKey:	
	opt	stack 2
; Regs used in _PutKey: [wreg-fsr0h+status,2+status,0+pclath+cstack]
;PutKey@key stored from wreg
	bcf	status, 5	;RP0=0, select bank0
	bcf	status, 6	;RP1=0, select bank0
	movwf	(PutKey@key)
	line	25
	
l13742:	
;keypd.c: 25: KeypdBuffer[IxPtr] = key;
	movf	(PutKey@key),w
	movwf	(??_PutKey+0)+0
	movf	(_IxPtr),w
	addlw	_KeypdBuffer&0ffh
	movwf	fsr0
	movf	(??_PutKey+0)+0,w
	bsf	status, 7	;select IRP bank3
	movwf	indf
	line	26
	
l13744:	
;keypd.c: 26: if(++IxPtr == 20)
	movlw	(01h)
	movwf	(??_PutKey+0)+0
	movf	(??_PutKey+0)+0,w
	addwf	(_IxPtr),f
	movf	((_IxPtr)),w
	xorlw	014h
	skipz
	goto	u13941
	goto	u13940
u13941:
	goto	l2271
u13940:
	line	27
	
l13746:	
;keypd.c: 27: IxPtr = 0;
	clrf	(_IxPtr)
	
l2271:	
	line	28
;keypd.c: 28: RB5=1;
	bsf	(53/8),(53)&7
	line	29
	
l13748:	
;keypd.c: 29: LcdDelay(800);
	movlw	low(0320h)
	movwf	(?_LcdDelay)
	movlw	high(0320h)
	movwf	((?_LcdDelay))+1
	fcall	_LcdDelay
	line	30
	
l13750:	
;keypd.c: 30: RB5=0;
	bcf	status, 5	;RP0=0, select bank0
	bcf	status, 6	;RP1=0, select bank0
	bcf	(53/8),(53)&7
	line	33
	
l2272:	
	return
	opt stack 0
GLOBAL	__end_of_PutKey
	__end_of_PutKey:
;; =============== function _PutKey ends ============

	signat	_PutKey,4216
	global	_releaseEElocation
psect	text4265,local,class=CODE,delta=2
global __ptext4265
__ptext4265:

;; *************** function _releaseEElocation *****************
;; Defined at:
;;		line 33 in file "C:\Users\GauravLT\Desktop\Finger Print Sensor\R307\PIC16F877A_R307\eeprom.c"
;; Parameters:    Size  Location     Type
;;  loc             1    wreg     unsigned char 
;; Auto vars:     Size  Location     Type
;;  loc             1    6[BANK0 ] unsigned char 
;; Return value:  Size  Location     Type
;;		None               void
;; Registers used:
;;		wreg, status,2, status,0, pclath, cstack
;; Tracked objects:
;;		On entry : 0/0
;;		On exit  : 0/0
;;		Unchanged: 0/0
;; Data sizes:     COMMON   BANK0   BANK1   BANK3   BANK2
;;      Params:         0       0       0       0       0
;;      Locals:         0       1       0       0       0
;;      Temps:          0       1       0       0       0
;;      Totals:         0       2       0       0       0
;;Total ram usage:        2 bytes
;; Hardware stack levels used:    1
;; Hardware stack levels required when called:    3
;; This function calls:
;;		_ee_write
;;		_ee_read
;; This function is called by:
;;		_DeleteUserAfterAdminConfirm
;; This function uses a non-reentrant model
;;
psect	text4265
	file	"C:\Users\GauravLT\Desktop\Finger Print Sensor\R307\PIC16F877A_R307\eeprom.c"
	global	__size_of_releaseEElocation
	__size_of_releaseEElocation	equ	__end_of_releaseEElocation-_releaseEElocation
	
_releaseEElocation:	
	opt	stack 3
; Regs used in _releaseEElocation: [wreg+status,2+status,0+pclath+cstack]
;releaseEElocation@loc stored from wreg
	bcf	status, 5	;RP0=0, select bank0
	bcf	status, 6	;RP1=0, select bank0
	movwf	(releaseEElocation@loc)
	line	34
	
l13736:	
;eeprom.c: 34: ee_write(loc, 0xFF);
	movlw	(0FFh)
	movwf	(??_releaseEElocation+0)+0
	movf	(??_releaseEElocation+0)+0,w
	movwf	(?_ee_write)
	movf	(releaseEElocation@loc),w
	fcall	_ee_write
	line	35
	
l13738:	
;eeprom.c: 35: if(loc != 0) ee_write(30, ee_read(30)-1);
	bcf	status, 5	;RP0=0, select bank0
	bcf	status, 6	;RP1=0, select bank0
	movf	(releaseEElocation@loc),w
	skipz
	goto	u13930
	goto	l3920
u13930:
	
l13740:	
	movlw	(01Eh)
	fcall	_ee_read
	addlw	0FFh
	bcf	status, 5	;RP0=0, select bank0
	bcf	status, 6	;RP1=0, select bank0
	movwf	(??_releaseEElocation+0)+0
	movf	(??_releaseEElocation+0)+0,w
	movwf	(?_ee_write)
	movlw	(01Eh)
	fcall	_ee_write
	goto	l3920
	
l3919:	
	line	36
	
l3920:	
	return
	opt stack 0
GLOBAL	__end_of_releaseEElocation
	__end_of_releaseEElocation:
;; =============== function _releaseEElocation ends ============

	signat	_releaseEElocation,4216
	global	_getNextAvailLocation
psect	text4266,local,class=CODE,delta=2
global __ptext4266
__ptext4266:

;; *************** function _getNextAvailLocation *****************
;; Defined at:
;;		line 15 in file "C:\Users\GauravLT\Desktop\Finger Print Sensor\R307\PIC16F877A_R307\eeprom.c"
;; Parameters:    Size  Location     Type
;;		None
;; Auto vars:     Size  Location     Type
;;  result          1    4[BANK0 ] unsigned char 
;;  i               1    5[BANK0 ] unsigned char 
;; Return value:  Size  Location     Type
;;                  1    wreg      char 
;; Registers used:
;;		wreg, status,2, status,0, pclath, cstack
;; Tracked objects:
;;		On entry : 0/0
;;		On exit  : 0/0
;;		Unchanged: 0/0
;; Data sizes:     COMMON   BANK0   BANK1   BANK3   BANK2
;;      Params:         0       0       0       0       0
;;      Locals:         0       2       0       0       0
;;      Temps:          0       1       0       0       0
;;      Totals:         0       3       0       0       0
;;Total ram usage:        3 bytes
;; Hardware stack levels used:    1
;; Hardware stack levels required when called:    3
;; This function calls:
;;		_ee_read
;; This function is called by:
;;		_AddNewUserAfterAdminConfirm
;; This function uses a non-reentrant model
;;
psect	text4266
	file	"C:\Users\GauravLT\Desktop\Finger Print Sensor\R307\PIC16F877A_R307\eeprom.c"
	line	15
	global	__size_of_getNextAvailLocation
	__size_of_getNextAvailLocation	equ	__end_of_getNextAvailLocation-_getNextAvailLocation
	
_getNextAvailLocation:	
	opt	stack 3
; Regs used in _getNextAvailLocation: [wreg+status,2+status,0+pclath+cstack]
	line	16
	
l13712:	
;eeprom.c: 16: if(ee_read(30) == 24) return -1;
	movlw	(01Eh)
	fcall	_ee_read
	xorlw	018h
	skipz
	goto	u13901
	goto	u13900
u13901:
	goto	l13718
u13900:
	
l13714:	
	movlw	(-1)
	goto	l3908
	
l13716:	
	goto	l3908
	
l3907:	
	line	18
	
l13718:	
;eeprom.c: 18: unsigned char i=1;
	bcf	status, 5	;RP0=0, select bank0
	bcf	status, 6	;RP1=0, select bank0
	clrf	(getNextAvailLocation@i)
	bsf	status,0
	rlf	(getNextAvailLocation@i),f
	line	19
;eeprom.c: 19: while(i<24)
	goto	l13730
	
l3910:	
	line	21
	
l13720:	
;eeprom.c: 20: {
;eeprom.c: 21: unsigned char result = ee_read(i);
	movf	(getNextAvailLocation@i),w
	fcall	_ee_read
	bcf	status, 5	;RP0=0, select bank0
	bcf	status, 6	;RP1=0, select bank0
	movwf	(??_getNextAvailLocation+0)+0
	movf	(??_getNextAvailLocation+0)+0,w
	movwf	(getNextAvailLocation@result)
	line	22
	
l13722:	
;eeprom.c: 22: if(result == 0xFF) return i;
	movf	(getNextAvailLocation@result),w
	xorlw	0FFh
	skipz
	goto	u13911
	goto	u13910
u13911:
	goto	l13728
u13910:
	
l13724:	
	movf	(getNextAvailLocation@i),w
	goto	l3908
	
l13726:	
	goto	l3908
	
l3911:	
	line	23
	
l13728:	
;eeprom.c: 23: i++;
	movlw	(01h)
	movwf	(??_getNextAvailLocation+0)+0
	movf	(??_getNextAvailLocation+0)+0,w
	addwf	(getNextAvailLocation@i),f
	goto	l13730
	line	24
	
l3909:	
	line	19
	
l13730:	
	movlw	(018h)
	subwf	(getNextAvailLocation@i),w
	skipc
	goto	u13921
	goto	u13920
u13921:
	goto	l13720
u13920:
	goto	l13732
	
l3912:	
	line	25
	
l13732:	
;eeprom.c: 24: }
;eeprom.c: 25: return -1;
	movlw	(-1)
	goto	l3908
	
l13734:	
	line	26
	
l3908:	
	return
	opt stack 0
GLOBAL	__end_of_getNextAvailLocation
	__end_of_getNextAvailLocation:
;; =============== function _getNextAvailLocation ends ============

	signat	_getNextAvailLocation,89
	global	_ee_eraseNPos
psect	text4267,local,class=CODE,delta=2
global __ptext4267
__ptext4267:

;; *************** function _ee_eraseNPos *****************
;; Defined at:
;;		line 7 in file "C:\Users\GauravLT\Desktop\Finger Print Sensor\R307\PIC16F877A_R307\eeprom.c"
;; Parameters:    Size  Location     Type
;;  n               1    wreg     unsigned char 
;; Auto vars:     Size  Location     Type
;;  n               1    6[BANK0 ] unsigned char 
;;  i               1    7[BANK0 ] unsigned char 
;; Return value:  Size  Location     Type
;;		None               void
;; Registers used:
;;		wreg, status,2, status,0, pclath, cstack
;; Tracked objects:
;;		On entry : 0/0
;;		On exit  : 0/0
;;		Unchanged: 0/0
;; Data sizes:     COMMON   BANK0   BANK1   BANK3   BANK2
;;      Params:         0       0       0       0       0
;;      Locals:         0       2       0       0       0
;;      Temps:          0       1       0       0       0
;;      Totals:         0       3       0       0       0
;;Total ram usage:        3 bytes
;; Hardware stack levels used:    1
;; Hardware stack levels required when called:    3
;; This function calls:
;;		_ee_write
;; This function is called by:
;;		_EraseAllUsersAfterAdminConfirm
;; This function uses a non-reentrant model
;;
psect	text4267
	file	"C:\Users\GauravLT\Desktop\Finger Print Sensor\R307\PIC16F877A_R307\eeprom.c"
	line	7
	global	__size_of_ee_eraseNPos
	__size_of_ee_eraseNPos	equ	__end_of_ee_eraseNPos-_ee_eraseNPos
	
_ee_eraseNPos:	
	opt	stack 3
; Regs used in _ee_eraseNPos: [wreg+status,2+status,0+pclath+cstack]
;ee_eraseNPos@n stored from wreg
	bcf	status, 5	;RP0=0, select bank0
	bcf	status, 6	;RP1=0, select bank0
	movwf	(ee_eraseNPos@n)
	line	8
	
l13704:	
;eeprom.c: 8: unsigned char i=0;
	clrf	(ee_eraseNPos@i)
	line	9
;eeprom.c: 9: for(i=0;i<n;i++)
	clrf	(ee_eraseNPos@i)
	goto	l13710
	line	10
	
l3902:	
	line	11
	
l13706:	
;eeprom.c: 10: {
;eeprom.c: 11: ee_write(i, 0xFF);
	movlw	(0FFh)
	movwf	(??_ee_eraseNPos+0)+0
	movf	(??_ee_eraseNPos+0)+0,w
	movwf	(?_ee_write)
	movf	(ee_eraseNPos@i),w
	fcall	_ee_write
	line	9
	
l13708:	
	movlw	(01h)
	bcf	status, 5	;RP0=0, select bank0
	bcf	status, 6	;RP1=0, select bank0
	movwf	(??_ee_eraseNPos+0)+0
	movf	(??_ee_eraseNPos+0)+0,w
	addwf	(ee_eraseNPos@i),f
	goto	l13710
	
l3901:	
	
l13710:	
	movf	(ee_eraseNPos@n),w
	subwf	(ee_eraseNPos@i),w
	skipc
	goto	u13891
	goto	u13890
u13891:
	goto	l13706
u13890:
	goto	l3904
	
l3903:	
	line	13
	
l3904:	
	return
	opt stack 0
GLOBAL	__end_of_ee_eraseNPos
	__end_of_ee_eraseNPos:
;; =============== function _ee_eraseNPos ends ============

	signat	_ee_eraseNPos,4216
	global	_Delay
psect	text4268,local,class=CODE,delta=2
global __ptext4268
__ptext4268:

;; *************** function _Delay *****************
;; Defined at:
;;		line 71 in file "C:\Users\GauravLT\Desktop\Finger Print Sensor\R307\PIC16F877A_R307\eeprom.c"
;; Parameters:    Size  Location     Type
;;  d               2   13[BANK0 ] unsigned int 
;; Auto vars:     Size  Location     Type
;;  dd              4   19[BANK0 ] unsigned long 
;; Return value:  Size  Location     Type
;;		None               void
;; Registers used:
;;		wreg, status,2, status,0, pclath, cstack
;; Tracked objects:
;;		On entry : 0/0
;;		On exit  : 0/0
;;		Unchanged: 0/0
;; Data sizes:     COMMON   BANK0   BANK1   BANK3   BANK2
;;      Params:         0       2       0       0       0
;;      Locals:         0       4       0       0       0
;;      Temps:          0       4       0       0       0
;;      Totals:         0      10       0       0       0
;;Total ram usage:       10 bytes
;; Hardware stack levels used:    1
;; Hardware stack levels required when called:    3
;; This function calls:
;;		___lmul
;; This function is called by:
;;		_EraseAllUsersAfterAdminConfirm
;;		_ControlAccess
;;		_AlterAdminUser
;;		_AddNewUserAfterAdminConfirm
;;		_DeleteUserAfterAdminConfirm
;;		_main
;; This function uses a non-reentrant model
;;
psect	text4268
	file	"C:\Users\GauravLT\Desktop\Finger Print Sensor\R307\PIC16F877A_R307\eeprom.c"
	line	71
	global	__size_of_Delay
	__size_of_Delay	equ	__end_of_Delay-_Delay
	
_Delay:	
	opt	stack 3
; Regs used in _Delay: [wreg+status,2+status,0+pclath+cstack]
	line	72
	
l13698:	
;eeprom.c: 72: unsigned long dd=99999;
	movlw	0
	bcf	status, 5	;RP0=0, select bank0
	bcf	status, 6	;RP1=0, select bank0
	movwf	(Delay@dd+3)
	movlw	01h
	movwf	(Delay@dd+2)
	movlw	086h
	movwf	(Delay@dd+1)
	movlw	09Fh
	movwf	(Delay@dd)

	line	73
	
l13700:	
;eeprom.c: 73: dd=d*dd;
	movf	(Delay@d),w
	movwf	(?___lmul)
	movf	(Delay@d+1),w
	movwf	((?___lmul))+1
	clrf	2+((?___lmul))
	clrf	3+((?___lmul))
	movf	(Delay@dd+3),w
	movwf	3+(?___lmul)+04h
	movf	(Delay@dd+2),w
	movwf	2+(?___lmul)+04h
	movf	(Delay@dd+1),w
	movwf	1+(?___lmul)+04h
	movf	(Delay@dd),w
	movwf	0+(?___lmul)+04h

	fcall	___lmul
	bcf	status, 5	;RP0=0, select bank0
	bcf	status, 6	;RP1=0, select bank0
	movf	(3+(?___lmul)),w
	movwf	(Delay@dd+3)
	movf	(2+(?___lmul)),w
	movwf	(Delay@dd+2)
	movf	(1+(?___lmul)),w
	movwf	(Delay@dd+1)
	movf	(0+(?___lmul)),w
	movwf	(Delay@dd)

	line	74
;eeprom.c: 74: while(dd--);
	goto	l13702
	
l3938:	
	goto	l13702
	
l3937:	
	
l13702:	
	movlw	01h
	movwf	((??_Delay+0)+0)
	movlw	0
	movwf	((??_Delay+0)+0+1)
	movlw	0
	movwf	((??_Delay+0)+0+2)
	movlw	0
	movwf	((??_Delay+0)+0+3)
	movf	0+(??_Delay+0)+0,w
	subwf	(Delay@dd),f
	movf	1+(??_Delay+0)+0,w
	skipc
	incfsz	1+(??_Delay+0)+0,w
	goto	u13875
	goto	u13876
u13875:
	subwf	(Delay@dd+1),f
u13876:
	movf	2+(??_Delay+0)+0,w
	skipc
	incfsz	2+(??_Delay+0)+0,w
	goto	u13877
	goto	u13878
u13877:
	subwf	(Delay@dd+2),f
u13878:
	movf	3+(??_Delay+0)+0,w
	skipc
	incfsz	3+(??_Delay+0)+0,w
	goto	u13879
	goto	u13870
u13879:
	subwf	(Delay@dd+3),f
u13870:

	movlw	0FFh
	xorwf	((Delay@dd+3)),w
	skipz
	goto	u13885
	movlw	0FFh
	xorwf	((Delay@dd+2)),w
	skipz
	goto	u13885
	movlw	0FFh
	xorwf	((Delay@dd+1)),w
	skipz
	goto	u13885
	movlw	0FFh
	xorwf	((Delay@dd)),w
u13885:
	skipz
	goto	u13881
	goto	u13880
u13881:
	goto	l13702
u13880:
	goto	l3940
	
l3939:	
	line	75
	
l3940:	
	return
	opt stack 0
GLOBAL	__end_of_Delay
	__end_of_Delay:
;; =============== function _Delay ends ============

	signat	_Delay,4216
	global	_SendByte
psect	text4269,local,class=CODE,delta=2
global __ptext4269
__ptext4269:

;; *************** function _SendByte *****************
;; Defined at:
;;		line 77 in file "C:\Users\GauravLT\Desktop\Finger Print Sensor\R307\PIC16F877A_R307\lcd.c"
;; Parameters:    Size  Location     Type
;;  Mode            1    wreg     enum E1090
;;  val             1    2[BANK0 ] unsigned char 
;; Auto vars:     Size  Location     Type
;;  Mode            1    4[BANK0 ] enum E1090
;; Return value:  Size  Location     Type
;;		None               void
;; Registers used:
;;		wreg, status,2, status,0, pclath, cstack
;; Tracked objects:
;;		On entry : 0/0
;;		On exit  : 0/0
;;		Unchanged: 0/0
;; Data sizes:     COMMON   BANK0   BANK1   BANK3   BANK2
;;      Params:         0       1       0       0       0
;;      Locals:         0       1       0       0       0
;;      Temps:          0       1       0       0       0
;;      Totals:         0       3       0       0       0
;;Total ram usage:        3 bytes
;; Hardware stack levels used:    1
;; Hardware stack levels required when called:    3
;; This function calls:
;;		_LcdDelay
;; This function is called by:
;;		_LcdInit
;;		_UploadLcdBuffer
;;		_LcdClear
;; This function uses a non-reentrant model
;;
psect	text4269
	file	"C:\Users\GauravLT\Desktop\Finger Print Sensor\R307\PIC16F877A_R307\lcd.c"
	line	77
	global	__size_of_SendByte
	__size_of_SendByte	equ	__end_of_SendByte-_SendByte
	
_SendByte:	
	opt	stack 1
; Regs used in _SendByte: [wreg+status,2+status,0+pclath+cstack]
;SendByte@Mode stored from wreg
	bcf	status, 5	;RP0=0, select bank0
	bcf	status, 6	;RP1=0, select bank0
	movwf	(SendByte@Mode)
	line	78
	
l13682:	
;lcd.c: 78: if(Mode == Data && val == 0) val = ' ';
	movf	(SendByte@Mode),w
	xorlw	01h
	skipz
	goto	u13831
	goto	u13830
u13831:
	goto	l728
u13830:
	
l13684:	
	movf	(SendByte@val),f
	skipz
	goto	u13841
	goto	u13840
u13841:
	goto	l728
u13840:
	
l13686:	
	movlw	(020h)
	movwf	(??_SendByte+0)+0
	movf	(??_SendByte+0)+0,w
	movwf	(SendByte@val)
	
l728:	
	line	79
;lcd.c: 79: PORTD = val;
	movf	(SendByte@val),w
	movwf	(8)	;volatile
	line	81
	
l13688:	
;lcd.c: 81: RB2 = Mode;
	btfsc	(SendByte@Mode),0
	goto	u13851
	goto	u13850
	
u13851:
	bcf	status, 5	;RP0=0, select bank0
	bcf	status, 6	;RP1=0, select bank0
	bsf	(50/8),(50)&7
	goto	u13864
u13850:
	bcf	status, 5	;RP0=0, select bank0
	bcf	status, 6	;RP1=0, select bank0
	bcf	(50/8),(50)&7
u13864:
	line	82
	
l13690:	
;lcd.c: 82: RB3=0;
	bcf	(51/8),(51)&7
	line	83
	
l13692:	
;lcd.c: 83: LcdDelay(250);
	movlw	low(0FAh)
	movwf	(?_LcdDelay)
	movlw	high(0FAh)
	movwf	((?_LcdDelay))+1
	fcall	_LcdDelay
	line	84
	
l13694:	
;lcd.c: 84: RB3=1;
	bcf	status, 5	;RP0=0, select bank0
	bcf	status, 6	;RP1=0, select bank0
	bsf	(51/8),(51)&7
	line	85
	
l13696:	
;lcd.c: 85: LcdDelay(250);
	movlw	low(0FAh)
	movwf	(?_LcdDelay)
	movlw	high(0FAh)
	movwf	((?_LcdDelay))+1
	fcall	_LcdDelay
	line	86
	
l729:	
	return
	opt stack 0
GLOBAL	__end_of_SendByte
	__end_of_SendByte:
;; =============== function _SendByte ends ============

	signat	_SendByte,8312
	global	___lldiv
psect	text4270,local,class=CODE,delta=2
global __ptext4270
__ptext4270:

;; *************** function ___lldiv *****************
;; Defined at:
;;		line 5 in file "C:\Program Files (x86)\HI-TECH Software\PICC\9.83\sources\lldiv.c"
;; Parameters:    Size  Location     Type
;;  divisor         4    0[BANK0 ] unsigned long 
;;  dividend        4    4[BANK0 ] unsigned long 
;; Auto vars:     Size  Location     Type
;;  quotient        4   10[BANK0 ] unsigned long 
;;  counter         1    9[BANK0 ] unsigned char 
;; Return value:  Size  Location     Type
;;                  4    0[BANK0 ] unsigned long 
;; Registers used:
;;		wreg, status,2, status,0
;; Tracked objects:
;;		On entry : 0/0
;;		On exit  : 0/0
;;		Unchanged: 0/0
;; Data sizes:     COMMON   BANK0   BANK1   BANK3   BANK2
;;      Params:         0       8       0       0       0
;;      Locals:         0       5       0       0       0
;;      Temps:          0       1       0       0       0
;;      Totals:         0      14       0       0       0
;;Total ram usage:       14 bytes
;; Hardware stack levels used:    1
;; Hardware stack levels required when called:    2
;; This function calls:
;;		Nothing
;; This function is called by:
;;		_TotDigits
;;		_DecToStr
;; This function uses a non-reentrant model
;;
psect	text4270
	file	"C:\Program Files (x86)\HI-TECH Software\PICC\9.83\sources\lldiv.c"
	line	5
	global	__size_of___lldiv
	__size_of___lldiv	equ	__end_of___lldiv-___lldiv
	
___lldiv:	
	opt	stack 3
; Regs used in ___lldiv: [wreg+status,2+status,0]
	line	9
	
l13658:	
	movlw	0
	bcf	status, 5	;RP0=0, select bank0
	bcf	status, 6	;RP1=0, select bank0
	movwf	(___lldiv@quotient+3)
	movlw	0
	movwf	(___lldiv@quotient+2)
	movlw	0
	movwf	(___lldiv@quotient+1)
	movlw	0
	movwf	(___lldiv@quotient)

	line	10
	movf	(___lldiv@divisor+3),w
	iorwf	(___lldiv@divisor+2),w
	iorwf	(___lldiv@divisor+1),w
	iorwf	(___lldiv@divisor),w
	skipnz
	goto	u13761
	goto	u13760
u13761:
	goto	l13678
u13760:
	line	11
	
l13660:	
	clrf	(___lldiv@counter)
	bsf	status,0
	rlf	(___lldiv@counter),f
	line	12
	goto	l13664
	
l4822:	
	line	13
	
l13662:	
	movlw	01h
	movwf	(??___lldiv+0)+0
u13775:
	clrc
	rlf	(___lldiv@divisor),f
	rlf	(___lldiv@divisor+1),f
	rlf	(___lldiv@divisor+2),f
	rlf	(___lldiv@divisor+3),f
	decfsz	(??___lldiv+0)+0
	goto	u13775
	line	14
	movlw	(01h)
	movwf	(??___lldiv+0)+0
	movf	(??___lldiv+0)+0,w
	addwf	(___lldiv@counter),f
	goto	l13664
	line	15
	
l4821:	
	line	12
	
l13664:	
	btfss	(___lldiv@divisor+3),(31)&7
	goto	u13781
	goto	u13780
u13781:
	goto	l13662
u13780:
	goto	l13666
	
l4823:	
	goto	l13666
	line	16
	
l4824:	
	line	17
	
l13666:	
	movlw	01h
	movwf	(??___lldiv+0)+0
u13795:
	clrc
	rlf	(___lldiv@quotient),f
	rlf	(___lldiv@quotient+1),f
	rlf	(___lldiv@quotient+2),f
	rlf	(___lldiv@quotient+3),f
	decfsz	(??___lldiv+0)+0
	goto	u13795
	line	18
	
l13668:	
	movf	(___lldiv@divisor+3),w
	subwf	(___lldiv@dividend+3),w
	skipz
	goto	u13805
	movf	(___lldiv@divisor+2),w
	subwf	(___lldiv@dividend+2),w
	skipz
	goto	u13805
	movf	(___lldiv@divisor+1),w
	subwf	(___lldiv@dividend+1),w
	skipz
	goto	u13805
	movf	(___lldiv@divisor),w
	subwf	(___lldiv@dividend),w
u13805:
	skipc
	goto	u13801
	goto	u13800
u13801:
	goto	l13674
u13800:
	line	19
	
l13670:	
	movf	(___lldiv@divisor),w
	subwf	(___lldiv@dividend),f
	movf	(___lldiv@divisor+1),w
	skipc
	incfsz	(___lldiv@divisor+1),w
	subwf	(___lldiv@dividend+1),f
	movf	(___lldiv@divisor+2),w
	skipc
	incfsz	(___lldiv@divisor+2),w
	subwf	(___lldiv@dividend+2),f
	movf	(___lldiv@divisor+3),w
	skipc
	incfsz	(___lldiv@divisor+3),w
	subwf	(___lldiv@dividend+3),f
	line	20
	
l13672:	
	bsf	(___lldiv@quotient)+(0/8),(0)&7
	goto	l13674
	line	21
	
l4825:	
	line	22
	
l13674:	
	movlw	01h
u13815:
	clrc
	rrf	(___lldiv@divisor+3),f
	rrf	(___lldiv@divisor+2),f
	rrf	(___lldiv@divisor+1),f
	rrf	(___lldiv@divisor),f
	addlw	-1
	skipz
	goto	u13815

	line	23
	
l13676:	
	movlw	low(01h)
	subwf	(___lldiv@counter),f
	btfss	status,2
	goto	u13821
	goto	u13820
u13821:
	goto	l13666
u13820:
	goto	l13678
	
l4826:	
	goto	l13678
	line	24
	
l4820:	
	line	25
	
l13678:	
	movf	(___lldiv@quotient+3),w
	movwf	(?___lldiv+3)
	movf	(___lldiv@quotient+2),w
	movwf	(?___lldiv+2)
	movf	(___lldiv@quotient+1),w
	movwf	(?___lldiv+1)
	movf	(___lldiv@quotient),w
	movwf	(?___lldiv)

	goto	l4827
	
l13680:	
	line	26
	
l4827:	
	return
	opt stack 0
GLOBAL	__end_of___lldiv
	__end_of___lldiv:
;; =============== function ___lldiv ends ============

	signat	___lldiv,8316
	global	___llmod
psect	text4271,local,class=CODE,delta=2
global __ptext4271
__ptext4271:

;; *************** function ___llmod *****************
;; Defined at:
;;		line 5 in file "C:\Program Files (x86)\HI-TECH Software\PICC\9.83\sources\llmod.c"
;; Parameters:    Size  Location     Type
;;  divisor         4    0[BANK0 ] unsigned long 
;;  dividend        4    4[BANK0 ] unsigned long 
;; Auto vars:     Size  Location     Type
;;  counter         1    9[BANK0 ] unsigned char 
;; Return value:  Size  Location     Type
;;                  4    0[BANK0 ] unsigned long 
;; Registers used:
;;		wreg, status,2, status,0
;; Tracked objects:
;;		On entry : 0/0
;;		On exit  : 0/0
;;		Unchanged: 0/0
;; Data sizes:     COMMON   BANK0   BANK1   BANK3   BANK2
;;      Params:         0       8       0       0       0
;;      Locals:         0       1       0       0       0
;;      Temps:          0       1       0       0       0
;;      Totals:         0      10       0       0       0
;;Total ram usage:       10 bytes
;; Hardware stack levels used:    1
;; Hardware stack levels required when called:    2
;; This function calls:
;;		Nothing
;; This function is called by:
;;		_DecToStr
;; This function uses a non-reentrant model
;;
psect	text4271
	file	"C:\Program Files (x86)\HI-TECH Software\PICC\9.83\sources\llmod.c"
	line	5
	global	__size_of___llmod
	__size_of___llmod	equ	__end_of___llmod-___llmod
	
___llmod:	
	opt	stack 3
; Regs used in ___llmod: [wreg+status,2+status,0]
	line	8
	
l13638:	
	bcf	status, 5	;RP0=0, select bank0
	bcf	status, 6	;RP1=0, select bank0
	movf	(___llmod@divisor+3),w
	iorwf	(___llmod@divisor+2),w
	iorwf	(___llmod@divisor+1),w
	iorwf	(___llmod@divisor),w
	skipnz
	goto	u13701
	goto	u13700
u13701:
	goto	l13654
u13700:
	line	9
	
l13640:	
	clrf	(___llmod@counter)
	bsf	status,0
	rlf	(___llmod@counter),f
	line	10
	goto	l13644
	
l4803:	
	line	11
	
l13642:	
	movlw	01h
	movwf	(??___llmod+0)+0
u13715:
	clrc
	rlf	(___llmod@divisor),f
	rlf	(___llmod@divisor+1),f
	rlf	(___llmod@divisor+2),f
	rlf	(___llmod@divisor+3),f
	decfsz	(??___llmod+0)+0
	goto	u13715
	line	12
	movlw	(01h)
	movwf	(??___llmod+0)+0
	movf	(??___llmod+0)+0,w
	addwf	(___llmod@counter),f
	goto	l13644
	line	13
	
l4802:	
	line	10
	
l13644:	
	btfss	(___llmod@divisor+3),(31)&7
	goto	u13721
	goto	u13720
u13721:
	goto	l13642
u13720:
	goto	l13646
	
l4804:	
	goto	l13646
	line	14
	
l4805:	
	line	15
	
l13646:	
	movf	(___llmod@divisor+3),w
	subwf	(___llmod@dividend+3),w
	skipz
	goto	u13735
	movf	(___llmod@divisor+2),w
	subwf	(___llmod@dividend+2),w
	skipz
	goto	u13735
	movf	(___llmod@divisor+1),w
	subwf	(___llmod@dividend+1),w
	skipz
	goto	u13735
	movf	(___llmod@divisor),w
	subwf	(___llmod@dividend),w
u13735:
	skipc
	goto	u13731
	goto	u13730
u13731:
	goto	l13650
u13730:
	line	16
	
l13648:	
	movf	(___llmod@divisor),w
	subwf	(___llmod@dividend),f
	movf	(___llmod@divisor+1),w
	skipc
	incfsz	(___llmod@divisor+1),w
	subwf	(___llmod@dividend+1),f
	movf	(___llmod@divisor+2),w
	skipc
	incfsz	(___llmod@divisor+2),w
	subwf	(___llmod@dividend+2),f
	movf	(___llmod@divisor+3),w
	skipc
	incfsz	(___llmod@divisor+3),w
	subwf	(___llmod@dividend+3),f
	goto	l13650
	
l4806:	
	line	17
	
l13650:	
	movlw	01h
u13745:
	clrc
	rrf	(___llmod@divisor+3),f
	rrf	(___llmod@divisor+2),f
	rrf	(___llmod@divisor+1),f
	rrf	(___llmod@divisor),f
	addlw	-1
	skipz
	goto	u13745

	line	18
	
l13652:	
	movlw	low(01h)
	subwf	(___llmod@counter),f
	btfss	status,2
	goto	u13751
	goto	u13750
u13751:
	goto	l13646
u13750:
	goto	l13654
	
l4807:	
	goto	l13654
	line	19
	
l4801:	
	line	20
	
l13654:	
	movf	(___llmod@dividend+3),w
	movwf	(?___llmod+3)
	movf	(___llmod@dividend+2),w
	movwf	(?___llmod+2)
	movf	(___llmod@dividend+1),w
	movwf	(?___llmod+1)
	movf	(___llmod@dividend),w
	movwf	(?___llmod)

	goto	l4808
	
l13656:	
	line	21
	
l4808:	
	return
	opt stack 0
GLOBAL	__end_of___llmod
	__end_of___llmod:
;; =============== function ___llmod ends ============

	signat	___llmod,8316
	global	___lmul
psect	text4272,local,class=CODE,delta=2
global __ptext4272
__ptext4272:

;; *************** function ___lmul *****************
;; Defined at:
;;		line 3 in file "C:\Program Files (x86)\HI-TECH Software\PICC\9.83\sources\lmul.c"
;; Parameters:    Size  Location     Type
;;  multiplier      4    0[BANK0 ] unsigned long 
;;  multiplicand    4    4[BANK0 ] unsigned long 
;; Auto vars:     Size  Location     Type
;;  product         4    9[BANK0 ] unsigned long 
;; Return value:  Size  Location     Type
;;                  4    0[BANK0 ] unsigned long 
;; Registers used:
;;		wreg, status,2, status,0
;; Tracked objects:
;;		On entry : 0/0
;;		On exit  : 0/0
;;		Unchanged: 0/0
;; Data sizes:     COMMON   BANK0   BANK1   BANK3   BANK2
;;      Params:         0       8       0       0       0
;;      Locals:         0       4       0       0       0
;;      Temps:          0       1       0       0       0
;;      Totals:         0      13       0       0       0
;;Total ram usage:       13 bytes
;; Hardware stack levels used:    1
;; Hardware stack levels required when called:    2
;; This function calls:
;;		Nothing
;; This function is called by:
;;		_Delay
;; This function uses a non-reentrant model
;;
psect	text4272
	file	"C:\Program Files (x86)\HI-TECH Software\PICC\9.83\sources\lmul.c"
	line	3
	global	__size_of___lmul
	__size_of___lmul	equ	__end_of___lmul-___lmul
	
___lmul:	
	opt	stack 3
; Regs used in ___lmul: [wreg+status,2+status,0]
	line	4
	
l13624:	
	movlw	0
	bcf	status, 5	;RP0=0, select bank0
	bcf	status, 6	;RP1=0, select bank0
	movwf	(___lmul@product+3)
	movlw	0
	movwf	(___lmul@product+2)
	movlw	0
	movwf	(___lmul@product+1)
	movlw	0
	movwf	(___lmul@product)

	goto	l13626
	line	6
	
l4723:	
	line	7
	
l13626:	
	btfss	(___lmul@multiplier),(0)&7
	goto	u13651
	goto	u13650
u13651:
	goto	l13630
u13650:
	line	8
	
l13628:	
	movf	(___lmul@multiplicand),w
	addwf	(___lmul@product),f
	movf	(___lmul@multiplicand+1),w
	clrz
	skipnc
	addlw	1
	skipnz
	goto	u13661
	addwf	(___lmul@product+1),f
u13661:
	movf	(___lmul@multiplicand+2),w
	clrz
	skipnc
	addlw	1
	skipnz
	goto	u13662
	addwf	(___lmul@product+2),f
u13662:
	movf	(___lmul@multiplicand+3),w
	clrz
	skipnc
	addlw	1
	skipnz
	goto	u13663
	addwf	(___lmul@product+3),f
u13663:

	goto	l13630
	
l4724:	
	line	9
	
l13630:	
	movlw	01h
	movwf	(??___lmul+0)+0
u13675:
	clrc
	rlf	(___lmul@multiplicand),f
	rlf	(___lmul@multiplicand+1),f
	rlf	(___lmul@multiplicand+2),f
	rlf	(___lmul@multiplicand+3),f
	decfsz	(??___lmul+0)+0
	goto	u13675
	line	10
	
l13632:	
	movlw	01h
u13685:
	clrc
	rrf	(___lmul@multiplier+3),f
	rrf	(___lmul@multiplier+2),f
	rrf	(___lmul@multiplier+1),f
	rrf	(___lmul@multiplier),f
	addlw	-1
	skipz
	goto	u13685

	line	11
	movf	(___lmul@multiplier+3),w
	iorwf	(___lmul@multiplier+2),w
	iorwf	(___lmul@multiplier+1),w
	iorwf	(___lmul@multiplier),w
	skipz
	goto	u13691
	goto	u13690
u13691:
	goto	l13626
u13690:
	goto	l13634
	
l4725:	
	line	12
	
l13634:	
	movf	(___lmul@product+3),w
	movwf	(?___lmul+3)
	movf	(___lmul@product+2),w
	movwf	(?___lmul+2)
	movf	(___lmul@product+1),w
	movwf	(?___lmul+1)
	movf	(___lmul@product),w
	movwf	(?___lmul)

	goto	l4726
	
l13636:	
	line	13
	
l4726:	
	return
	opt stack 0
GLOBAL	__end_of___lmul
	__end_of___lmul:
;; =============== function ___lmul ends ============

	signat	___lmul,8316
	global	_ToggleEndianFormat
psect	text4273,local,class=CODE,delta=2
global __ptext4273
__ptext4273:

;; *************** function _ToggleEndianFormat *****************
;; Defined at:
;;		line 122 in file "C:\Users\GauravLT\Desktop\Finger Print Sensor\R307\PIC16F877A_R307\FingerPrintSensor_R307.c"
;; Parameters:    Size  Location     Type
;;  val             4    0[BANK0 ] unsigned long 
;;  size            1    4[BANK0 ] unsigned char 
;; Auto vars:     Size  Location     Type
;;  result          2   21[BANK0 ] unsigned int 
;; Return value:  Size  Location     Type
;;                  4    0[BANK0 ] unsigned long 
;; Registers used:
;;		wreg, status,2, status,0
;; Tracked objects:
;;		On entry : 0/0
;;		On exit  : 0/0
;;		Unchanged: 0/0
;; Data sizes:     COMMON   BANK0   BANK1   BANK3   BANK2
;;      Params:         0       5       0       0       0
;;      Locals:         0       2       0       0       0
;;      Temps:          0      16       0       0       0
;;      Totals:         0      23       0       0       0
;;Total ram usage:       23 bytes
;; Hardware stack levels used:    1
;; Hardware stack levels required when called:    2
;; This function calls:
;;		Nothing
;; This function is called by:
;;		_FillUpResponse
;; This function uses a non-reentrant model
;;
psect	text4273
	file	"C:\Users\GauravLT\Desktop\Finger Print Sensor\R307\PIC16F877A_R307\FingerPrintSensor_R307.c"
	line	122
	global	__size_of_ToggleEndianFormat
	__size_of_ToggleEndianFormat	equ	__end_of_ToggleEndianFormat-_ToggleEndianFormat
	
_ToggleEndianFormat:	
	opt	stack 2
; Regs used in _ToggleEndianFormat: [wreg+status,2+status,0]
	line	123
	
l13552:	
;FingerPrintSensor_R307.c: 123: if(size == 1){}
	bcf	status, 5	;RP0=0, select bank0
	bcf	status, 6	;RP1=0, select bank0
	movf	(ToggleEndianFormat@size),w
	xorlw	01h
	skipz
	goto	u13491
	goto	u13490
u13491:
	goto	l13556
u13490:
	goto	l3056
	
l13554:	
	goto	l3056
	line	124
	
l3055:	
	
l13556:	
;FingerPrintSensor_R307.c: 124: else if(size == 2)
	movf	(ToggleEndianFormat@size),w
	xorlw	02h
	skipz
	goto	u13501
	goto	u13500
u13501:
	goto	l13566
u13500:
	line	126
	
l13558:	
;FingerPrintSensor_R307.c: 125: {
;FingerPrintSensor_R307.c: 126: unsigned int result=(unsigned int)val;
	movf	(ToggleEndianFormat@val+1),w
	clrf	(ToggleEndianFormat@result+1)
	addwf	(ToggleEndianFormat@result+1)
	movf	(ToggleEndianFormat@val),w
	clrf	(ToggleEndianFormat@result)
	addwf	(ToggleEndianFormat@result)

	line	127
;FingerPrintSensor_R307.c: 127: result = (result<<8 | result >> 8);
	movf	(ToggleEndianFormat@result+1),w
	movwf	(??_ToggleEndianFormat+0)+0+1
	movf	(ToggleEndianFormat@result),w
	movwf	(??_ToggleEndianFormat+0)+0
	movlw	08h
u13515:
	clrc
	rrf	(??_ToggleEndianFormat+0)+1,f
	rrf	(??_ToggleEndianFormat+0)+0,f
	addlw	-1
	skipz
	goto	u13515
	movf	(ToggleEndianFormat@result),w
	movwf	(??_ToggleEndianFormat+2)+0+1
	clrf	(??_ToggleEndianFormat+2)+0
	movf	0+(??_ToggleEndianFormat+0)+0,w
	iorwf	0+(??_ToggleEndianFormat+2)+0,w
	movwf	(ToggleEndianFormat@result)
	movf	1+(??_ToggleEndianFormat+0)+0,w
	iorwf	1+(??_ToggleEndianFormat+2)+0,w
	movwf	1+(ToggleEndianFormat@result)
	line	128
	
l13560:	
;FingerPrintSensor_R307.c: 128: return result;
	movf	(ToggleEndianFormat@result),w
	movwf	(?_ToggleEndianFormat)
	movf	(ToggleEndianFormat@result+1),w
	movwf	((?_ToggleEndianFormat))+1
	clrf	2+((?_ToggleEndianFormat))
	clrf	3+((?_ToggleEndianFormat))
	goto	l3058
	
l13562:	
	goto	l3058
	line	129
	
l13564:	
;FingerPrintSensor_R307.c: 129: }
	goto	l3056
	line	130
	
l3057:	
	
l13566:	
;FingerPrintSensor_R307.c: 130: else if(size == 4)
	movf	(ToggleEndianFormat@size),w
	xorlw	04h
	skipz
	goto	u13521
	goto	u13520
u13521:
	goto	l3056
u13520:
	line	132
	
l13568:	
;FingerPrintSensor_R307.c: 131: {
;FingerPrintSensor_R307.c: 132: return (val<<24 | ((val>>8)<<16) | ((val>>16)<<8) | val>>24);
	movf	(ToggleEndianFormat@val),w
	movwf	(??_ToggleEndianFormat+0)+0
	movf	(ToggleEndianFormat@val+1),w
	movwf	((??_ToggleEndianFormat+0)+0+1)
	movf	(ToggleEndianFormat@val+2),w
	movwf	((??_ToggleEndianFormat+0)+0+2)
	movf	(ToggleEndianFormat@val+3),w
	movwf	((??_ToggleEndianFormat+0)+0+3)
	movlw	018h
u13535:
	clrc
	rrf	(??_ToggleEndianFormat+0)+3,f
	rrf	(??_ToggleEndianFormat+0)+2,f
	rrf	(??_ToggleEndianFormat+0)+1,f
	rrf	(??_ToggleEndianFormat+0)+0,f
u13530:
	addlw	-1
	skipz
	goto	u13535
	movf	(ToggleEndianFormat@val),w
	movwf	(??_ToggleEndianFormat+4)+0
	movf	(ToggleEndianFormat@val+1),w
	movwf	((??_ToggleEndianFormat+4)+0+1)
	movf	(ToggleEndianFormat@val+2),w
	movwf	((??_ToggleEndianFormat+4)+0+2)
	movf	(ToggleEndianFormat@val+3),w
	movwf	((??_ToggleEndianFormat+4)+0+3)
	movlw	010h
u13545:
	clrc
	rrf	(??_ToggleEndianFormat+4)+3,f
	rrf	(??_ToggleEndianFormat+4)+2,f
	rrf	(??_ToggleEndianFormat+4)+1,f
	rrf	(??_ToggleEndianFormat+4)+0,f
u13540:
	addlw	-1
	skipz
	goto	u13545
	movlw	08h
u13555:
	clrc
	rlf	(??_ToggleEndianFormat+4)+0,f
	rlf	(??_ToggleEndianFormat+4)+1,f
	rlf	(??_ToggleEndianFormat+4)+2,f
	rlf	(??_ToggleEndianFormat+4)+3,f
u13550:
	addlw	-1
	skipz
	goto	u13555
	movf	(ToggleEndianFormat@val),w
	movwf	(??_ToggleEndianFormat+8)+0
	movf	(ToggleEndianFormat@val+1),w
	movwf	((??_ToggleEndianFormat+8)+0+1)
	movf	(ToggleEndianFormat@val+2),w
	movwf	((??_ToggleEndianFormat+8)+0+2)
	movf	(ToggleEndianFormat@val+3),w
	movwf	((??_ToggleEndianFormat+8)+0+3)
	movlw	08h
u13565:
	clrc
	rrf	(??_ToggleEndianFormat+8)+3,f
	rrf	(??_ToggleEndianFormat+8)+2,f
	rrf	(??_ToggleEndianFormat+8)+1,f
	rrf	(??_ToggleEndianFormat+8)+0,f
u13560:
	addlw	-1
	skipz
	goto	u13565
	movlw	010h
u13575:
	clrc
	rlf	(??_ToggleEndianFormat+8)+0,f
	rlf	(??_ToggleEndianFormat+8)+1,f
	rlf	(??_ToggleEndianFormat+8)+2,f
	rlf	(??_ToggleEndianFormat+8)+3,f
u13570:
	addlw	-1
	skipz
	goto	u13575
	movf	(ToggleEndianFormat@val),w
	movwf	(??_ToggleEndianFormat+12)+0
	movf	(ToggleEndianFormat@val+1),w
	movwf	((??_ToggleEndianFormat+12)+0+1)
	movf	(ToggleEndianFormat@val+2),w
	movwf	((??_ToggleEndianFormat+12)+0+2)
	movf	(ToggleEndianFormat@val+3),w
	movwf	((??_ToggleEndianFormat+12)+0+3)
	movlw	018h
u13585:
	clrc
	rlf	(??_ToggleEndianFormat+12)+0,f
	rlf	(??_ToggleEndianFormat+12)+1,f
	rlf	(??_ToggleEndianFormat+12)+2,f
	rlf	(??_ToggleEndianFormat+12)+3,f
u13580:
	addlw	-1
	skipz
	goto	u13585
	movf	0+(??_ToggleEndianFormat+12)+0,w
	iorwf	(??_ToggleEndianFormat+8)+0,f
	movf	1+(??_ToggleEndianFormat+12)+0,w
	iorwf	(??_ToggleEndianFormat+8)+1,f
	movf	2+(??_ToggleEndianFormat+12)+0,w
	iorwf	(??_ToggleEndianFormat+8)+2,f
	movf	3+(??_ToggleEndianFormat+12)+0,w
	iorwf	(??_ToggleEndianFormat+8)+3,f
	movf	0+(??_ToggleEndianFormat+8)+0,w
	iorwf	(??_ToggleEndianFormat+4)+0,f
	movf	1+(??_ToggleEndianFormat+8)+0,w
	iorwf	(??_ToggleEndianFormat+4)+1,f
	movf	2+(??_ToggleEndianFormat+8)+0,w
	iorwf	(??_ToggleEndianFormat+4)+2,f
	movf	3+(??_ToggleEndianFormat+8)+0,w
	iorwf	(??_ToggleEndianFormat+4)+3,f
	movf	0+(??_ToggleEndianFormat+0)+0,w
	iorwf	0+(??_ToggleEndianFormat+4)+0,w
	movwf	(?_ToggleEndianFormat)
	movf	1+(??_ToggleEndianFormat+0)+0,w
	iorwf	1+(??_ToggleEndianFormat+4)+0,w
	movwf	1+(?_ToggleEndianFormat)
	movf	2+(??_ToggleEndianFormat+0)+0,w
	iorwf	2+(??_ToggleEndianFormat+4)+0,w
	movwf	2+(?_ToggleEndianFormat)
	movf	3+(??_ToggleEndianFormat+0)+0,w
	iorwf	3+(??_ToggleEndianFormat+4)+0,w
	movwf	3+(?_ToggleEndianFormat)
	goto	l3058
	
l13570:	
	goto	l3058
	line	133
	
l3060:	
	goto	l3056
	line	134
	
l3059:	
	
l3056:	
;FingerPrintSensor_R307.c: 133: }
;FingerPrintSensor_R307.c: 134: return val;
	line	135
	
l3058:	
	return
	opt stack 0
GLOBAL	__end_of_ToggleEndianFormat
	__end_of_ToggleEndianFormat:
;; =============== function _ToggleEndianFormat ends ============

	signat	_ToggleEndianFormat,8316
	global	_GetUartByte
psect	text4274,local,class=CODE,delta=2
global __ptext4274
__ptext4274:

;; *************** function _GetUartByte *****************
;; Defined at:
;;		line 81 in file "C:\Users\GauravLT\Desktop\Finger Print Sensor\R307\PIC16F877A_R307\FingerPrintSensor_R307.c"
;; Parameters:    Size  Location     Type
;;		None
;; Auto vars:     Size  Location     Type
;;  val             1    1[BANK0 ] unsigned char 
;; Return value:  Size  Location     Type
;;                  1    wreg      unsigned char 
;; Registers used:
;;		wreg, fsr0l, fsr0h, status,2, status,0
;; Tracked objects:
;;		On entry : 0/0
;;		On exit  : 0/0
;;		Unchanged: 0/0
;; Data sizes:     COMMON   BANK0   BANK1   BANK3   BANK2
;;      Params:         0       0       0       0       0
;;      Locals:         0       1       0       0       0
;;      Temps:          0       1       0       0       0
;;      Totals:         0       2       0       0       0
;;Total ram usage:        2 bytes
;; Hardware stack levels used:    1
;; Hardware stack levels required when called:    2
;; This function calls:
;;		Nothing
;; This function is called by:
;;		_FillUpResponse
;; This function uses a non-reentrant model
;;
psect	text4274
	file	"C:\Users\GauravLT\Desktop\Finger Print Sensor\R307\PIC16F877A_R307\FingerPrintSensor_R307.c"
	line	81
	global	__size_of_GetUartByte
	__size_of_GetUartByte	equ	__end_of_GetUartByte-_GetUartByte
	
_GetUartByte:	
	opt	stack 2
; Regs used in _GetUartByte: [wreg-fsr0h+status,2+status,0]
	line	82
	
l13542:	
;FingerPrintSensor_R307.c: 82: unsigned char val = UartBuffer[UartOxPtr];
	movf	(_UartOxPtr),w
	addlw	_UartBuffer&0ffh
	movwf	fsr0
	bsf	status, 7	;select IRP bank2
	movf	indf,w
	bcf	status, 5	;RP0=0, select bank0
	bcf	status, 6	;RP1=0, select bank0
	movwf	(??_GetUartByte+0)+0
	movf	(??_GetUartByte+0)+0,w
	movwf	(GetUartByte@val)
	line	83
	
l13544:	
;FingerPrintSensor_R307.c: 83: if(++UartOxPtr == 96)
	movlw	(01h)
	movwf	(??_GetUartByte+0)+0
	movf	(??_GetUartByte+0)+0,w
	addwf	(_UartOxPtr),f
	movf	((_UartOxPtr)),w
	xorlw	060h
	skipz
	goto	u13481
	goto	u13480
u13481:
	goto	l13548
u13480:
	line	84
	
l13546:	
;FingerPrintSensor_R307.c: 84: UartOxPtr = 0;
	clrf	(_UartOxPtr)
	goto	l13548
	
l3045:	
	line	86
	
l13548:	
;FingerPrintSensor_R307.c: 86: return val;
	movf	(GetUartByte@val),w
	goto	l3046
	
l13550:	
	line	87
	
l3046:	
	return
	opt stack 0
GLOBAL	__end_of_GetUartByte
	__end_of_GetUartByte:
;; =============== function _GetUartByte ends ============

	signat	_GetUartByte,89
	global	_IsUartBytePending
psect	text4275,local,class=CODE,delta=2
global __ptext4275
__ptext4275:

;; *************** function _IsUartBytePending *****************
;; Defined at:
;;		line 71 in file "C:\Users\GauravLT\Desktop\Finger Print Sensor\R307\PIC16F877A_R307\FingerPrintSensor_R307.c"
;; Parameters:    Size  Location     Type
;;		None
;; Auto vars:     Size  Location     Type
;;		None
;; Return value:  Size  Location     Type
;;                  1    wreg      unsigned char 
;; Registers used:
;;		wreg
;; Tracked objects:
;;		On entry : 0/0
;;		On exit  : 0/0
;;		Unchanged: 0/0
;; Data sizes:     COMMON   BANK0   BANK1   BANK3   BANK2
;;      Params:         0       0       0       0       0
;;      Locals:         0       0       0       0       0
;;      Temps:          0       0       0       0       0
;;      Totals:         0       0       0       0       0
;;Total ram usage:        0 bytes
;; Hardware stack levels used:    1
;; Hardware stack levels required when called:    2
;; This function calls:
;;		Nothing
;; This function is called by:
;;		_FillUpResponse
;; This function uses a non-reentrant model
;;
psect	text4275
	file	"C:\Users\GauravLT\Desktop\Finger Print Sensor\R307\PIC16F877A_R307\FingerPrintSensor_R307.c"
	line	71
	global	__size_of_IsUartBytePending
	__size_of_IsUartBytePending	equ	__end_of_IsUartBytePending-_IsUartBytePending
	
_IsUartBytePending:	
	opt	stack 2
; Regs used in _IsUartBytePending: [wreg]
	line	72
	
l13538:	
;FingerPrintSensor_R307.c: 72: return UartIxPtr != UartOxPtr;
	movf	(_UartIxPtr),w
	xorwf	(_UartOxPtr),w
	movlw	0
	skipz
	movlw	1
	goto	l3038
	
l13540:	
	line	73
	
l3038:	
	return
	opt stack 0
GLOBAL	__end_of_IsUartBytePending
	__end_of_IsUartBytePending:
;; =============== function _IsUartBytePending ends ============

	signat	_IsUartBytePending,89
	global	_ClearUartBuffer
psect	text4276,local,class=CODE,delta=2
global __ptext4276
__ptext4276:

;; *************** function _ClearUartBuffer *****************
;; Defined at:
;;		line 65 in file "C:\Users\GauravLT\Desktop\Finger Print Sensor\R307\PIC16F877A_R307\FingerPrintSensor_R307.c"
;; Parameters:    Size  Location     Type
;;		None
;; Auto vars:     Size  Location     Type
;;  i               1    1[BANK0 ] unsigned char 
;; Return value:  Size  Location     Type
;;		None               void
;; Registers used:
;;		wreg, fsr0l, fsr0h, status,2, status,0
;; Tracked objects:
;;		On entry : 0/0
;;		On exit  : 0/0
;;		Unchanged: 0/0
;; Data sizes:     COMMON   BANK0   BANK1   BANK3   BANK2
;;      Params:         0       0       0       0       0
;;      Locals:         0       1       0       0       0
;;      Temps:          0       1       0       0       0
;;      Totals:         0       2       0       0       0
;;Total ram usage:        2 bytes
;; Hardware stack levels used:    1
;; Hardware stack levels required when called:    2
;; This function calls:
;;		Nothing
;; This function is called by:
;;		_DeleteUser
;;		_VerifyPswd
;;		_ScanForImage
;;		_GenCharacterFileFromImage
;;		_HiSpeedScan
;;		_EraseAllUsers
;;		_AddUserA
;;		_AddUserB
;;		_AddUserC
;;		_LoadFingerTemplate
;;		_MatchTemplate
;; This function uses a non-reentrant model
;;
psect	text4276
	file	"C:\Users\GauravLT\Desktop\Finger Print Sensor\R307\PIC16F877A_R307\FingerPrintSensor_R307.c"
	line	65
	global	__size_of_ClearUartBuffer
	__size_of_ClearUartBuffer	equ	__end_of_ClearUartBuffer-_ClearUartBuffer
	
_ClearUartBuffer:	
	opt	stack 3
; Regs used in _ClearUartBuffer: [wreg-fsr0h+status,2+status,0]
	line	67
	
l13524:	
;FingerPrintSensor_R307.c: 66: unsigned char i;
;FingerPrintSensor_R307.c: 67: for(i=0; i<96; i++) UartBuffer[i]=0;
	bcf	status, 5	;RP0=0, select bank0
	bcf	status, 6	;RP1=0, select bank0
	clrf	(ClearUartBuffer@i)
	
l13526:	
	movlw	(060h)
	subwf	(ClearUartBuffer@i),w
	skipc
	goto	u13461
	goto	u13460
u13461:
	goto	l13530
u13460:
	goto	l13536
	
l13528:	
	goto	l13536
	
l3033:	
	
l13530:	
	movf	(ClearUartBuffer@i),w
	addlw	_UartBuffer&0ffh
	movwf	fsr0
	bsf	status, 7	;select IRP bank2
	clrf	indf
	
l13532:	
	movlw	(01h)
	movwf	(??_ClearUartBuffer+0)+0
	movf	(??_ClearUartBuffer+0)+0,w
	addwf	(ClearUartBuffer@i),f
	
l13534:	
	movlw	(060h)
	subwf	(ClearUartBuffer@i),w
	skipc
	goto	u13471
	goto	u13470
u13471:
	goto	l13530
u13470:
	goto	l13536
	
l3034:	
	line	68
	
l13536:	
;FingerPrintSensor_R307.c: 68: UartIxPtr = UartOxPtr = 0;
	movlw	(0)
	movwf	(_UartOxPtr)
	movwf	(??_ClearUartBuffer+0)+0
	movf	(??_ClearUartBuffer+0)+0,w
	movwf	(_UartIxPtr)
	line	69
	
l3035:	
	return
	opt stack 0
GLOBAL	__end_of_ClearUartBuffer
	__end_of_ClearUartBuffer:
;; =============== function _ClearUartBuffer ends ============

	signat	_ClearUartBuffer,88
	global	_SendUartByte
psect	text4277,local,class=CODE,delta=2
global __ptext4277
__ptext4277:

;; *************** function _SendUartByte *****************
;; Defined at:
;;		line 35 in file "C:\Users\GauravLT\Desktop\Finger Print Sensor\R307\PIC16F877A_R307\FingerPrintSensor_R307.c"
;; Parameters:    Size  Location     Type
;;  val             1    wreg     unsigned char 
;; Auto vars:     Size  Location     Type
;;  val             1    0[BANK0 ] unsigned char 
;; Return value:  Size  Location     Type
;;		None               void
;; Registers used:
;;		wreg
;; Tracked objects:
;;		On entry : 0/0
;;		On exit  : 0/0
;;		Unchanged: 0/0
;; Data sizes:     COMMON   BANK0   BANK1   BANK3   BANK2
;;      Params:         0       0       0       0       0
;;      Locals:         0       1       0       0       0
;;      Temps:          0       0       0       0       0
;;      Totals:         0       1       0       0       0
;;Total ram usage:        1 bytes
;; Hardware stack levels used:    1
;; Hardware stack levels required when called:    2
;; This function calls:
;;		Nothing
;; This function is called by:
;;		_SendUartValue
;;		_sendPackage
;;		_SendUartString
;; This function uses a non-reentrant model
;;
psect	text4277
	file	"C:\Users\GauravLT\Desktop\Finger Print Sensor\R307\PIC16F877A_R307\FingerPrintSensor_R307.c"
	line	35
	global	__size_of_SendUartByte
	__size_of_SendUartByte	equ	__end_of_SendUartByte-_SendUartByte
	
_SendUartByte:	
	opt	stack 2
; Regs used in _SendUartByte: [wreg]
;SendUartByte@val stored from wreg
	line	43
	bcf	status, 5	;RP0=0, select bank0
	bcf	status, 6	;RP1=0, select bank0
	movwf	(SendUartByte@val)
	
l13512:	
;FingerPrintSensor_R307.c: 42: {
;FingerPrintSensor_R307.c: 43: TXIF=0;
	bcf	(100/8),(100)&7
	line	44
	
l13514:	
;FingerPrintSensor_R307.c: 44: TXREG=val;
	movf	(SendUartByte@val),w
	movwf	(25)	;volatile
	line	45
;FingerPrintSensor_R307.c: 45: while(TXIF==0);
	goto	l3013
	
l3014:	
	
l3013:	
	btfss	(100/8),(100)&7
	goto	u13441
	goto	u13440
u13441:
	goto	l3013
u13440:
	goto	l3016
	
l3015:	
	line	47
	
l3016:	
	return
	opt stack 0
GLOBAL	__end_of_SendUartByte
	__end_of_SendUartByte:
;; =============== function _SendUartByte ends ============

	signat	_SendUartByte,4216
	global	_UartInit
psect	text4278,local,class=CODE,delta=2
global __ptext4278
__ptext4278:

;; *************** function _UartInit *****************
;; Defined at:
;;		line 20 in file "C:\Users\GauravLT\Desktop\Finger Print Sensor\R307\PIC16F877A_R307\FingerPrintSensor_R307.c"
;; Parameters:    Size  Location     Type
;;		None
;; Auto vars:     Size  Location     Type
;;		None
;; Return value:  Size  Location     Type
;;		None               void
;; Registers used:
;;		wreg
;; Tracked objects:
;;		On entry : 0/0
;;		On exit  : 0/0
;;		Unchanged: 0/0
;; Data sizes:     COMMON   BANK0   BANK1   BANK3   BANK2
;;      Params:         0       0       0       0       0
;;      Locals:         0       0       0       0       0
;;      Temps:          0       0       0       0       0
;;      Totals:         0       0       0       0       0
;;Total ram usage:        0 bytes
;; Hardware stack levels used:    1
;; Hardware stack levels required when called:    2
;; This function calls:
;;		Nothing
;; This function is called by:
;;		_main
;; This function uses a non-reentrant model
;;
psect	text4278
	file	"C:\Users\GauravLT\Desktop\Finger Print Sensor\R307\PIC16F877A_R307\FingerPrintSensor_R307.c"
	line	20
	global	__size_of_UartInit
	__size_of_UartInit	equ	__end_of_UartInit-_UartInit
	
_UartInit:	
	opt	stack 5
; Regs used in _UartInit: [wreg]
	line	22
	
l12254:	
;FingerPrintSensor_R307.c: 22: GIE = 1;
	bsf	(95/8),(95)&7
	line	23
;FingerPrintSensor_R307.c: 23: PEIE = 1;
	bsf	(94/8),(94)&7
	line	24
;FingerPrintSensor_R307.c: 24: RCIE = 1;
	bsf	status, 5	;RP0=1, select bank1
	bcf	status, 6	;RP1=0, select bank1
	bsf	(1125/8)^080h,(1125)&7
	line	27
	
l12256:	
;FingerPrintSensor_R307.c: 27: TXSTA=0x24;
	movlw	(024h)
	movwf	(152)^080h	;volatile
	line	28
;FingerPrintSensor_R307.c: 28: RCSTA=0x90;
	movlw	(090h)
	bcf	status, 5	;RP0=0, select bank0
	bcf	status, 6	;RP1=0, select bank0
	movwf	(24)	;volatile
	line	29
;FingerPrintSensor_R307.c: 29: SPBRG=20;
	movlw	(014h)
	bsf	status, 5	;RP0=1, select bank1
	bcf	status, 6	;RP1=0, select bank1
	movwf	(153)^080h	;volatile
	line	30
	
l3010:	
	return
	opt stack 0
GLOBAL	__end_of_UartInit
	__end_of_UartInit:
;; =============== function _UartInit ends ============

	signat	_UartInit,88
	global	_GetKey
psect	text4279,local,class=CODE,delta=2
global __ptext4279
__ptext4279:

;; *************** function _GetKey *****************
;; Defined at:
;;		line 36 in file "C:\Users\GauravLT\Desktop\Finger Print Sensor\R307\PIC16F877A_R307\keypd.c"
;; Parameters:    Size  Location     Type
;;		None
;; Auto vars:     Size  Location     Type
;;  key             1    1[BANK0 ] unsigned char 
;; Return value:  Size  Location     Type
;;                  1    wreg      unsigned char 
;; Registers used:
;;		wreg, fsr0l, fsr0h, status,2, status,0
;; Tracked objects:
;;		On entry : 0/0
;;		On exit  : 0/0
;;		Unchanged: 0/0
;; Data sizes:     COMMON   BANK0   BANK1   BANK3   BANK2
;;      Params:         0       0       0       0       0
;;      Locals:         0       1       0       0       0
;;      Temps:          0       1       0       0       0
;;      Totals:         0       2       0       0       0
;;Total ram usage:        2 bytes
;; Hardware stack levels used:    1
;; Hardware stack levels required when called:    2
;; This function calls:
;;		Nothing
;; This function is called by:
;;		_DeleteUserAfterAdminConfirm
;;		_menu
;;		_HiSpeedScan0
;;		_AddNewUser
;; This function uses a non-reentrant model
;;
psect	text4279
	file	"C:\Users\GauravLT\Desktop\Finger Print Sensor\R307\PIC16F877A_R307\keypd.c"
	line	36
	global	__size_of_GetKey
	__size_of_GetKey	equ	__end_of_GetKey-_GetKey
	
_GetKey:	
	opt	stack 4
; Regs used in _GetKey: [wreg-fsr0h+status,2+status,0]
	line	37
	
l13502:	
;keypd.c: 37: unsigned char key = KeypdBuffer[OxPtr];
	movf	(_OxPtr),w
	addlw	_KeypdBuffer&0ffh
	movwf	fsr0
	bsf	status, 7	;select IRP bank3
	movf	indf,w
	bcf	status, 5	;RP0=0, select bank0
	bcf	status, 6	;RP1=0, select bank0
	movwf	(??_GetKey+0)+0
	movf	(??_GetKey+0)+0,w
	movwf	(GetKey@key)
	line	38
	
l13504:	
;keypd.c: 38: if(++OxPtr == 20)
	movlw	(01h)
	movwf	(??_GetKey+0)+0
	movf	(??_GetKey+0)+0,w
	addwf	(_OxPtr),f
	movf	((_OxPtr)),w
	xorlw	014h
	skipz
	goto	u13431
	goto	u13430
u13431:
	goto	l13508
u13430:
	line	39
	
l13506:	
;keypd.c: 39: OxPtr = 0;
	clrf	(_OxPtr)
	goto	l13508
	
l2275:	
	line	41
	
l13508:	
;keypd.c: 41: return key;
	movf	(GetKey@key),w
	goto	l2276
	
l13510:	
	line	42
	
l2276:	
	return
	opt stack 0
GLOBAL	__end_of_GetKey
	__end_of_GetKey:
;; =============== function _GetKey ends ============

	signat	_GetKey,89
	global	_IsKeyPending
psect	text4280,local,class=CODE,delta=2
global __ptext4280
__ptext4280:

;; *************** function _IsKeyPending *****************
;; Defined at:
;;		line 19 in file "C:\Users\GauravLT\Desktop\Finger Print Sensor\R307\PIC16F877A_R307\keypd.c"
;; Parameters:    Size  Location     Type
;;		None
;; Auto vars:     Size  Location     Type
;;		None
;; Return value:  Size  Location     Type
;;                  1    wreg      unsigned char 
;; Registers used:
;;		wreg
;; Tracked objects:
;;		On entry : 0/0
;;		On exit  : 0/0
;;		Unchanged: 0/0
;; Data sizes:     COMMON   BANK0   BANK1   BANK3   BANK2
;;      Params:         0       0       0       0       0
;;      Locals:         0       0       0       0       0
;;      Temps:          0       0       0       0       0
;;      Totals:         0       0       0       0       0
;;Total ram usage:        0 bytes
;; Hardware stack levels used:    1
;; Hardware stack levels required when called:    2
;; This function calls:
;;		Nothing
;; This function is called by:
;;		_DeleteUserAfterAdminConfirm
;;		_menu
;;		_HiSpeedScan0
;;		_AddNewUser
;; This function uses a non-reentrant model
;;
psect	text4280
	file	"C:\Users\GauravLT\Desktop\Finger Print Sensor\R307\PIC16F877A_R307\keypd.c"
	line	19
	global	__size_of_IsKeyPending
	__size_of_IsKeyPending	equ	__end_of_IsKeyPending-_IsKeyPending
	
_IsKeyPending:	
	opt	stack 4
; Regs used in _IsKeyPending: [wreg]
	line	20
	
l13498:	
;keypd.c: 20: return IxPtr != OxPtr;
	movf	(_IxPtr),w
	xorwf	(_OxPtr),w
	movlw	0
	skipz
	movlw	1
	goto	l2268
	
l13500:	
	line	21
	
l2268:	
	return
	opt stack 0
GLOBAL	__end_of_IsKeyPending
	__end_of_IsKeyPending:
;; =============== function _IsKeyPending ends ============

	signat	_IsKeyPending,89
	global	_ee_write
psect	text4281,local,class=CODE,delta=2
global __ptext4281
__ptext4281:

;; *************** function _ee_write *****************
;; Defined at:
;;		line 39 in file "C:\Users\GauravLT\Desktop\Finger Print Sensor\R307\PIC16F877A_R307\eeprom.c"
;; Parameters:    Size  Location     Type
;;  a               1    wreg     unsigned char 
;;  d               1    3[BANK0 ] unsigned char 
;; Auto vars:     Size  Location     Type
;;  a               1    4[BANK0 ] unsigned char 
;; Return value:  Size  Location     Type
;;		None               void
;; Registers used:
;;		wreg
;; Tracked objects:
;;		On entry : 0/0
;;		On exit  : 0/0
;;		Unchanged: 0/0
;; Data sizes:     COMMON   BANK0   BANK1   BANK3   BANK2
;;      Params:         0       1       0       0       0
;;      Locals:         0       1       0       0       0
;;      Temps:          0       0       0       0       0
;;      Totals:         0       2       0       0       0
;;Total ram usage:        2 bytes
;; Hardware stack levels used:    1
;; Hardware stack levels required when called:    2
;; This function calls:
;;		Nothing
;; This function is called by:
;;		_EraseAllUsersAfterAdminConfirm
;;		_ee_eraseNPos
;;		_reserveEElocation
;;		_releaseEElocation
;; This function uses a non-reentrant model
;;
psect	text4281
	file	"C:\Users\GauravLT\Desktop\Finger Print Sensor\R307\PIC16F877A_R307\eeprom.c"
	line	39
	global	__size_of_ee_write
	__size_of_ee_write	equ	__end_of_ee_write-_ee_write
	
_ee_write:	
	opt	stack 3
; Regs used in _ee_write: [wreg]
;ee_write@a stored from wreg
	line	41
	bcf	status, 5	;RP0=0, select bank0
	bcf	status, 6	;RP1=0, select bank0
	movwf	(ee_write@a)
	line	40
;eeprom.c: 40: again:
	
l3923:	
	line	41
;eeprom.c: 41: EEPGD=0;
	bsf	status, 5	;RP0=1, select bank3
	bsf	status, 6	;RP1=1, select bank3
	bcf	(3175/8)^0180h,(3175)&7
	line	42
	
l13488:	
;eeprom.c: 42: EEADR=a;
	bcf	status, 5	;RP0=0, select bank0
	bcf	status, 6	;RP1=0, select bank0
	movf	(ee_write@a),w
	bcf	status, 5	;RP0=0, select bank2
	bsf	status, 6	;RP1=1, select bank2
	movwf	(269)^0100h	;volatile
	line	43
;eeprom.c: 43: EEDATA=d;
	bcf	status, 5	;RP0=0, select bank0
	bcf	status, 6	;RP1=0, select bank0
	movf	(ee_write@d),w
	bcf	status, 5	;RP0=0, select bank2
	bsf	status, 6	;RP1=1, select bank2
	movwf	(268)^0100h	;volatile
	line	44
	
l13490:	
;eeprom.c: 44: WRERR=0;
	bsf	status, 5	;RP0=1, select bank3
	bsf	status, 6	;RP1=1, select bank3
	bcf	(3171/8)^0180h,(3171)&7
	line	45
	
l13492:	
;eeprom.c: 45: WREN=1;
	bsf	(3170/8)^0180h,(3170)&7
	line	46
;eeprom.c: 46: EECON2=0X55;
	movlw	(055h)
	movwf	(397)^0180h	;volatile
	line	47
;eeprom.c: 47: EECON2=0XAA;
	movlw	(0AAh)
	movwf	(397)^0180h	;volatile
	line	48
	
l13494:	
;eeprom.c: 48: WR=1;
	bsf	(3169/8)^0180h,(3169)&7
	line	49
;eeprom.c: 49: while(WR==1)
	goto	l3924
	
l3925:	
	line	50
;eeprom.c: 50: WREN=0;
	bcf	(3170/8)^0180h,(3170)&7
	
l3924:	
	line	49
	btfsc	(3169/8)^0180h,(3169)&7
	goto	u13411
	goto	u13410
u13411:
	goto	l3925
u13410:
	
l3926:	
	line	51
;eeprom.c: 51: if(WRERR==1)
	btfss	(3171/8)^0180h,(3171)&7
	goto	u13421
	goto	u13420
u13421:
	goto	l3928
u13420:
	goto	l3923
	line	53
	
l13496:	
;eeprom.c: 52: {
;eeprom.c: 53: goto again;
	goto	l3923
	line	54
	
l3927:	
	line	55
	
l3928:	
	return
	opt stack 0
GLOBAL	__end_of_ee_write
	__end_of_ee_write:
;; =============== function _ee_write ends ============

	signat	_ee_write,8312
	global	_ee_read
psect	text4282,local,class=CODE,delta=2
global __ptext4282
__ptext4282:

;; *************** function _ee_read *****************
;; Defined at:
;;		line 59 in file "C:\Users\GauravLT\Desktop\Finger Print Sensor\R307\PIC16F877A_R307\eeprom.c"
;; Parameters:    Size  Location     Type
;;  a               1    wreg     unsigned char 
;; Auto vars:     Size  Location     Type
;;  a               1    1[BANK0 ] unsigned char 
;;  d               1    2[BANK0 ] unsigned char 
;; Return value:  Size  Location     Type
;;                  1    wreg      unsigned char 
;; Registers used:
;;		wreg
;; Tracked objects:
;;		On entry : 0/0
;;		On exit  : 0/0
;;		Unchanged: 0/0
;; Data sizes:     COMMON   BANK0   BANK1   BANK3   BANK2
;;      Params:         0       0       0       0       0
;;      Locals:         0       2       0       0       0
;;      Temps:          0       1       0       0       0
;;      Totals:         0       3       0       0       0
;;Total ram usage:        3 bytes
;; Hardware stack levels used:    1
;; Hardware stack levels required when called:    2
;; This function calls:
;;		Nothing
;; This function is called by:
;;		_EraseAllUsersAfterAdminConfirm
;;		_AlterAdminUser
;;		_AddNewUserAfterAdminConfirm
;;		_DeleteUserAfterAdminConfirm
;;		_getNextAvailLocation
;;		_reserveEElocation
;;		_releaseEElocation
;; This function uses a non-reentrant model
;;
psect	text4282
	file	"C:\Users\GauravLT\Desktop\Finger Print Sensor\R307\PIC16F877A_R307\eeprom.c"
	line	59
	global	__size_of_ee_read
	__size_of_ee_read	equ	__end_of_ee_read-_ee_read
	
_ee_read:	
	opt	stack 3
; Regs used in _ee_read: [wreg]
;ee_read@a stored from wreg
	line	61
	bcf	status, 5	;RP0=0, select bank0
	bcf	status, 6	;RP1=0, select bank0
	movwf	(ee_read@a)
	
l13476:	
;eeprom.c: 60: unsigned char d;
;eeprom.c: 61: EEPGD=0;
	bsf	status, 5	;RP0=1, select bank3
	bsf	status, 6	;RP1=1, select bank3
	bcf	(3175/8)^0180h,(3175)&7
	line	62
	
l13478:	
;eeprom.c: 62: EEADR=a;
	bcf	status, 5	;RP0=0, select bank0
	bcf	status, 6	;RP1=0, select bank0
	movf	(ee_read@a),w
	bcf	status, 5	;RP0=0, select bank2
	bsf	status, 6	;RP1=1, select bank2
	movwf	(269)^0100h	;volatile
	line	63
	
l13480:	
;eeprom.c: 63: WREN=0;
	bsf	status, 5	;RP0=1, select bank3
	bsf	status, 6	;RP1=1, select bank3
	bcf	(3170/8)^0180h,(3170)&7
	line	64
	
l13482:	
;eeprom.c: 64: RD=1;
	bsf	(3168/8)^0180h,(3168)&7
	line	65
;eeprom.c: 65: while(RD==1);
	goto	l3931
	
l3932:	
	
l3931:	
	btfsc	(3168/8)^0180h,(3168)&7
	goto	u13401
	goto	u13400
u13401:
	goto	l3931
u13400:
	goto	l13484
	
l3933:	
	line	66
	
l13484:	
;eeprom.c: 66: d=EEDATA;
	bcf	status, 5	;RP0=0, select bank2
	bsf	status, 6	;RP1=1, select bank2
	movf	(268)^0100h,w	;volatile
	bcf	status, 5	;RP0=0, select bank0
	bcf	status, 6	;RP1=0, select bank0
	movwf	(??_ee_read+0)+0
	movf	(??_ee_read+0)+0,w
	movwf	(ee_read@d)
	line	67
;eeprom.c: 67: return d;
	movf	(ee_read@d),w
	goto	l3934
	
l13486:	
	line	68
	
l3934:	
	return
	opt stack 0
GLOBAL	__end_of_ee_read
	__end_of_ee_read:
;; =============== function _ee_read ends ============

	signat	_ee_read,4217
	global	_memset1
psect	text4283,local,class=CODE,delta=2
global __ptext4283
__ptext4283:

;; *************** function _memset1 *****************
;; Defined at:
;;		line 87 in file "C:\Users\GauravLT\Desktop\Finger Print Sensor\R307\PIC16F877A_R307\eeprom.c"
;; Parameters:    Size  Location     Type
;;  str             2    0[BANK0 ] PTR unsigned char 
;;		 -> FillUpResponse@_Response(12), ControlAccess@buff(10), LcdBuffer(32), 
;;  data            1    2[BANK0 ] unsigned char 
;;  len             2    3[BANK0 ] unsigned int 
;; Auto vars:     Size  Location     Type
;;		None
;; Return value:  Size  Location     Type
;;		None               void
;; Registers used:
;;		wreg, fsr0l, fsr0h, status,2, status,0
;; Tracked objects:
;;		On entry : 0/0
;;		On exit  : 0/0
;;		Unchanged: 0/0
;; Data sizes:     COMMON   BANK0   BANK1   BANK3   BANK2
;;      Params:         0       5       0       0       0
;;      Locals:         0       0       0       0       0
;;      Temps:          0       3       0       0       0
;;      Totals:         0       8       0       0       0
;;Total ram usage:        8 bytes
;; Hardware stack levels used:    1
;; Hardware stack levels required when called:    2
;; This function calls:
;;		Nothing
;; This function is called by:
;;		_LcdClear
;;		_ControlAccess
;;		_FillUpResponse
;; This function uses a non-reentrant model
;;
psect	text4283
	file	"C:\Users\GauravLT\Desktop\Finger Print Sensor\R307\PIC16F877A_R307\eeprom.c"
	line	87
	global	__size_of_memset1
	__size_of_memset1	equ	__end_of_memset1-_memset1
	
_memset1:	
	opt	stack 2
; Regs used in _memset1: [wreg-fsr0h+status,2+status,0]
	line	88
	
l13464:	
;eeprom.c: 88: while(len>0)
	goto	l13470
	
l3950:	
	line	90
	
l13466:	
;eeprom.c: 89: {
;eeprom.c: 90: len--;
	movlw	low(01h)
	bcf	status, 5	;RP0=0, select bank0
	bcf	status, 6	;RP1=0, select bank0
	subwf	(memset1@len),f
	movlw	high(01h)
	skipc
	decf	(memset1@len+1),f
	subwf	(memset1@len+1),f
	line	91
	
l13468:	
;eeprom.c: 91: *(str+len)=data;
	movf	(memset1@data),w
	movwf	(??_memset1+0)+0
	movf	(memset1@len),w
	addwf	(memset1@str),w
	movwf	(??_memset1+1)+0
	movf	(memset1@str+1),w
	skipnc
	addlw	1
	movwf	1+((??_memset1+1)+0)
	movf	0+(??_memset1+1)+0,w
	movwf	fsr0
	bsf	status,7
	btfss	1+(??_memset1+1)+0,0
	bcf	status,7
	movf	(??_memset1+0)+0,w
	movwf	indf
	goto	l13470
	line	92
	
l3949:	
	line	88
	
l13470:	
	bcf	status, 5	;RP0=0, select bank0
	bcf	status, 6	;RP1=0, select bank0
	movf	((memset1@len+1)),w
	iorwf	((memset1@len)),w
	skipz
	goto	u13381
	goto	u13380
u13381:
	goto	l13466
u13380:
	goto	l3952
	
l3951:	
	line	93
	
l3952:	
	return
	opt stack 0
GLOBAL	__end_of_memset1
	__end_of_memset1:
;; =============== function _memset1 ends ============

	signat	_memset1,12408
	global	_LcdDelay
psect	text4284,local,class=CODE,delta=2
global __ptext4284
__ptext4284:

;; *************** function _LcdDelay *****************
;; Defined at:
;;		line 72 in file "C:\Users\GauravLT\Desktop\Finger Print Sensor\R307\PIC16F877A_R307\lcd.c"
;; Parameters:    Size  Location     Type
;;  d               2    0[BANK0 ] unsigned int 
;; Auto vars:     Size  Location     Type
;;		None
;; Return value:  Size  Location     Type
;;		None               void
;; Registers used:
;;		wreg, status,2, status,0
;; Tracked objects:
;;		On entry : 0/0
;;		On exit  : 0/0
;;		Unchanged: 0/0
;; Data sizes:     COMMON   BANK0   BANK1   BANK3   BANK2
;;      Params:         0       2       0       0       0
;;      Locals:         0       0       0       0       0
;;      Temps:          0       0       0       0       0
;;      Totals:         0       2       0       0       0
;;Total ram usage:        2 bytes
;; Hardware stack levels used:    1
;; Hardware stack levels required when called:    2
;; This function calls:
;;		Nothing
;; This function is called by:
;;		_LcdInit
;;		_SendByte
;;		_PutKey
;; This function uses a non-reentrant model
;;
psect	text4284
	file	"C:\Users\GauravLT\Desktop\Finger Print Sensor\R307\PIC16F877A_R307\lcd.c"
	line	72
	global	__size_of_LcdDelay
	__size_of_LcdDelay	equ	__end_of_LcdDelay-_LcdDelay
	
_LcdDelay:	
	opt	stack 2
; Regs used in _LcdDelay: [wreg+status,2+status,0]
	line	73
	
l13458:	
;lcd.c: 73: while(d>0) d--;
	goto	l13462
	
l723:	
	
l13460:	
	movlw	low(01h)
	bcf	status, 5	;RP0=0, select bank0
	bcf	status, 6	;RP1=0, select bank0
	subwf	(LcdDelay@d),f
	movlw	high(01h)
	skipc
	decf	(LcdDelay@d+1),f
	subwf	(LcdDelay@d+1),f
	goto	l13462
	
l722:	
	
l13462:	
	bcf	status, 5	;RP0=0, select bank0
	bcf	status, 6	;RP1=0, select bank0
	movf	((LcdDelay@d+1)),w
	iorwf	((LcdDelay@d)),w
	skipz
	goto	u13371
	goto	u13370
u13371:
	goto	l13460
u13370:
	goto	l725
	
l724:	
	line	74
	
l725:	
	return
	opt stack 0
GLOBAL	__end_of_LcdDelay
	__end_of_LcdDelay:
;; =============== function _LcdDelay ends ============

	signat	_LcdDelay,4216
	global	_isr
psect	text4285,local,class=CODE,delta=2
global __ptext4285
__ptext4285:

;; *************** function _isr *****************
;; Defined at:
;;		line 327 in file "C:\Users\GauravLT\Desktop\Finger Print Sensor\R307\PIC16F877A_R307\main.c"
;; Parameters:    Size  Location     Type
;;		None
;; Auto vars:     Size  Location     Type
;;		None
;; Return value:  Size  Location     Type
;;		None               void
;; Registers used:
;;		wreg, fsr0l, fsr0h, status,2, status,0, pclath, cstack
;; Tracked objects:
;;		On entry : 0/0
;;		On exit  : 0/0
;;		Unchanged: 0/0
;; Data sizes:     COMMON   BANK0   BANK1   BANK3   BANK2
;;      Params:         0       0       0       0       0
;;      Locals:         0       0       0       0       0
;;      Temps:          4       0       0       0       0
;;      Totals:         4       0       0       0       0
;;Total ram usage:        4 bytes
;; Hardware stack levels used:    1
;; Hardware stack levels required when called:    1
;; This function calls:
;;		_PutUartByte
;; This function is called by:
;;		Interrupt level 1
;; This function uses a non-reentrant model
;;
psect	text4285
	file	"C:\Users\GauravLT\Desktop\Finger Print Sensor\R307\PIC16F877A_R307\main.c"
	line	327
	global	__size_of_isr
	__size_of_isr	equ	__end_of_isr-_isr
	
_isr:	
	opt	stack 0
; Regs used in _isr: [wreg-fsr0h+status,2+status,0+pclath+cstack]
psect	intentry,class=CODE,delta=2
global __pintentry
__pintentry:
global interrupt_function
interrupt_function:
	global saved_w
	saved_w	set	btemp+0
	movwf	saved_w
	swapf	status,w
	movwf	(??_isr+0)
	movf	fsr0,w
	movwf	(??_isr+1)
	movf	pclath,w
	movwf	(??_isr+2)
	bcf	status, 5	;RP0=0, select bank0
	bcf	status, 6	;RP1=0, select bank0
	movf	btemp+1,w
	movwf	(??_isr+3)
	ljmp	_isr
psect	text4285
	line	328
	
i1l7210:	
;main.c: 328: if(RCIF == 1)
	btfss	(101/8),(101)&7
	goto	u402_21
	goto	u402_20
u402_21:
	goto	i1l1540
u402_20:
	line	330
	
i1l7212:	
;main.c: 329: {
;main.c: 330: PutUartByte(RCREG);
	movf	(26),w	;volatile
	fcall	_PutUartByte
	line	331
	
i1l7214:	
;main.c: 331: RCIF = 0;
	bcf	status, 5	;RP0=0, select bank0
	bcf	status, 6	;RP1=0, select bank0
	bcf	(101/8),(101)&7
	goto	i1l1540
	line	332
	
i1l1539:	
	line	333
	
i1l1540:	
	movf	(??_isr+3),w
	movwf	btemp+1
	movf	(??_isr+2),w
	movwf	pclath
	movf	(??_isr+1),w
	movwf	fsr0
	swapf	(??_isr+0)^0FFFFFF80h,w
	movwf	status
	swapf	saved_w,f
	swapf	saved_w,w
	retfie
	opt stack 0
GLOBAL	__end_of_isr
	__end_of_isr:
;; =============== function _isr ends ============

	signat	_isr,88
	global	_PutUartByte
psect	text4286,local,class=CODE,delta=2
global __ptext4286
__ptext4286:

;; *************** function _PutUartByte *****************
;; Defined at:
;;		line 75 in file "C:\Users\GauravLT\Desktop\Finger Print Sensor\R307\PIC16F877A_R307\FingerPrintSensor_R307.c"
;; Parameters:    Size  Location     Type
;;  val             1    wreg     unsigned char 
;; Auto vars:     Size  Location     Type
;;  val             1    1[COMMON] unsigned char 
;; Return value:  Size  Location     Type
;;		None               void
;; Registers used:
;;		wreg, fsr0l, fsr0h, status,2, status,0
;; Tracked objects:
;;		On entry : 0/0
;;		On exit  : 0/0
;;		Unchanged: 0/0
;; Data sizes:     COMMON   BANK0   BANK1   BANK3   BANK2
;;      Params:         0       0       0       0       0
;;      Locals:         1       0       0       0       0
;;      Temps:          1       0       0       0       0
;;      Totals:         2       0       0       0       0
;;Total ram usage:        2 bytes
;; Hardware stack levels used:    1
;; This function calls:
;;		Nothing
;; This function is called by:
;;		_isr
;; This function uses a non-reentrant model
;;
psect	text4286
	file	"C:\Users\GauravLT\Desktop\Finger Print Sensor\R307\PIC16F877A_R307\FingerPrintSensor_R307.c"
	line	75
	global	__size_of_PutUartByte
	__size_of_PutUartByte	equ	__end_of_PutUartByte-_PutUartByte
	
_PutUartByte:	
	opt	stack 0
; Regs used in _PutUartByte: [wreg-fsr0h+status,2+status,0]
;PutUartByte@val stored from wreg
	movwf	(PutUartByte@val)
	line	76
	
i1l7216:	
;FingerPrintSensor_R307.c: 76: UartBuffer[UartIxPtr] = val;
	movf	(PutUartByte@val),w
	movwf	(??_PutUartByte+0)+0
	movf	(_UartIxPtr),w
	addlw	_UartBuffer&0ffh
	movwf	fsr0
	movf	(??_PutUartByte+0)+0,w
	bsf	status, 7	;select IRP bank2
	movwf	indf
	line	77
	
i1l7218:	
;FingerPrintSensor_R307.c: 77: if(++UartIxPtr == 96)
	movlw	(01h)
	movwf	(??_PutUartByte+0)+0
	movf	(??_PutUartByte+0)+0,w
	addwf	(_UartIxPtr),f
	movf	((_UartIxPtr)),w
	xorlw	060h
	skipz
	goto	u403_21
	goto	u403_20
u403_21:
	goto	i1l3042
u403_20:
	line	78
	
i1l7220:	
;FingerPrintSensor_R307.c: 78: UartIxPtr = 0;
	clrf	(_UartIxPtr)
	goto	i1l3042
	
i1l3041:	
	line	79
	
i1l3042:	
	return
	opt stack 0
GLOBAL	__end_of_PutUartByte
	__end_of_PutUartByte:
;; =============== function _PutUartByte ends ============

	signat	_PutUartByte,4216
psect	text4287,local,class=CODE,delta=2
global __ptext4287
__ptext4287:
	global	btemp
	btemp set 07Eh

	DABS	1,126,2	;btemp
	global	wtemp0
	wtemp0 set btemp
	end
